ARM GAS  C:\Users\pedro\AppData\Local\Temp\ccPS94c8.s 			page 1


   1              		.cpu cortex-m7
   2              		.eabi_attribute 28, 1
   3              		.eabi_attribute 20, 1
   4              		.eabi_attribute 21, 1
   5              		.eabi_attribute 23, 3
   6              		.eabi_attribute 24, 1
   7              		.eabi_attribute 25, 1
   8              		.eabi_attribute 26, 1
   9              		.eabi_attribute 30, 2
  10              		.eabi_attribute 34, 1
  11              		.eabi_attribute 18, 4
  12              		.file	"adsr.cpp"
  13              		.text
  14              		.section	.text._ZN7daisysp4Adsr4InitEfi,"ax",%progbits
  15              		.align	1
  16              		.p2align 2,,3
  17              		.global	_ZN7daisysp4Adsr4InitEfi
  18              		.arch armv7e-m
  19              		.syntax unified
  20              		.thumb
  21              		.thumb_func
  22              		.fpu fpv5-d16
  24              	_ZN7daisysp4Adsr4InitEfi:
  25              		@ args = 0, pretend = 0, frame = 0
  26              		@ frame_needed = 0, uses_anonymous_args = 0
  27 0000 07EE901A 		vmov	s15, r1	@ int
  28 0004 324A     		ldr	r2, .L6
  29 0006 0023     		movs	r3, #0
  30 0008 0021     		movs	r1, #0
  31 000a B8EEE77A 		vcvt.f32.s32	s14, s15
  32 000e 0260     		str	r2, [r0]	@ float
  33 0010 304A     		ldr	r2, .L6+4
  34 0012 4360     		str	r3, [r0, #4]	@ float
  35 0014 C0EE077A 		vdiv.f32	s15, s0, s14
  36 0018 9FED2F0A 		vldr.32	s0, .L6+8
  37 001c 8185     		strh	r1, [r0, #44]	@ movhi
  38 001e 8360     		str	r3, [r0, #8]	@ float
  39 0020 C260     		str	r2, [r0, #12]	@ float
  40 0022 10B5     		push	{r4, lr}
  41 0024 2DED048B 		vpush.64	{d8, d9}
  42 0028 9FED2C8A 		vldr.32	s16, .L6+12
  43 002c BFEE009A 		vmov.f32	s18, #-1.0e+0
  44 0030 0446     		mov	r4, r0
  45 0032 F7EE008A 		vmov.f32	s17, #1.0e+0
  46 0036 80ED048A 		vstr.32	s16, [r0, #16]
  47 003a 80ED059A 		vstr.32	s18, [r0, #20]
  48 003e 80ED069A 		vstr.32	s18, [r0, #24]
  49 0042 FDEEE77A 		vcvt.s32.f32	s15, s15
  50 0046 B8EEE77A 		vcvt.f32.s32	s14, s15
  51 004a C0ED0A7A 		vstr.32	s15, [r0, #40]	@ int
  52 004e 27EE087A 		vmul.f32	s14, s14, s16
  53 0052 80EE070A 		vdiv.f32	s0, s0, s14
  54 0056 FFF7FEFF 		bl	expf
  55 005a D4ED057A 		vldr.32	s15, [r4, #20]
  56 005e F4EE487A 		vcmp.f32	s15, s16
  57 0062 38EEC00A 		vsub.f32	s0, s17, s0
  58 0066 F1EE10FA 		vmrs	APSR_nzcv, FPSCR
ARM GAS  C:\Users\pedro\AppData\Local\Temp\ccPS94c8.s 			page 2


  59 006a 84ED070A 		vstr.32	s0, [r4, #28]
  60 006e 0FD0     		beq	.L2
  61 0070 D4ED0A7A 		vldr.32	s15, [r4, #40]	@ int
  62 0074 84ED058A 		vstr.32	s16, [r4, #20]
  63 0078 B8EEE70A 		vcvt.f32.s32	s0, s15
  64 007c 20EE080A 		vmul.f32	s0, s0, s16
  65 0080 89EE000A 		vdiv.f32	s0, s18, s0
  66 0084 FFF7FEFF 		bl	expf
  67 0088 38EEC00A 		vsub.f32	s0, s17, s0
  68 008c 84ED080A 		vstr.32	s0, [r4, #32]
  69              	.L2:
  70 0090 9FED127A 		vldr.32	s14, .L6+12
  71 0094 D4ED067A 		vldr.32	s15, [r4, #24]
  72 0098 F4EE477A 		vcmp.f32	s15, s14
  73 009c F1EE10FA 		vmrs	APSR_nzcv, FPSCR
  74 00a0 13D0     		beq	.L1
  75 00a2 D4ED0A7A 		vldr.32	s15, [r4, #40]	@ int
  76 00a6 BFEE000A 		vmov.f32	s0, #-1.0e+0
  77 00aa 84ED067A 		vstr.32	s14, [r4, #24]
  78 00ae F8EEE77A 		vcvt.f32.s32	s15, s15
  79 00b2 67EE877A 		vmul.f32	s15, s15, s14
  80 00b6 80EE270A 		vdiv.f32	s0, s0, s15
  81 00ba FFF7FEFF 		bl	expf
  82 00be F7EE007A 		vmov.f32	s15, #1.0e+0
  83 00c2 37EEC00A 		vsub.f32	s0, s15, s0
  84 00c6 84ED090A 		vstr.32	s0, [r4, #36]
  85              	.L1:
  86 00ca BDEC048B 		vldm	sp!, {d8-d9}
  87 00ce 10BD     		pop	{r4, pc}
  88              	.L7:
  89              		.align	2
  90              	.L6:
  91 00d0 3333333F 		.word	1060320051
  92 00d4 AE47813F 		.word	1065437102
  93 00d8 12AF93C0 		.word	-1064063214
  94 00dc CDCCCC3D 		.word	1036831949
  96              		.section	.text._ZN7daisysp4Adsr9RetriggerEb,"ax",%progbits
  97              		.align	1
  98              		.p2align 2,,3
  99              		.global	_ZN7daisysp4Adsr9RetriggerEb
 100              		.syntax unified
 101              		.thumb
 102              		.thumb_func
 103              		.fpu fpv5-d16
 105              	_ZN7daisysp4Adsr9RetriggerEb:
 106              		@ args = 0, pretend = 0, frame = 0
 107              		@ frame_needed = 0, uses_anonymous_args = 0
 108              		@ link register save eliminated.
 109 0000 0123     		movs	r3, #1
 110 0002 80F82C30 		strb	r3, [r0, #44]
 111 0006 09B1     		cbz	r1, .L8
 112 0008 0023     		movs	r3, #0
 113 000a 4360     		str	r3, [r0, #4]	@ float
 114              	.L8:
 115 000c 7047     		bx	lr
 117 000e 00BF     		.section	.text._ZN7daisysp4Adsr7SetTimeEif,"ax",%progbits
 118              		.align	1
ARM GAS  C:\Users\pedro\AppData\Local\Temp\ccPS94c8.s 			page 3


 119              		.p2align 2,,3
 120              		.global	_ZN7daisysp4Adsr7SetTimeEif
 121              		.syntax unified
 122              		.thumb
 123              		.thumb_func
 124              		.fpu fpv5-d16
 126              	_ZN7daisysp4Adsr7SetTimeEif:
 127              		@ args = 0, pretend = 0, frame = 0
 128              		@ frame_needed = 0, uses_anonymous_args = 0
 129 0000 0229     		cmp	r1, #2
 130 0002 10B5     		push	{r4, lr}
 131 0004 0446     		mov	r4, r0
 132 0006 2AD0     		beq	.L14
 133 0008 0429     		cmp	r1, #4
 134 000a 16D0     		beq	.L15
 135 000c 0129     		cmp	r1, #1
 136 000e 00D0     		beq	.L32
 137              	.L13:
 138 0010 10BD     		pop	{r4, pc}
 139              	.L32:
 140 0012 D0ED047A 		vldr.32	s15, [r0, #16]
 141 0016 B4EE670A 		vcmp.f32	s0, s15
 142 001a F1EE10FA 		vmrs	APSR_nzcv, FPSCR
 143 001e 30D0     		beq	.L33
 144              	.L17:
 145 0020 B5EEC00A 		vcmpe.f32	s0, #0
 146 0024 0023     		movs	r3, #0
 147 0026 84ED040A 		vstr.32	s0, [r4, #16]
 148 002a A360     		str	r3, [r4, #8]	@ float
 149 002c F1EE10FA 		vmrs	APSR_nzcv, FPSCR
 150 0030 2FDC     		bgt	.L34
 151 0032 4FF07E53 		mov	r3, #1065353216
 152 0036 E361     		str	r3, [r4, #28]	@ float
 153 0038 10BD     		pop	{r4, pc}
 154              	.L15:
 155 003a D0ED067A 		vldr.32	s15, [r0, #24]
 156 003e B4EE670A 		vcmp.f32	s0, s15
 157 0042 F1EE10FA 		vmrs	APSR_nzcv, FPSCR
 158 0046 E3D0     		beq	.L13
 159 0048 B5EEC00A 		vcmpe.f32	s0, #0
 160 004c 80ED060A 		vstr.32	s0, [r0, #24]
 161 0050 F1EE10FA 		vmrs	APSR_nzcv, FPSCR
 162 0054 45DC     		bgt	.L35
 163 0056 4FF07E53 		mov	r3, #1065353216
 164 005a 4362     		str	r3, [r0, #36]	@ float
 165 005c 10BD     		pop	{r4, pc}
 166              	.L14:
 167 005e D0ED057A 		vldr.32	s15, [r0, #20]
 168 0062 B4EE670A 		vcmp.f32	s0, s15
 169 0066 F1EE10FA 		vmrs	APSR_nzcv, FPSCR
 170 006a D1D0     		beq	.L13
 171 006c B5EEC00A 		vcmpe.f32	s0, #0
 172 0070 80ED050A 		vstr.32	s0, [r0, #20]
 173 0074 F1EE10FA 		vmrs	APSR_nzcv, FPSCR
 174 0078 20DC     		bgt	.L36
 175 007a 4FF07E53 		mov	r3, #1065353216
 176 007e 0362     		str	r3, [r0, #32]	@ float
ARM GAS  C:\Users\pedro\AppData\Local\Temp\ccPS94c8.s 			page 4


 177 0080 10BD     		pop	{r4, pc}
 178              	.L33:
 179 0082 D0ED027A 		vldr.32	s15, [r0, #8]
 180 0086 F5EE407A 		vcmp.f32	s15, #0
 181 008a F1EE10FA 		vmrs	APSR_nzcv, FPSCR
 182 008e C7D1     		bne	.L17
 183 0090 10BD     		pop	{r4, pc}
 184              	.L34:
 185 0092 D4ED0A7A 		vldr.32	s15, [r4, #40]	@ int
 186 0096 1C4B     		ldr	r3, .L37
 187 0098 F8EEE77A 		vcvt.f32.s32	s15, s15
 188 009c 9FED1B7A 		vldr.32	s14, .L37+4
 189 00a0 E360     		str	r3, [r4, #12]	@ float
 190 00a2 27EE800A 		vmul.f32	s0, s15, s0
 191 00a6 87EE000A 		vdiv.f32	s0, s14, s0
 192 00aa FFF7FEFF 		bl	expf
 193 00ae F7EE007A 		vmov.f32	s15, #1.0e+0
 194 00b2 37EEC00A 		vsub.f32	s0, s15, s0
 195 00b6 84ED070A 		vstr.32	s0, [r4, #28]
 196 00ba 10BD     		pop	{r4, pc}
 197              	.L36:
 198 00bc D0ED0A7A 		vldr.32	s15, [r0, #40]	@ int
 199 00c0 BFEE007A 		vmov.f32	s14, #-1.0e+0
 200 00c4 F8EEE77A 		vcvt.f32.s32	s15, s15
 201 00c8 27EE800A 		vmul.f32	s0, s15, s0
 202 00cc 87EE000A 		vdiv.f32	s0, s14, s0
 203 00d0 FFF7FEFF 		bl	expf
 204 00d4 F7EE007A 		vmov.f32	s15, #1.0e+0
 205 00d8 37EEC00A 		vsub.f32	s0, s15, s0
 206 00dc 84ED080A 		vstr.32	s0, [r4, #32]
 207 00e0 10BD     		pop	{r4, pc}
 208              	.L35:
 209 00e2 D0ED0A7A 		vldr.32	s15, [r0, #40]	@ int
 210 00e6 BFEE007A 		vmov.f32	s14, #-1.0e+0
 211 00ea F8EEE77A 		vcvt.f32.s32	s15, s15
 212 00ee 27EE800A 		vmul.f32	s0, s15, s0
 213 00f2 87EE000A 		vdiv.f32	s0, s14, s0
 214 00f6 FFF7FEFF 		bl	expf
 215 00fa F7EE007A 		vmov.f32	s15, #1.0e+0
 216 00fe 37EEC00A 		vsub.f32	s0, s15, s0
 217 0102 84ED090A 		vstr.32	s0, [r4, #36]
 218 0106 10BD     		pop	{r4, pc}
 219              	.L38:
 220              		.align	2
 221              	.L37:
 222 0108 AE47813F 		.word	1065437102
 223 010c 12AF93C0 		.word	-1064063214
 225              		.section	.text._ZN7daisysp4Adsr13SetAttackTimeEff,"ax",%progbits
 226              		.align	1
 227              		.p2align 2,,3
 228              		.global	_ZN7daisysp4Adsr13SetAttackTimeEff
 229              		.syntax unified
 230              		.thumb
 231              		.thumb_func
 232              		.fpu fpv5-d16
 234              	_ZN7daisysp4Adsr13SetAttackTimeEff:
 235              		@ args = 0, pretend = 0, frame = 0
ARM GAS  C:\Users\pedro\AppData\Local\Temp\ccPS94c8.s 			page 5


 236              		@ frame_needed = 0, uses_anonymous_args = 0
 237 0000 D0ED047A 		vldr.32	s15, [r0, #16]
 238 0004 F4EE407A 		vcmp.f32	s15, s0
 239 0008 10B5     		push	{r4, lr}
 240 000a F1EE10FA 		vmrs	APSR_nzcv, FPSCR
 241 000e 0446     		mov	r4, r0
 242 0010 2DED048B 		vpush.64	{d8, d9}
 243 0014 F0EE408A 		vmov.f32	s17, s0
 244 0018 B0EE608A 		vmov.f32	s16, s1
 245 001c 06D1     		bne	.L40
 246 001e D0ED027A 		vldr.32	s15, [r0, #8]
 247 0022 F4EE607A 		vcmp.f32	s15, s1
 248 0026 F1EE10FA 		vmrs	APSR_nzcv, FPSCR
 249 002a 0BD0     		beq	.L39
 250              	.L40:
 251 002c F5EEC08A 		vcmpe.f32	s17, #0
 252 0030 C4ED048A 		vstr.32	s17, [r4, #16]
 253 0034 84ED028A 		vstr.32	s16, [r4, #8]
 254 0038 F1EE10FA 		vmrs	APSR_nzcv, FPSCR
 255 003c 05DC     		bgt	.L47
 256 003e 4FF07E53 		mov	r3, #1065353216
 257 0042 E361     		str	r3, [r4, #28]	@ float
 258              	.L39:
 259 0044 BDEC048B 		vldm	sp!, {d8-d9}
 260 0048 10BD     		pop	{r4, pc}
 261              	.L47:
 262 004a F2EE040A 		vmov.f32	s1, #1.0e+1
 263 004e B0EE480A 		vmov.f32	s0, s16
 264 0052 FFF7FEFF 		bl	powf
 265 0056 DFED130A 		vldr.32	s1, .L48
 266 005a B2EE027A 		vmov.f32	s14, #9.0e+0
 267 005e DFED127A 		vldr.32	s15, .L48+4
 268 0062 28EE208A 		vmul.f32	s16, s16, s1
 269 0066 B7EE009A 		vmov.f32	s18, #1.0e+0
 270 006a A0EE078A 		vfma.f32	s16, s0, s14
 271 006e 38EE278A 		vadd.f32	s16, s16, s15
 272 0072 89EE080A 		vdiv.f32	s0, s18, s16
 273 0076 84ED038A 		vstr.32	s16, [r4, #12]
 274 007a 39EE400A 		vsub.f32	s0, s18, s0
 275 007e FFF7FEFF 		bl	logf
 276 0082 D4ED0A7A 		vldr.32	s15, [r4, #40]	@ int
 277 0086 F8EEE77A 		vcvt.f32.s32	s15, s15
 278 008a 67EEA88A 		vmul.f32	s17, s15, s17
 279 008e 80EE280A 		vdiv.f32	s0, s0, s17
 280 0092 FFF7FEFF 		bl	expf
 281 0096 39EE400A 		vsub.f32	s0, s18, s0
 282 009a BDEC048B 		vldm	sp!, {d8-d9}
 283 009e 84ED070A 		vstr.32	s0, [r4, #28]
 284 00a2 10BD     		pop	{r4, pc}
 285              	.L49:
 286              		.align	2
 287              	.L48:
 288 00a4 9A99993E 		.word	1050253722
 289 00a8 AE47813F 		.word	1065437102
 291              		.section	.text._ZN7daisysp4Adsr12SetDecayTimeEf,"ax",%progbits
 292              		.align	1
 293              		.p2align 2,,3
ARM GAS  C:\Users\pedro\AppData\Local\Temp\ccPS94c8.s 			page 6


 294              		.global	_ZN7daisysp4Adsr12SetDecayTimeEf
 295              		.syntax unified
 296              		.thumb
 297              		.thumb_func
 298              		.fpu fpv5-d16
 300              	_ZN7daisysp4Adsr12SetDecayTimeEf:
 301              		@ args = 0, pretend = 0, frame = 0
 302              		@ frame_needed = 0, uses_anonymous_args = 0
 303 0000 D0ED057A 		vldr.32	s15, [r0, #20]
 304 0004 B4EE670A 		vcmp.f32	s0, s15
 305 0008 F1EE10FA 		vmrs	APSR_nzcv, FPSCR
 306 000c 0CD0     		beq	.L57
 307 000e B5EEC00A 		vcmpe.f32	s0, #0
 308 0012 80ED050A 		vstr.32	s0, [r0, #20]
 309 0016 10B5     		push	{r4, lr}
 310 0018 F1EE10FA 		vmrs	APSR_nzcv, FPSCR
 311 001c 0446     		mov	r4, r0
 312 001e 04DC     		bgt	.L60
 313 0020 4FF07E53 		mov	r3, #1065353216
 314 0024 0362     		str	r3, [r0, #32]	@ float
 315 0026 10BD     		pop	{r4, pc}
 316              	.L57:
 317 0028 7047     		bx	lr
 318              	.L60:
 319 002a D0ED0A7A 		vldr.32	s15, [r0, #40]	@ int
 320 002e BFEE007A 		vmov.f32	s14, #-1.0e+0
 321 0032 F8EEE77A 		vcvt.f32.s32	s15, s15
 322 0036 27EE800A 		vmul.f32	s0, s15, s0
 323 003a 87EE000A 		vdiv.f32	s0, s14, s0
 324 003e FFF7FEFF 		bl	expf
 325 0042 F7EE007A 		vmov.f32	s15, #1.0e+0
 326 0046 37EEC00A 		vsub.f32	s0, s15, s0
 327 004a 84ED080A 		vstr.32	s0, [r4, #32]
 328 004e 10BD     		pop	{r4, pc}
 330              		.section	.text._ZN7daisysp4Adsr14SetReleaseTimeEf,"ax",%progbits
 331              		.align	1
 332              		.p2align 2,,3
 333              		.global	_ZN7daisysp4Adsr14SetReleaseTimeEf
 334              		.syntax unified
 335              		.thumb
 336              		.thumb_func
 337              		.fpu fpv5-d16
 339              	_ZN7daisysp4Adsr14SetReleaseTimeEf:
 340              		@ args = 0, pretend = 0, frame = 0
 341              		@ frame_needed = 0, uses_anonymous_args = 0
 342 0000 D0ED067A 		vldr.32	s15, [r0, #24]
 343 0004 B4EE670A 		vcmp.f32	s0, s15
 344 0008 F1EE10FA 		vmrs	APSR_nzcv, FPSCR
 345 000c 0CD0     		beq	.L68
 346 000e B5EEC00A 		vcmpe.f32	s0, #0
 347 0012 80ED060A 		vstr.32	s0, [r0, #24]
 348 0016 10B5     		push	{r4, lr}
 349 0018 F1EE10FA 		vmrs	APSR_nzcv, FPSCR
 350 001c 0446     		mov	r4, r0
 351 001e 04DC     		bgt	.L71
 352 0020 4FF07E53 		mov	r3, #1065353216
 353 0024 4362     		str	r3, [r0, #36]	@ float
ARM GAS  C:\Users\pedro\AppData\Local\Temp\ccPS94c8.s 			page 7


 354 0026 10BD     		pop	{r4, pc}
 355              	.L68:
 356 0028 7047     		bx	lr
 357              	.L71:
 358 002a D0ED0A7A 		vldr.32	s15, [r0, #40]	@ int
 359 002e BFEE007A 		vmov.f32	s14, #-1.0e+0
 360 0032 F8EEE77A 		vcvt.f32.s32	s15, s15
 361 0036 27EE800A 		vmul.f32	s0, s15, s0
 362 003a 87EE000A 		vdiv.f32	s0, s14, s0
 363 003e FFF7FEFF 		bl	expf
 364 0042 F7EE007A 		vmov.f32	s15, #1.0e+0
 365 0046 37EEC00A 		vsub.f32	s0, s15, s0
 366 004a 84ED090A 		vstr.32	s0, [r4, #36]
 367 004e 10BD     		pop	{r4, pc}
 369              		.section	.text._ZN7daisysp4Adsr15SetTimeConstantEfRfS1_,"ax",%progbits
 370              		.align	1
 371              		.p2align 2,,3
 372              		.global	_ZN7daisysp4Adsr15SetTimeConstantEfRfS1_
 373              		.syntax unified
 374              		.thumb
 375              		.thumb_func
 376              		.fpu fpv5-d16
 378              	_ZN7daisysp4Adsr15SetTimeConstantEfRfS1_:
 379              		@ args = 0, pretend = 0, frame = 0
 380              		@ frame_needed = 0, uses_anonymous_args = 0
 381 0000 D1ED007A 		vldr.32	s15, [r1]
 382 0004 F4EE407A 		vcmp.f32	s15, s0
 383 0008 F1EE10FA 		vmrs	APSR_nzcv, FPSCR
 384 000c 0CD0     		beq	.L79
 385 000e B5EEC00A 		vcmpe.f32	s0, #0
 386 0012 81ED000A 		vstr.32	s0, [r1]
 387 0016 10B5     		push	{r4, lr}
 388 0018 F1EE10FA 		vmrs	APSR_nzcv, FPSCR
 389 001c 1446     		mov	r4, r2
 390 001e 04DC     		bgt	.L82
 391 0020 4FF07E53 		mov	r3, #1065353216
 392 0024 1360     		str	r3, [r2]	@ float
 393 0026 10BD     		pop	{r4, pc}
 394              	.L79:
 395 0028 7047     		bx	lr
 396              	.L82:
 397 002a D0ED0A7A 		vldr.32	s15, [r0, #40]	@ int
 398 002e BFEE007A 		vmov.f32	s14, #-1.0e+0
 399 0032 F8EEE77A 		vcvt.f32.s32	s15, s15
 400 0036 27EE800A 		vmul.f32	s0, s15, s0
 401 003a 87EE000A 		vdiv.f32	s0, s14, s0
 402 003e FFF7FEFF 		bl	expf
 403 0042 F7EE007A 		vmov.f32	s15, #1.0e+0
 404 0046 37EEC00A 		vsub.f32	s0, s15, s0
 405 004a 84ED000A 		vstr.32	s0, [r4]
 406 004e 10BD     		pop	{r4, pc}
 408              		.section	.text._ZN7daisysp4Adsr7ProcessEb,"ax",%progbits
 409              		.align	1
 410              		.p2align 2,,3
 411              		.global	_ZN7daisysp4Adsr7ProcessEb
 412              		.syntax unified
 413              		.thumb
ARM GAS  C:\Users\pedro\AppData\Local\Temp\ccPS94c8.s 			page 8


 414              		.thumb_func
 415              		.fpu fpv5-d16
 417              	_ZN7daisysp4Adsr7ProcessEb:
 418              		@ args = 0, pretend = 0, frame = 0
 419              		@ frame_needed = 0, uses_anonymous_args = 0
 420              		@ link register save eliminated.
 421 0000 90F82D30 		ldrb	r3, [r0, #45]	@ zero_extendqisi2
 422 0004 51BB     		cbnz	r1, .L104
 423 0006 33B1     		cbz	r3, .L89
 424 0008 0423     		movs	r3, #4
 425 000a 8385     		strh	r3, [r0, #44]	@ movhi
 426              	.L90:
 427 000c 90ED097A 		vldr.32	s14, [r0, #36]
 428 0010 DFED257A 		vldr.32	s15, .L106
 429 0014 09E0     		b	.L91
 430              	.L89:
 431 0016 90F82C30 		ldrb	r3, [r0, #44]	@ zero_extendqisi2
 432 001a 80F82D10 		strb	r1, [r0, #45]
 433 001e 022B     		cmp	r3, #2
 434 0020 13D1     		bne	.L105
 435 0022 90ED087A 		vldr.32	s14, [r0, #32]
 436 0026 D0ED007A 		vldr.32	s15, [r0]
 437              	.L91:
 438 002a 90ED010A 		vldr.32	s0, [r0, #4]
 439 002e DFED1F6A 		vldr.32	s13, .L106+4
 440 0032 77EEC07A 		vsub.f32	s15, s15, s0
 441 0036 A7EE870A 		vfma.f32	s0, s15, s14
 442 003a B4EEE60A 		vcmpe.f32	s0, s13
 443 003e F1EE10FA 		vmrs	APSR_nzcv, FPSCR
 444 0042 29D4     		bmi	.L95
 445              	.L103:
 446 0044 80ED010A 		vstr.32	s0, [r0, #4]
 447 0048 7047     		bx	lr
 448              	.L105:
 449 004a 042B     		cmp	r3, #4
 450 004c DED0     		beq	.L90
 451 004e 012B     		cmp	r3, #1
 452 0050 D0ED076A 		vldr.32	s13, [r0, #28]
 453 0054 09D0     		beq	.L88
 454 0056 9FED150A 		vldr.32	s0, .L106+4
 455 005a 7047     		bx	lr
 456              	.L104:
 457 005c 002B     		cmp	r3, #0
 458 005e DAD1     		bne	.L89
 459 0060 40F20113 		movw	r3, #257
 460 0064 D0ED076A 		vldr.32	s13, [r0, #28]
 461 0068 8385     		strh	r3, [r0, #44]	@ movhi
 462              	.L88:
 463 006a 90ED010A 		vldr.32	s0, [r0, #4]
 464 006e B7EE007A 		vmov.f32	s14, #1.0e+0
 465 0072 D0ED037A 		vldr.32	s15, [r0, #12]
 466 0076 77EEC07A 		vsub.f32	s15, s15, s0
 467 007a A7EEA60A 		vfma.f32	s0, s15, s13
 468 007e B4EEC70A 		vcmpe.f32	s0, s14
 469 0082 F1EE10FA 		vmrs	APSR_nzcv, FPSCR
 470 0086 DDDD     		ble	.L103
 471 0088 0223     		movs	r3, #2
ARM GAS  C:\Users\pedro\AppData\Local\Temp\ccPS94c8.s 			page 9


 472 008a B0EE470A 		vmov.f32	s0, s14
 473 008e 80ED017A 		vstr.32	s14, [r0, #4]
 474 0092 80F82C30 		strb	r3, [r0, #44]
 475 0096 7047     		bx	lr
 476              	.L95:
 477 0098 0023     		movs	r3, #0
 478 009a B0EE660A 		vmov.f32	s0, s13
 479 009e C0ED016A 		vstr.32	s13, [r0, #4]
 480 00a2 80F82C30 		strb	r3, [r0, #44]
 481 00a6 7047     		bx	lr
 482              	.L107:
 483              		.align	2
 484              	.L106:
 485 00a8 0AD723BC 		.word	-1138501878
 486 00ac 00000000 		.word	0
 488              		.ident	"GCC: (GNU Arm Embedded Toolchain 10-2020-q4-major) 10.2.1 20201103 (release)"
ARM GAS  C:\Users\pedro\AppData\Local\Temp\ccPS94c8.s 			page 10

