ARM GAS  C:\Users\pedro\AppData\Local\Temp\cc3BKOCe.s 			page 1


   1              		.cpu cortex-m7
   2              		.eabi_attribute 28, 1
   3              		.eabi_attribute 20, 1
   4              		.eabi_attribute 21, 1
   5              		.eabi_attribute 23, 3
   6              		.eabi_attribute 24, 1
   7              		.eabi_attribute 25, 1
   8              		.eabi_attribute 26, 1
   9              		.eabi_attribute 30, 2
  10              		.eabi_attribute 34, 1
  11              		.eabi_attribute 18, 4
  12              		.file	"atone.cpp"
  13              		.text
  14              		.section	.text._ZN7daisysp5ATone4InitEf,"ax",%progbits
  15              		.align	1
  16              		.p2align 2,,3
  17              		.global	_ZN7daisysp5ATone4InitEf
  18              		.arch armv7e-m
  19              		.syntax unified
  20              		.thumb
  21              		.thumb_func
  22              		.fpu fpv5-d16
  24              	_ZN7daisysp5ATone4InitEf:
  25              		@ args = 0, pretend = 0, frame = 0
  26              		@ frame_needed = 0, uses_anonymous_args = 0
  27              		@ link register save eliminated.
  28 0000 4FF07C53 		mov	r3, #1056964608
  29 0004 0021     		movs	r1, #0
  30 0006 034A     		ldr	r2, .L3
  31 0008 4160     		str	r1, [r0, #4]	@ float
  32 000a C260     		str	r2, [r0, #12]	@ float
  33 000c 0361     		str	r3, [r0, #16]	@ float
  34 000e 80ED050A 		vstr.32	s0, [r0, #20]
  35 0012 7047     		bx	lr
  36              	.L4:
  37              		.align	2
  38              	.L3:
  39 0014 00007A44 		.word	1148846080
  41              		.section	.text._ZN7daisysp5ATone7ProcessERf,"ax",%progbits
  42              		.align	1
  43              		.p2align 2,,3
  44              		.global	_ZN7daisysp5ATone7ProcessERf
  45              		.syntax unified
  46              		.thumb
  47              		.thumb_func
  48              		.fpu fpv5-d16
  50              	_ZN7daisysp5ATone7ProcessERf:
  51              		@ args = 0, pretend = 0, frame = 0
  52              		@ frame_needed = 0, uses_anonymous_args = 0
  53              		@ link register save eliminated.
  54 0000 D1ED007A 		vldr.32	s15, [r1]
  55 0004 90ED010A 		vldr.32	s0, [r0, #4]
  56 0008 90ED047A 		vldr.32	s14, [r0, #16]
  57 000c 37EE800A 		vadd.f32	s0, s15, s0
  58 0010 20EE070A 		vmul.f32	s0, s0, s14
  59 0014 70EE677A 		vsub.f32	s15, s0, s15
  60 0018 C0ED017A 		vstr.32	s15, [r0, #4]
ARM GAS  C:\Users\pedro\AppData\Local\Temp\cc3BKOCe.s 			page 2


  61 001c 7047     		bx	lr
  63 001e 00BF     		.section	.text._ZN7daisysp5ATone21CalculateCoefficientsEv,"ax",%progbits
  64              		.align	1
  65              		.p2align 2,,3
  66              		.global	_ZN7daisysp5ATone21CalculateCoefficientsEv
  67              		.syntax unified
  68              		.thumb
  69              		.thumb_func
  70              		.fpu fpv5-d16
  72              	_ZN7daisysp5ATone21CalculateCoefficientsEv:
  73              		@ args = 0, pretend = 0, frame = 0
  74              		@ frame_needed = 0, uses_anonymous_args = 0
  75 0000 9FED157A 		vldr.32	s14, .L13
  76 0004 D0ED037A 		vldr.32	s15, [r0, #12]
  77 0008 90ED050A 		vldr.32	s0, [r0, #20]
  78 000c 67EE877A 		vmul.f32	s15, s15, s14
  79 0010 10B5     		push	{r4, lr}
  80 0012 87EE800A 		vdiv.f32	s0, s15, s0
  81 0016 0446     		mov	r4, r0
  82 0018 2DED028B 		vpush.64	{d8}
  83 001c FFF7FEFF 		bl	cosf
  84 0020 F0EE007A 		vmov.f32	s15, #2.0e+0
  85 0024 BFEE007A 		vmov.f32	s14, #-1.0e+0
  86 0028 37EEC08A 		vsub.f32	s16, s15, s0
  87 002c A8EE087A 		vfma.f32	s14, s16, s16
  88 0030 B5EE407A 		vcmp.f32	s14, #0
  89 0034 F1EE10FA 		vmrs	APSR_nzcv, FPSCR
  90 0038 08D4     		bmi	.L11
  91 003a B1EEC70A 		vsqrt.f32	s0, s14
  92              	.L9:
  93 003e 38EE408A 		vsub.f32	s16, s16, s0
  94 0042 84ED048A 		vstr.32	s16, [r4, #16]
  95 0046 BDEC028B 		vldm	sp!, {d8}
  96 004a 10BD     		pop	{r4, pc}
  97              	.L11:
  98 004c B0EE470A 		vmov.f32	s0, s14
  99 0050 FFF7FEFF 		bl	sqrtf
 100 0054 F3E7     		b	.L9
 101              	.L14:
 102 0056 00BF     		.align	2
 103              	.L13:
 104 0058 DB0FC940 		.word	1086918619
 106              		.ident	"GCC: (GNU Arm Embedded Toolchain 10-2020-q4-major) 10.2.1 20201103 (release)"
ARM GAS  C:\Users\pedro\AppData\Local\Temp\cc3BKOCe.s 			page 3

