ARM GAS  C:\Users\pedro\AppData\Local\Temp\ccsolLeK.s 			page 1


   1              		.cpu cortex-m7
   2              		.eabi_attribute 28, 1
   3              		.eabi_attribute 20, 1
   4              		.eabi_attribute 21, 1
   5              		.eabi_attribute 23, 3
   6              		.eabi_attribute 24, 1
   7              		.eabi_attribute 25, 1
   8              		.eabi_attribute 26, 1
   9              		.eabi_attribute 30, 2
  10              		.eabi_attribute 34, 1
  11              		.eabi_attribute 18, 4
  12              		.file	"autowah.cpp"
  13              		.text
  14              		.section	.text._ZN7daisysp7Autowah4InitEf,"ax",%progbits
  15              		.align	1
  16              		.p2align 2,,3
  17              		.global	_ZN7daisysp7Autowah4InitEf
  18              		.arch armv7e-m
  19              		.syntax unified
  20              		.thumb
  21              		.thumb_func
  22              		.fpu fpv5-d16
  24              	_ZN7daisysp7Autowah4InitEf:
  25              		@ args = 0, pretend = 0, frame = 0
  26              		@ frame_needed = 0, uses_anonymous_args = 0
  27 0000 10B5     		push	{r4, lr}
  28 0002 9FED237A 		vldr.32	s14, .L4
  29 0006 0446     		mov	r4, r0
  30 0008 80ED000A 		vstr.32	s0, [r0]
  31 000c C7EE007A 		vdiv.f32	s15, s14, s0
  32 0010 2DED028B 		vpush.64	{d8}
  33 0014 DFED1F8A 		vldr.32	s17, .L4+4
  34 0018 9FED1F8A 		vldr.32	s16, .L4+8
  35 001c 88EE807A 		vdiv.f32	s14, s17, s0
  36 0020 C0ED017A 		vstr.32	s15, [r0, #4]
  37 0024 38EE470A 		vsub.f32	s0, s16, s14
  38 0028 FFF7FEFF 		bl	expf
  39 002c B2EE047A 		vmov.f32	s14, #1.0e+1
  40 0030 D4ED007A 		vldr.32	s15, [r4]
  41 0034 84ED020A 		vstr.32	s0, [r4, #8]
  42 0038 87EE270A 		vdiv.f32	s0, s14, s15
  43 003c 38EE400A 		vsub.f32	s0, s16, s0
  44 0040 FFF7FEFF 		bl	expf
  45 0044 154B     		ldr	r3, .L4+12
  46 0046 C4ED068A 		vstr.32	s17, [r4, #24]
  47 004a 84ED048A 		vstr.32	s16, [r4, #16]
  48 004e 84ED128A 		vstr.32	s16, [r4, #72]
  49 0052 84ED108A 		vstr.32	s16, [r4, #64]
  50 0056 84ED0E8A 		vstr.32	s16, [r4, #56]
  51 005a 84ED0C8A 		vstr.32	s16, [r4, #48]
  52 005e 84ED0A8A 		vstr.32	s16, [r4, #40]
  53 0062 84ED138A 		vstr.32	s16, [r4, #76]
  54 0066 84ED118A 		vstr.32	s16, [r4, #68]
  55 006a 84ED0F8A 		vstr.32	s16, [r4, #60]
  56 006e 84ED0D8A 		vstr.32	s16, [r4, #52]
  57 0072 84ED0B8A 		vstr.32	s16, [r4, #44]
  58 0076 84ED078A 		vstr.32	s16, [r4, #28]
ARM GAS  C:\Users\pedro\AppData\Local\Temp\ccsolLeK.s 			page 2


  59 007a 84ED088A 		vstr.32	s16, [r4, #32]
  60 007e 84ED098A 		vstr.32	s16, [r4, #36]
  61 0082 84ED030A 		vstr.32	s0, [r4, #12]
  62 0086 6361     		str	r3, [r4, #20]	@ float
  63 0088 BDEC028B 		vldm	sp!, {d8}
  64 008c 10BD     		pop	{r4, pc}
  65              	.L5:
  66 008e 00BF     		.align	2
  67              	.L4:
  68 0090 0AB7B044 		.word	1152431882
  69 0094 0000C842 		.word	1120403456
  70 0098 00000000 		.word	0
  71 009c CDCCCC3D 		.word	1036831949
  73              		.section	.text._ZN7daisysp7Autowah7ProcessEf,"ax",%progbits
  74              		.align	1
  75              		.p2align 2,,3
  76              		.global	_ZN7daisysp7Autowah7ProcessEf
  77              		.syntax unified
  78              		.thumb
  79              		.thumb_func
  80              		.fpu fpv5-d16
  82              	_ZN7daisysp7Autowah7ProcessEf:
  83              		@ args = 0, pretend = 0, frame = 0
  84              		@ frame_needed = 0, uses_anonymous_args = 0
  85 0000 10B5     		push	{r4, lr}
  86 0002 2DED0A8B 		vpush.64	{d8, d9, d10, d11, d12}
  87 0006 B7EE008A 		vmov.f32	s16, #1.0e+0
  88 000a 90ED035A 		vldr.32	s10, [r0, #12]
  89 000e B0EE409A 		vmov.f32	s18, s0
  90 0012 D0ED0F3A 		vldr.32	s7, [r0, #60]
  91 0016 D0ED025A 		vldr.32	s11, [r0, #8]
  92 001a B0EE000A 		vmov.f32	s0, #2.0e+0
  93 001e 38EE457A 		vsub.f32	s14, s16, s10
  94 0022 D0ED0D4A 		vldr.32	s9, [r0, #52]
  95 0026 F0EEC96A 		vabs.f32	s13, s18
  96 002a 90ED066A 		vldr.32	s12, [r0, #24]
  97 002e 78EE657A 		vsub.f32	s15, s16, s11
  98 0032 9FED51AA 		vldr.32	s20, .L8
  99 0036 B0EE484A 		vmov.f32	s8, s16
 100 003a 90ED053A 		vldr.32	s6, [r0, #20]
 101 003e 27EE267A 		vmul.f32	s14, s14, s13
 102 0042 D0ED048A 		vldr.32	s17, [r0, #16]
 103 0046 DFED4D0A 		vldr.32	s1, .L8+4
 104 004a 0446     		mov	r4, r0
 105 004c A6EE4A4A 		vfms.f32	s8, s12, s20
 106 0050 DFED4B9A 		vldr.32	s19, .L8+8
 107 0054 A5EE237A 		vfma.f32	s14, s10, s7
 108 0058 9FED4ABA 		vldr.32	s22, .L8+12
 109 005c 26EE036A 		vmul.f32	s12, s12, s6
 110 0060 78EE688A 		vsub.f32	s17, s16, s17
 111 0064 F0EE40BA 		vmov.f32	s23, s0
 112 0068 26EE0AAA 		vmul.f32	s20, s12, s20
 113 006c 78EE848A 		vadd.f32	s17, s17, s8
 114 0070 86FE877A 		vmaxnm.f32	s14, s13, s14
 115 0074 67EE877A 		vmul.f32	s15, s15, s14
 116 0078 80ED0E7A 		vstr.32	s14, [r0, #56]
 117 007c E5EEA47A 		vfma.f32	s15, s11, s9
ARM GAS  C:\Users\pedro\AppData\Local\Temp\ccsolLeK.s 			page 3


 118 0080 88FE67CA 		vminnm.f32	s24, s16, s15
 119 0084 C0ED0C7A 		vstr.32	s15, [r0, #48]
 120 0088 6CEE200A 		vmul.f32	s1, s24, s1
 121 008c FFF7FEFF 		bl	powf
 122 0090 F0EE40AA 		vmov.f32	s21, s0
 123 0094 D4ED01CA 		vldr.32	s25, [r4, #4]
 124 0098 78EE4C7A 		vsub.f32	s15, s16, s24
 125 009c F0EE480A 		vmov.f32	s1, s16
 126 00a0 6AEEACCA 		vmul.f32	s25, s21, s25
 127 00a4 B0EE6B0A 		vmov.f32	s0, s23
 128 00a8 E7EEAB0A 		vfma.f32	s1, s15, s23
 129 00ac FFF7FEFF 		bl	powf
 130 00b0 8CEE807A 		vdiv.f32	s14, s25, s0
 131 00b4 D4ED017A 		vldr.32	s15, [r4, #4]
 132 00b8 77EEA77A 		vadd.f32	s15, s15, s15
 133 00bc 27EEAA0A 		vmul.f32	s0, s15, s21
 134 00c0 38EE478A 		vsub.f32	s16, s16, s14
 135 00c4 FFF7FEFF 		bl	cosf
 136 00c8 F0EE697A 		vmov.f32	s15, s19
 137 00cc 9FED2E6A 		vldr.32	s12, .L8+16
 138 00d0 D4ED0B5A 		vldr.32	s11, [r4, #44]
 139 00d4 F0EE4C0A 		vmov.f32	s1, s24
 140 00d8 68EE406A 		vnmul.f32	s13, s16, s0
 141 00dc 94ED115A 		vldr.32	s10, [r4, #68]
 142 00e0 28EE067A 		vmul.f32	s14, s16, s12
 143 00e4 D4ED13AA 		vldr.32	s21, [r4, #76]
 144 00e8 B1EE000A 		vmov.f32	s0, #4.0e+0
 145 00ec E6EEAB7A 		vfma.f32	s15, s13, s23
 146 00f0 27EE088A 		vmul.f32	s16, s14, s16
 147 00f4 A5EE0B8A 		vfma.f32	s16, s10, s22
 148 00f8 67EE867A 		vmul.f32	s15, s15, s12
 149 00fc E5EE8B7A 		vfma.f32	s15, s11, s22
 150 0100 84ED108A 		vstr.32	s16, [r4, #64]
 151 0104 C4ED0A7A 		vstr.32	s15, [r4, #40]
 152 0108 FFF7FEFF 		bl	powf
 153 010c 9FED1F7A 		vldr.32	s14, .L8+20
 154 0110 94ED106A 		vldr.32	s12, [r4, #64]
 155 0114 20EE077A 		vmul.f32	s14, s0, s14
 156 0118 D4ED097A 		vldr.32	s15, [r4, #36]
 157 011c D4ED086A 		vldr.32	s13, [r4, #32]
 158 0120 28EE890A 		vmul.f32	s0, s17, s18
 159 0124 66EE277A 		vmul.f32	s15, s12, s15
 160 0128 D4ED0A5A 		vldr.32	s11, [r4, #40]
 161 012c AAEE8B7A 		vfma.f32	s14, s21, s22
 162 0130 C4ED096A 		vstr.32	s13, [r4, #36]
 163 0134 94ED045A 		vldr.32	s10, [r4, #16]
 164 0138 E5EEA67A 		vfma.f32	s15, s11, s13
 165 013c A26B     		ldr	r2, [r4, #56]	@ float
 166 013e 236B     		ldr	r3, [r4, #48]	@ float
 167 0140 E263     		str	r2, [r4, #60]	@ float
 168 0142 6363     		str	r3, [r4, #52]	@ float
 169 0144 29EE479A 		vnmul.f32	s18, s18, s14
 170 0148 C4ED0B5A 		vstr.32	s11, [r4, #44]
 171 014c 84ED116A 		vstr.32	s12, [r4, #68]
 172 0150 84ED127A 		vstr.32	s14, [r4, #72]
 173 0154 E9EE0A7A 		vfma.f32	s15, s18, s20
 174 0158 84ED137A 		vstr.32	s14, [r4, #76]
ARM GAS  C:\Users\pedro\AppData\Local\Temp\ccsolLeK.s 			page 4


 175 015c 79EEE77A 		vsub.f32	s15, s19, s15
 176 0160 BDEC0A8B 		vldm	sp!, {d8-d12}
 177 0164 77EEE66A 		vsub.f32	s13, s15, s13
 178 0168 C4ED077A 		vstr.32	s15, [r4, #28]
 179 016c C4ED087A 		vstr.32	s15, [r4, #32]
 180 0170 A5EE260A 		vfma.f32	s0, s10, s13
 181 0174 10BD     		pop	{r4, pc}
 182              	.L9:
 183 0176 00BF     		.align	2
 184              	.L8:
 185 0178 0AD7233C 		.word	1008981770
 186 017c 33331340 		.word	1075000115
 187 0180 00000000 		.word	0
 188 0184 77BE7F3F 		.word	1065336439
 189 0188 6F12833A 		.word	981668463
 190 018c 17B7D138 		.word	953267991
 192              		.ident	"GCC: (GNU Arm Embedded Toolchain 10-2020-q4-major) 10.2.1 20201103 (release)"
ARM GAS  C:\Users\pedro\AppData\Local\Temp\ccsolLeK.s 			page 5


DEFINED SYMBOLS
                            *ABS*:00000000 autowah.cpp
C:\Users\pedro\AppData\Local\Temp\ccsolLeK.s:15     .text._ZN7daisysp7Autowah4InitEf:00000000 $t
C:\Users\pedro\AppData\Local\Temp\ccsolLeK.s:24     .text._ZN7daisysp7Autowah4InitEf:00000000 _ZN7daisysp7Autowah4InitEf
C:\Users\pedro\AppData\Local\Temp\ccsolLeK.s:68     .text._ZN7daisysp7Autowah4InitEf:00000090 $d
C:\Users\pedro\AppData\Local\Temp\ccsolLeK.s:74     .text._ZN7daisysp7Autowah7ProcessEf:00000000 $t
C:\Users\pedro\AppData\Local\Temp\ccsolLeK.s:82     .text._ZN7daisysp7Autowah7ProcessEf:00000000 _ZN7daisysp7Autowah7ProcessEf
C:\Users\pedro\AppData\Local\Temp\ccsolLeK.s:185    .text._ZN7daisysp7Autowah7ProcessEf:00000178 $d

UNDEFINED SYMBOLS
expf
powf
cosf
