ARM GAS  C:\Users\pedro\AppData\Local\Temp\cckcTXSS.s 			page 1


   1              		.cpu cortex-m7
   2              		.eabi_attribute 28, 1
   3              		.eabi_attribute 20, 1
   4              		.eabi_attribute 21, 1
   5              		.eabi_attribute 23, 3
   6              		.eabi_attribute 24, 1
   7              		.eabi_attribute 25, 1
   8              		.eabi_attribute 26, 1
   9              		.eabi_attribute 30, 2
  10              		.eabi_attribute 34, 1
  11              		.eabi_attribute 18, 4
  12              		.file	"bitcrush.cpp"
  13              		.text
  14              		.section	.text._ZN7daisysp4FoldD2Ev,"axG",%progbits,_ZN7daisysp4FoldD5Ev,comdat
  15              		.align	1
  16              		.p2align 2,,3
  17              		.weak	_ZN7daisysp4FoldD2Ev
  18              		.arch armv7e-m
  19              		.syntax unified
  20              		.thumb
  21              		.thumb_func
  22              		.fpu fpv5-d16
  24              	_ZN7daisysp4FoldD2Ev:
  25              		@ args = 0, pretend = 0, frame = 0
  26              		@ frame_needed = 0, uses_anonymous_args = 0
  27              		@ link register save eliminated.
  28 0000 7047     		bx	lr
  30              		.weak	_ZN7daisysp4FoldD1Ev
  31              		.thumb_set _ZN7daisysp4FoldD1Ev,_ZN7daisysp4FoldD2Ev
  32 0002 00BF     		.section	.text._ZN7daisysp8Bitcrush4InitEf,"ax",%progbits
  33              		.align	1
  34              		.p2align 2,,3
  35              		.global	_ZN7daisysp8Bitcrush4InitEf
  36              		.syntax unified
  37              		.thumb
  38              		.thumb_func
  39              		.fpu fpv5-d16
  41              	_ZN7daisysp8Bitcrush4InitEf:
  42              		@ args = 0, pretend = 0, frame = 0
  43              		@ frame_needed = 0, uses_anonymous_args = 0
  44              		@ link register save eliminated.
  45 0000 0346     		mov	r3, r0
  46 0002 0821     		movs	r1, #8
  47 0004 034A     		ldr	r2, .L4
  48 0006 0448     		ldr	r0, .L4+4
  49 0008 9960     		str	r1, [r3, #8]
  50 000a 5A60     		str	r2, [r3, #4]	@ float
  51 000c 83ED000A 		vstr.32	s0, [r3]
  52 0010 FFF7FEBF 		b	_ZN7daisysp4Fold4InitEv
  53              	.L5:
  54              		.align	2
  55              	.L4:
  56 0014 00401C46 		.word	1176256512
  57 0018 00000000 		.word	.LANCHOR0
  59              		.section	.text._ZN7daisysp8Bitcrush7ProcessEf,"ax",%progbits
  60              		.align	1
  61              		.p2align 2,,3
ARM GAS  C:\Users\pedro\AppData\Local\Temp\cckcTXSS.s 			page 2


  62              		.global	_ZN7daisysp8Bitcrush7ProcessEf
  63              		.syntax unified
  64              		.thumb
  65              		.thumb_func
  66              		.fpu fpv5-d16
  68              	_ZN7daisysp8Bitcrush7ProcessEf:
  69              		@ args = 0, pretend = 0, frame = 0
  70              		@ frame_needed = 0, uses_anonymous_args = 0
  71 0000 D0ED027A 		vldr.32	s15, [r0, #8]	@ int
  72 0004 10B5     		push	{r4, lr}
  73 0006 B8EEE71B 		vcvt.f64.s32	d1, s15
  74 000a 0446     		mov	r4, r0
  75 000c 2DED028B 		vpush.64	{d8}
  76 0010 B0EE408A 		vmov.f32	s16, s0
  77 0014 DFED158A 		vldr.32	s17, .L8
  78 0018 B0EE000B 		vmov.f64	d0, #2.0e+0
  79 001c FFF7FEFF 		bl	pow
  80 0020 F7EEC07B 		vcvt.f32.f64	s15, d0
  81 0024 DFED126A 		vldr.32	s13, .L8+4
  82 0028 94ED005A 		vldr.32	s10, [r4]
  83 002c 86EEA77A 		vdiv.f32	s14, s13, s15
  84 0030 D4ED015A 		vldr.32	s11, [r4, #4]
  85 0034 9FED0F0A 		vldr.32	s0, .L8+8
  86 0038 0F48     		ldr	r0, .L8+12
  87 003a 85EE256A 		vdiv.f32	s12, s10, s11
  88 003e F0EE405A 		vmov.f32	s11, s0
  89 0042 67EEA87A 		vmul.f32	s15, s15, s17
  90 0046 E8EE265A 		vfma.f32	s11, s16, s13
  91 004a 37EE400A 		vsub.f32	s0, s14, s0
  92 004e 67EEA57A 		vmul.f32	s15, s15, s11
  93 0052 80ED006A 		vstr.32	s12, [r0]
  94 0056 FBFE677A 		vrintm.f32	s15, s15
  95 005a 20EE270A 		vmul.f32	s0, s0, s15
  96 005e FFF7FEFF 		bl	_ZN7daisysp4Fold7ProcessEf
  97 0062 20EE280A 		vmul.f32	s0, s0, s17
  98 0066 BDEC028B 		vldm	sp!, {d8}
  99 006a 10BD     		pop	{r4, pc}
 100              	.L9:
 101              		.align	2
 102              	.L8:
 103 006c 00008037 		.word	931135488
 104 0070 00008047 		.word	1199570944
 105 0074 00000047 		.word	1191182336
 106 0078 00000000 		.word	.LANCHOR0
 108              		.section	.text.startup._GLOBAL__sub_I__ZN7daisysp8Bitcrush4InitEf,"ax",%progbits
 109              		.align	1
 110              		.p2align 2,,3
 111              		.syntax unified
 112              		.thumb
 113              		.thumb_func
 114              		.fpu fpv5-d16
 116              	_GLOBAL__sub_I__ZN7daisysp8Bitcrush4InitEf:
 117              		@ args = 0, pretend = 0, frame = 0
 118              		@ frame_needed = 0, uses_anonymous_args = 0
 119              		@ link register save eliminated.
 120 0000 024A     		ldr	r2, .L11
 121 0002 0349     		ldr	r1, .L11+4
ARM GAS  C:\Users\pedro\AppData\Local\Temp\cckcTXSS.s 			page 3


 122 0004 0348     		ldr	r0, .L11+8
 123 0006 FFF7FEBF 		b	__aeabi_atexit
 124              	.L12:
 125 000a 00BF     		.align	2
 126              	.L11:
 127 000c 00000000 		.word	__dso_handle
 128 0010 00000000 		.word	_ZN7daisysp4FoldD1Ev
 129 0014 00000000 		.word	.LANCHOR0
 131              		.section	.init_array,"aw",%init_array
 132              		.align	2
 133 0000 00000000 		.word	_GLOBAL__sub_I__ZN7daisysp8Bitcrush4InitEf(target1)
 134              		.section	.bss._ZL4fold,"aw",%nobits
 135              		.align	2
 136              		.set	.LANCHOR0,. + 0
 139              	_ZL4fold:
 140 0000 00000000 		.space	16
 140      00000000 
 140      00000000 
 140      00000000 
 141              		.hidden	__dso_handle
 142              		.ident	"GCC: (GNU Arm Embedded Toolchain 10-2020-q4-major) 10.2.1 20201103 (release)"
ARM GAS  C:\Users\pedro\AppData\Local\Temp\cckcTXSS.s 			page 4

