ARM GAS  C:\Users\pedro\AppData\Local\Temp\ccaSfBUu.s 			page 1


   1              		.cpu cortex-m7
   2              		.eabi_attribute 28, 1
   3              		.eabi_attribute 20, 1
   4              		.eabi_attribute 21, 1
   5              		.eabi_attribute 23, 3
   6              		.eabi_attribute 24, 1
   7              		.eabi_attribute 25, 1
   8              		.eabi_attribute 26, 1
   9              		.eabi_attribute 30, 2
  10              		.eabi_attribute 34, 1
  11              		.eabi_attribute 18, 4
  12              		.file	"blosc.cpp"
  13              		.text
  14              		.section	.text._ZN7daisysp5BlOsc4InitEf,"ax",%progbits
  15              		.align	1
  16              		.p2align 2,,3
  17              		.global	_ZN7daisysp5BlOsc4InitEf
  18              		.arch armv7e-m
  19              		.syntax unified
  20              		.thumb
  21              		.thumb_func
  22              		.fpu fpv5-d16
  24              	_ZN7daisysp5BlOsc4InitEf:
  25              		@ args = 0, pretend = 0, frame = 0
  26              		@ frame_needed = 0, uses_anonymous_args = 0
  27              		@ link register save eliminated.
  28 0000 B7EE006A 		vmov.f32	s12, #1.0e+0
  29 0004 00F58043 		add	r3, r0, #16384
  30 0008 F0EE006A 		vmov.f32	s13, #2.0e+0
  31 000c 4FF0000C 		mov	ip, #0
  32 0010 B1EE005A 		vmov.f32	s10, #4.0e+0
  33 0014 0021     		movs	r1, #0
  34 0016 C6EE005A 		vdiv.f32	s11, s12, s0
  35 001a 1B4A     		ldr	r2, .L3
  36 001c 83ED0B0A 		vstr.32	s0, [r3, #44]
  37 0020 2030     		adds	r0, r0, #32
  38 0022 1A62     		str	r2, [r3, #32]	@ float
  39 0024 4FF48042 		mov	r2, #16384
  40 0028 9964     		str	r1, [r3, #72]
  41 002a 83F84410 		strb	r1, [r3, #68]
  42 002e 86EE806A 		vdiv.f32	s12, s13, s0
  43 0032 C5EE006A 		vdiv.f32	s13, s10, s0
  44 0036 F6EE007A 		vmov.f32	s15, #5.0e-1
  45 003a B5EE007A 		vmov.f32	s14, #2.5e-1
  46 003e C3ED0E5A 		vstr.32	s11, [r3, #56]
  47 0042 20EE275A 		vmul.f32	s10, s0, s15
  48 0046 C3ED097A 		vstr.32	s15, [r3, #36]
  49 004a 20EE077A 		vmul.f32	s14, s0, s14
  50 004e C3ED0A7A 		vstr.32	s15, [r3, #40]
  51 0052 83ED0C5A 		vstr.32	s10, [r3, #48]
  52 0056 83ED0D7A 		vstr.32	s14, [r3, #52]
  53 005a 83ED0F6A 		vstr.32	s12, [r3, #60]
  54 005e C3ED106A 		vstr.32	s13, [r3, #64]
  55 0062 40F808CC 		str	ip, [r0, #-8]	@ float
  56 0066 40F810CC 		str	ip, [r0, #-16]	@ float
  57 006a 40F818CC 		str	ip, [r0, #-24]	@ float
  58 006e 40F820CC 		str	ip, [r0, #-32]	@ float
ARM GAS  C:\Users\pedro\AppData\Local\Temp\ccaSfBUu.s 			page 2


  59 0072 40F804CC 		str	ip, [r0, #-4]	@ float
  60 0076 40F80CCC 		str	ip, [r0, #-12]	@ float
  61 007a 40F814CC 		str	ip, [r0, #-20]	@ float
  62 007e 40F81CCC 		str	ip, [r0, #-28]	@ float
  63 0082 FFF7FEBF 		b	memset
  64              	.L4:
  65 0086 00BF     		.align	2
  66              	.L3:
  67 0088 0000DC43 		.word	1138491392
  69              		.section	.text._ZN7daisysp5BlOsc13ProcessSquareEv,"ax",%progbits
  70              		.align	1
  71              		.p2align 2,,3
  72              		.global	_ZN7daisysp5BlOsc13ProcessSquareEv
  73              		.syntax unified
  74              		.thumb
  75              		.thumb_func
  76              		.fpu fpv5-d16
  78              	_ZN7daisysp5BlOsc13ProcessSquareEv:
  79              		@ args = 0, pretend = 0, frame = 0
  80              		@ frame_needed = 0, uses_anonymous_args = 0
  81 0000 F8B5     		push	{r3, r4, r5, r6, r7, lr}
  82 0002 00F58046 		add	r6, r0, #16384
  83 0006 90ED010A 		vldr.32	s0, [r0, #4]
  84 000a F7EE000A 		vmov.f32	s1, #1.0e+0
  85 000e 0446     		mov	r4, r0
  86 0010 D6ED086A 		vldr.32	s13, [r6, #32]
  87 0014 96ED0A5A 		vldr.32	s10, [r6, #40]
  88 0018 D6ED0B5A 		vldr.32	s11, [r6, #44]
  89 001c 85EE266A 		vdiv.f32	s12, s10, s13
  90 0020 D6ED0E4A 		vldr.32	s9, [r6, #56]
  91 0024 96ED0D5A 		vldr.32	s10, [r6, #52]
  92 0028 A6EEA40A 		vfma.f32	s0, s13, s9
  93 002c 2DED048B 		vpush.64	{d8, d9}
  94 0030 9FED337B 		vldr.64	d7, .L7
  95 0034 85EE269A 		vdiv.f32	s18, s10, s13
  96 0038 26EE256A 		vmul.f32	s12, s12, s11
  97 003c B7EEC66A 		vcvt.f64.f32	d6, s12
  98 0040 87FE467B 		vminnm.f64	d7, d7, d6
  99 0044 B7EEC77B 		vcvt.f32.f64	s14, d7
 100 0048 FDEEC77A 		vcvt.s32.f32	s15, s14
 101 004c 17EE905A 		vmov	r5, s15	@ int
 102 0050 B8EEE78A 		vcvt.f32.s32	s16, s15
 103 0054 6F1C     		adds	r7, r5, #1
 104 0056 37EE488A 		vsub.f32	s16, s14, s16
 105 005a 07EE907A 		vmov	s15, r7	@ int
 106 005e F8EEE78A 		vcvt.f32.s32	s17, s15
 107 0062 78EEC78A 		vsub.f32	s17, s17, s14
 108 0066 FFF7FEFF 		bl	fmodf
 109 006a B0EE003B 		vmov.f64	d3, #2.0e+0
 110 006e D4ED076A 		vldr.32	s13, [r4, #28]
 111 0072 B7EEC02A 		vcvt.f64.f32	d2, s0
 112 0076 B36C     		ldr	r3, [r6, #72]
 113 0078 BFEE007B 		vmov.f64	d7, #-1.0e+0
 114 007c 96ED094A 		vldr.32	s8, [r6, #36]
 115 0080 DF1B     		subs	r7, r3, r7
 116 0082 C3F30B02 		ubfx	r2, r3, #0, #12
 117 0086 5D1B     		subs	r5, r3, r5
ARM GAS  C:\Users\pedro\AppData\Local\Temp\ccaSfBUu.s 			page 3


 118 0088 84ED000A 		vstr.32	s0, [r4]
 119 008c A2EE037B 		vfma.f64	d7, d2, d3
 120 0090 C7F30B07 		ubfx	r7, r7, #0, #12
 121 0094 04EB8202 		add	r2, r4, r2, lsl #2
 122 0098 C5F30B05 		ubfx	r5, r5, #0, #12
 123 009c 04EB8707 		add	r7, r4, r7, lsl #2
 124 00a0 0133     		adds	r3, r3, #1
 125 00a2 04EB8505 		add	r5, r4, r5, lsl #2
 126 00a6 B7EEC44A 		vcvt.f64.f32	d4, s8
 127 00aa 9FED175B 		vldr.64	d5, .L7+8
 128 00ae B7EEC77B 		vcvt.f32.f64	s14, d7
 129 00b2 27EE077A 		vmul.f32	s14, s14, s14
 130 00b6 77EE667A 		vsub.f32	s15, s14, s13
 131 00ba 84ED067A 		vstr.32	s14, [r4, #24]
 132 00be 67EE897A 		vmul.f32	s15, s15, s18
 133 00c2 C2ED087A 		vstr.32	s15, [r2, #32]
 134 00c6 97ED086A 		vldr.32	s12, [r7, #32]
 135 00ca D5ED086A 		vldr.32	s13, [r5, #32]
 136 00ce 84ED010A 		vstr.32	s0, [r4, #4]
 137 00d2 28EE060A 		vmul.f32	s0, s16, s12
 138 00d6 84ED077A 		vstr.32	s14, [r4, #28]
 139 00da B364     		str	r3, [r6, #72]
 140 00dc A6EEA80A 		vfma.f32	s0, s13, s17
 141 00e0 BDEC048B 		vldm	sp!, {d8-d9}
 142 00e4 30EE670A 		vsub.f32	s0, s0, s15
 143 00e8 B7EEC00A 		vcvt.f64.f32	d0, s0
 144 00ec 35EE400B 		vsub.f64	d0, d5, d0
 145 00f0 20EE040B 		vmul.f64	d0, d0, d4
 146 00f4 B7EEC00B 		vcvt.f32.f64	s0, d0
 147 00f8 F8BD     		pop	{r3, r4, r5, r6, r7, pc}
 148              	.L8:
 149 00fa 00BFAFF3 		.align	3
 149      0080
 150              	.L7:
 151 0100 00000000 		.word	0
 152 0104 00FC9F40 		.word	1084226560
 153 0108 00000000 		.word	0
 154 010c 00000000 		.word	0
 156              		.section	.text._ZN7daisysp5BlOsc15ProcessTriangleEv,"ax",%progbits
 157              		.align	1
 158              		.p2align 2,,3
 159              		.global	_ZN7daisysp5BlOsc15ProcessTriangleEv
 160              		.syntax unified
 161              		.thumb
 162              		.thumb_func
 163              		.fpu fpv5-d16
 165              	_ZN7daisysp5BlOsc15ProcessTriangleEv:
 166              		@ args = 0, pretend = 0, frame = 0
 167              		@ frame_needed = 0, uses_anonymous_args = 0
 168 0000 F8B5     		push	{r3, r4, r5, r6, r7, lr}
 169 0002 00F58046 		add	r6, r0, #16384
 170 0006 90ED030A 		vldr.32	s0, [r0, #12]
 171 000a F7EE000A 		vmov.f32	s1, #1.0e+0
 172 000e 0446     		mov	r4, r0
 173 0010 96ED087A 		vldr.32	s14, [r6, #32]
 174 0014 D6ED0C7A 		vldr.32	s15, [r6, #48]
 175 0018 D6ED0E5A 		vldr.32	s11, [r6, #56]
ARM GAS  C:\Users\pedro\AppData\Local\Temp\ccaSfBUu.s 			page 4


 176 001c C7EE876A 		vdiv.f32	s13, s15, s14
 177 0020 D6ED107A 		vldr.32	s15, [r6, #64]
 178 0024 96ED0D6A 		vldr.32	s12, [r6, #52]
 179 0028 A7EE250A 		vfma.f32	s0, s14, s11
 180 002c 2DED048B 		vpush.64	{d8, d9}
 181 0030 D6ED098A 		vldr.32	s17, [r6, #36]
 182 0034 C6EE079A 		vdiv.f32	s19, s12, s14
 183 0038 67EE288A 		vmul.f32	s17, s14, s17
 184 003c 68EEA78A 		vmul.f32	s17, s17, s15
 185 0040 FDEEE67A 		vcvt.s32.f32	s15, s13
 186 0044 17EE905A 		vmov	r5, s15	@ int
 187 0048 B8EEE78A 		vcvt.f32.s32	s16, s15
 188 004c 6F1C     		adds	r7, r5, #1
 189 004e 36EEC88A 		vsub.f32	s16, s13, s16
 190 0052 07EE907A 		vmov	s15, r7	@ int
 191 0056 B8EEE79A 		vcvt.f32.s32	s18, s15
 192 005a 39EE669A 		vsub.f32	s18, s18, s13
 193 005e FFF7FEFF 		bl	fmodf
 194 0062 B0EE006B 		vmov.f64	d6, #2.0e+0
 195 0066 D4ED075A 		vldr.32	s11, [r4, #28]
 196 006a B7EEC02A 		vcvt.f64.f32	d2, s0
 197 006e B36C     		ldr	r3, [r6, #72]
 198 0070 BFEE007B 		vmov.f64	d7, #-1.0e+0
 199 0074 94ED013A 		vldr.32	s6, [r4, #4]
 200 0078 DF1B     		subs	r7, r3, r7
 201 007a C3F30B02 		ubfx	r2, r3, #0, #12
 202 007e 5D1B     		subs	r5, r3, r5
 203 0080 B7EEC33A 		vcvt.f64.f32	d3, s6
 204 0084 A2EE067B 		vfma.f64	d7, d2, d6
 205 0088 C7F30B07 		ubfx	r7, r7, #0, #12
 206 008c 04EB8202 		add	r2, r4, r2, lsl #2
 207 0090 C5F30B05 		ubfx	r5, r5, #0, #12
 208 0094 04EB8707 		add	r7, r4, r7, lsl #2
 209 0098 84ED020A 		vstr.32	s0, [r4, #8]
 210 009c 04EB8505 		add	r5, r4, r5, lsl #2
 211 00a0 0133     		adds	r3, r3, #1
 212 00a2 9FED194B 		vldr.64	d4, .L11
 213 00a6 9FED1A6B 		vldr.64	d6, .L11+8
 214 00aa B7EEC77B 		vcvt.f32.f64	s14, d7
 215 00ae 27EE077A 		vmul.f32	s14, s14, s14
 216 00b2 77EE657A 		vsub.f32	s15, s14, s11
 217 00b6 84ED067A 		vstr.32	s14, [r4, #24]
 218 00ba 67EEA97A 		vmul.f32	s15, s15, s19
 219 00be B7EEE75A 		vcvt.f64.f32	d5, s15
 220 00c2 C2ED087A 		vstr.32	s15, [r2, #32]
 221 00c6 D5ED087A 		vldr.32	s15, [r5, #32]
 222 00ca A3EE045B 		vfma.f64	d5, d3, d4
 223 00ce D7ED084A 		vldr.32	s9, [r7, #32]
 224 00d2 84ED030A 		vstr.32	s0, [r4, #12]
 225 00d6 84ED077A 		vstr.32	s14, [r4, #28]
 226 00da 28EE240A 		vmul.f32	s0, s16, s9
 227 00de A7EE890A 		vfma.f32	s0, s15, s18
 228 00e2 B7EEC00A 		vcvt.f64.f32	d0, s0
 229 00e6 30EE450B 		vsub.f64	d0, d0, d5
 230 00ea 36EE400B 		vsub.f64	d0, d6, d0
 231 00ee B7EEC00B 		vcvt.f32.f64	s0, d0
 232 00f2 84ED000A 		vstr.32	s0, [r4]
ARM GAS  C:\Users\pedro\AppData\Local\Temp\ccaSfBUu.s 			page 5


 233 00f6 84ED010A 		vstr.32	s0, [r4, #4]
 234 00fa 20EE280A 		vmul.f32	s0, s0, s17
 235 00fe B364     		str	r3, [r6, #72]
 236 0100 BDEC048B 		vldm	sp!, {d8-d9}
 237 0104 F8BD     		pop	{r3, r4, r5, r6, r7, pc}
 238              	.L12:
 239 0106 00BF     		.align	3
 240              	.L11:
 241 0108 2B8716D9 		.word	-652835029
 242 010c CEF7EF3F 		.word	1072691150
 243 0110 00000000 		.word	0
 244 0114 00000000 		.word	0
 246              		.section	.text._ZN7daisysp5BlOsc10ProcessSawEv,"ax",%progbits
 247              		.align	1
 248              		.p2align 2,,3
 249              		.global	_ZN7daisysp5BlOsc10ProcessSawEv
 250              		.syntax unified
 251              		.thumb
 252              		.thumb_func
 253              		.fpu fpv5-d16
 255              	_ZN7daisysp5BlOsc10ProcessSawEv:
 256              		@ args = 0, pretend = 0, frame = 0
 257              		@ frame_needed = 0, uses_anonymous_args = 0
 258 0000 00F58043 		add	r3, r0, #16384
 259 0004 90ED016A 		vldr.32	s12, [r0, #4]
 260 0008 B7EE000B 		vmov.f64	d0, #1.0e+0
 261 000c D3ED087A 		vldr.32	s15, [r3, #32]
 262 0010 B7EEC66A 		vcvt.f64.f32	d6, s12
 263 0014 93ED0B7A 		vldr.32	s14, [r3, #44]
 264 0018 D3ED095A 		vldr.32	s11, [r3, #36]
 265 001c 87EE271A 		vdiv.f32	s2, s14, s15
 266 0020 36EE000B 		vadd.f64	d0, d6, d0
 267 0024 10B5     		push	{r4, lr}
 268 0026 2DED028B 		vpush.64	{d8}
 269 002a C5EEA78A 		vdiv.f32	s17, s11, s15
 270 002e 93ED0F8A 		vldr.32	s16, [r3, #60]
 271 0032 0446     		mov	r4, r0
 272 0034 27EE888A 		vmul.f32	s16, s15, s16
 273 0038 B7EEC11A 		vcvt.f64.f32	d1, s2
 274 003c 68EE878A 		vmul.f32	s17, s17, s14
 275 0040 FFF7FEFF 		bl	fmod
 276 0044 FFEE007A 		vmov.f32	s15, #-1.0e+0
 277 0048 D4ED076A 		vldr.32	s13, [r4, #28]
 278 004c B7EEC07B 		vcvt.f32.f64	s14, d0
 279 0050 94ED050A 		vldr.32	s0, [r4, #20]
 280 0054 4FF07A53 		mov	r3, #1048576000
 281 0058 E7EE087A 		vfma.f32	s15, s14, s16
 282 005c 84ED007A 		vstr.32	s14, [r4]
 283 0060 A361     		str	r3, [r4, #24]	@ float
 284 0062 84ED017A 		vstr.32	s14, [r4, #4]
 285 0066 E361     		str	r3, [r4, #28]	@ float
 286 0068 67EEA77A 		vmul.f32	s15, s15, s15
 287 006c 37EEC00A 		vsub.f32	s0, s15, s0
 288 0070 C4ED047A 		vstr.32	s15, [r4, #16]
 289 0074 C4ED057A 		vstr.32	s15, [r4, #20]
 290 0078 20EE260A 		vmul.f32	s0, s0, s13
 291 007c 20EE280A 		vmul.f32	s0, s0, s17
ARM GAS  C:\Users\pedro\AppData\Local\Temp\ccaSfBUu.s 			page 6


 292 0080 BDEC028B 		vldm	sp!, {d8}
 293 0084 10BD     		pop	{r4, pc}
 295 0086 00BF     		.section	.text._ZN7daisysp5BlOsc5ResetEv,"ax",%progbits
 296              		.align	1
 297              		.p2align 2,,3
 298              		.global	_ZN7daisysp5BlOsc5ResetEv
 299              		.syntax unified
 300              		.thumb
 301              		.thumb_func
 302              		.fpu fpv5-d16
 304              	_ZN7daisysp5BlOsc5ResetEv:
 305              		@ args = 0, pretend = 0, frame = 0
 306              		@ frame_needed = 0, uses_anonymous_args = 0
 307              		@ link register save eliminated.
 308 0000 4FF48042 		mov	r2, #16384
 309 0004 0346     		mov	r3, r0
 310 0006 4FF0000C 		mov	ip, #0
 311 000a 0021     		movs	r1, #0
 312 000c 1044     		add	r0, r0, r2
 313 000e 8164     		str	r1, [r0, #72]
 314 0010 03F12000 		add	r0, r3, #32
 315 0014 C3F818C0 		str	ip, [r3, #24]	@ float
 316 0018 C3F810C0 		str	ip, [r3, #16]	@ float
 317 001c C3F808C0 		str	ip, [r3, #8]	@ float
 318 0020 C3F800C0 		str	ip, [r3]	@ float
 319 0024 C3F81CC0 		str	ip, [r3, #28]	@ float
 320 0028 C3F814C0 		str	ip, [r3, #20]	@ float
 321 002c C3F80CC0 		str	ip, [r3, #12]	@ float
 322 0030 C3F804C0 		str	ip, [r3, #4]	@ float
 323 0034 FFF7FEBF 		b	memset
 325              		.section	.text._ZN7daisysp5BlOsc7ProcessEv,"ax",%progbits
 326              		.align	1
 327              		.p2align 2,,3
 328              		.global	_ZN7daisysp5BlOsc7ProcessEv
 329              		.syntax unified
 330              		.thumb
 331              		.thumb_func
 332              		.fpu fpv5-d16
 334              	_ZN7daisysp5BlOsc7ProcessEv:
 335              		@ args = 0, pretend = 0, frame = 0
 336              		@ frame_needed = 0, uses_anonymous_args = 0
 337 0000 00F58042 		add	r2, r0, #16384
 338 0004 92F84430 		ldrb	r3, [r2, #68]	@ zero_extendqisi2
 339 0008 012B     		cmp	r3, #1
 340 000a 06D0     		beq	.L17
 341 000c 022B     		cmp	r3, #2
 342 000e 47D0     		beq	.L18
 343 0010 002B     		cmp	r3, #0
 344 0012 43D0     		beq	.L24
 345 0014 9FED230A 		vldr.32	s0, .L25
 346 0018 7047     		bx	lr
 347              	.L17:
 348 001a D2ED087A 		vldr.32	s15, [r2, #32]
 349 001e B7EE000B 		vmov.f64	d0, #1.0e+0
 350 0022 92ED0B7A 		vldr.32	s14, [r2, #44]
 351 0026 D2ED096A 		vldr.32	s13, [r2, #36]
 352 002a 87EE271A 		vdiv.f32	s2, s14, s15
ARM GAS  C:\Users\pedro\AppData\Local\Temp\ccaSfBUu.s 			page 7


 353 002e 90ED016A 		vldr.32	s12, [r0, #4]
 354 0032 10B5     		push	{r4, lr}
 355 0034 2DED028B 		vpush.64	{d8}
 356 0038 C6EEA78A 		vdiv.f32	s17, s13, s15
 357 003c 92ED0F8A 		vldr.32	s16, [r2, #60]
 358 0040 0446     		mov	r4, r0
 359 0042 B7EEC66A 		vcvt.f64.f32	d6, s12
 360 0046 27EE888A 		vmul.f32	s16, s15, s16
 361 004a B7EEC11A 		vcvt.f64.f32	d1, s2
 362 004e 36EE000B 		vadd.f64	d0, d6, d0
 363 0052 68EE878A 		vmul.f32	s17, s17, s14
 364 0056 FFF7FEFF 		bl	fmod
 365 005a FFEE007A 		vmov.f32	s15, #-1.0e+0
 366 005e D4ED076A 		vldr.32	s13, [r4, #28]
 367 0062 B7EEC07B 		vcvt.f32.f64	s14, d0
 368 0066 94ED050A 		vldr.32	s0, [r4, #20]
 369 006a 4FF07A53 		mov	r3, #1048576000
 370 006e E8EE077A 		vfma.f32	s15, s16, s14
 371 0072 84ED007A 		vstr.32	s14, [r4]
 372 0076 A361     		str	r3, [r4, #24]	@ float
 373 0078 84ED017A 		vstr.32	s14, [r4, #4]
 374 007c E361     		str	r3, [r4, #28]	@ float
 375 007e 67EEA77A 		vmul.f32	s15, s15, s15
 376 0082 37EEC00A 		vsub.f32	s0, s15, s0
 377 0086 C4ED047A 		vstr.32	s15, [r4, #16]
 378 008a C4ED057A 		vstr.32	s15, [r4, #20]
 379 008e 20EE260A 		vmul.f32	s0, s0, s13
 380 0092 20EE280A 		vmul.f32	s0, s0, s17
 381 0096 BDEC028B 		vldm	sp!, {d8}
 382 009a 10BD     		pop	{r4, pc}
 383              	.L24:
 384 009c FFF7FEBF 		b	_ZN7daisysp5BlOsc15ProcessTriangleEv
 385              	.L18:
 386 00a0 FFF7FEBF 		b	_ZN7daisysp5BlOsc13ProcessSquareEv
 387              	.L26:
 388              		.align	2
 389              	.L25:
 390 00a4 00000000 		.word	0
 392              		.ident	"GCC: (GNU Arm Embedded Toolchain 10-2020-q4-major) 10.2.1 20201103 (release)"
ARM GAS  C:\Users\pedro\AppData\Local\Temp\ccaSfBUu.s 			page 8

