ARM GAS  C:\Users\pedro\AppData\Local\Temp\cc8r8zr2.s 			page 1


   1              		.cpu cortex-m7
   2              		.eabi_attribute 28, 1
   3              		.eabi_attribute 20, 1
   4              		.eabi_attribute 21, 1
   5              		.eabi_attribute 23, 3
   6              		.eabi_attribute 24, 1
   7              		.eabi_attribute 25, 1
   8              		.eabi_attribute 26, 1
   9              		.eabi_attribute 30, 2
  10              		.eabi_attribute 34, 1
  11              		.eabi_attribute 18, 4
  12              		.file	"chorus.cpp"
  13              		.text
  14              		.section	.text._ZN7daisysp12ChorusEngine4InitEf,"ax",%progbits
  15              		.align	1
  16              		.p2align 2,,3
  17              		.global	_ZN7daisysp12ChorusEngine4InitEf
  18              		.arch armv7e-m
  19              		.syntax unified
  20              		.thumb
  21              		.thumb_func
  22              		.fpu fpv5-d16
  24              	_ZN7daisysp12ChorusEngine4InitEf:
  25              		@ args = 0, pretend = 0, frame = 0
  26              		@ frame_needed = 0, uses_anonymous_args = 0
  27 0000 10B5     		push	{r4, lr}
  28 0002 0446     		mov	r4, r0
  29 0004 4FF41652 		mov	r2, #9600
  30 0008 0021     		movs	r1, #0
  31 000a 2430     		adds	r0, r0, #36
  32 000c 2DED028B 		vpush.64	{d8}
  33 0010 B0EE408A 		vmov.f32	s16, s0
  34 0014 84ED000A 		vstr.32	s0, [r4]
  35 0018 FFF7FEFF 		bl	memset
  36 001c 9FED1E6A 		vldr.32	s12, .L7
  37 0020 DFED1E6A 		vldr.32	s13, .L7+4
  38 0024 0020     		movs	r0, #0
  39 0026 DFED1E7A 		vldr.32	s15, .L7+8
  40 002a 0121     		movs	r1, #1
  41              		.syntax unified
  42              	@ 36 "Source/Utility/dsp.h" 1
  43 002c C7FEA67A 		vmaxnm.f32 s15, s15, s13
  44              	@ 0 "" 2
  45              		.thumb
  46              		.syntax unified
  47 0030 C6EE086A 		vdiv.f32	s13, s12, s16
  48 0034 9FED1B7A 		vldr.32	s14, .L7+12
  49 0038 9FED1B6A 		vldr.32	s12, .L7+16
  50 003c 0023     		movs	r3, #0
  51 003e 9FED1B5A 		vldr.32	s10, .L7+20
  52 0042 1B4A     		ldr	r2, .L7+24
  53 0044 6360     		str	r3, [r4, #4]	@ float
  54 0046 67EE877A 		vmul.f32	s15, s15, s14
  55 004a 94ED027A 		vldr.32	s14, [r4, #8]
  56 004e FDEE005A 		vmov.f32	s11, #-2.5e-1
  57 0052 2261     		str	r2, [r4, #16]	@ float
  58 0054 B5EEC07A 		vcmpe.f32	s14, #0
ARM GAS  C:\Users\pedro\AppData\Local\Temp\cc8r8zr2.s 			page 2


  59 0058 9FED167A 		vldr.32	s14, .L7+28
  60 005c 67EE887A 		vmul.f32	s15, s15, s16
  61              		.syntax unified
  62              	@ 36 "Source/Utility/dsp.h" 1
  63 0060 87FE057A 		vmaxnm.f32 s14, s14, s10
  64              	@ 0 "" 2
  65              		.thumb
  66              		.syntax unified
  67 0064 F1EE10FA 		vmrs	APSR_nzcv, FPSCR
  68              		.syntax unified
  69              	@ 47 "Source/Utility/dsp.h" 1
  70 0068 87FE467A 		vminnm.f32 s14, s14, s12
  71              	@ 0 "" 2
  72              		.thumb
  73              		.syntax unified
  74 006c C4ED057A 		vstr.32	s15, [r4, #20]
  75 0070 67EE277A 		vmul.f32	s15, s14, s15
  76 0074 B5EE006A 		vmov.f32	s12, #2.5e-1
  77 0078 BDEC028B 		vldm	sp!, {d8}
  78 007c 48BF     		it	mi
  79 007e F1EE666A 		vnegmi.f32	s13, s13
  80 0082 C4ED037A 		vstr.32	s15, [r4, #12]
  81              		.syntax unified
  82              	@ 36 "Source/Utility/dsp.h" 1
  83 0086 86FEA57A 		vmaxnm.f32 s14, s13, s11
  84              	@ 0 "" 2
  85              		.thumb
  86              		.syntax unified
  87 008a C4E90701 		strd	r0, r1, [r4, #28]
  88              		.syntax unified
  89              	@ 47 "Source/Utility/dsp.h" 1
  90 008e 87FE467A 		vminnm.f32 s14, s14, s12
  91              	@ 0 "" 2
  92              		.thumb
  93              		.syntax unified
  94 0092 84ED027A 		vstr.32	s14, [r4, #8]
  95 0096 10BD     		pop	{r4, pc}
  96              	.L8:
  97              		.align	2
  98              	.L7:
  99 0098 9A99993F 		.word	1067030938
 100 009c CDCCC040 		.word	1086377165
 101 00a0 CDCCCC3D 		.word	1036831949
 102 00a4 6F12833A 		.word	981668463
 103 00a8 7B146E3F 		.word	1064178811
 104 00ac 00000000 		.word	0
 105 00b0 CDCC4C3E 		.word	1045220557
 106 00b4 6666663F 		.word	1063675494
 108              		.section	.text._ZN7daisysp12ChorusEngine7ProcessEf,"ax",%progbits
 109              		.align	1
 110              		.p2align 2,,3
 111              		.global	_ZN7daisysp12ChorusEngine7ProcessEf
 112              		.syntax unified
 113              		.thumb
 114              		.thumb_func
 115              		.fpu fpv5-d16
 117              	_ZN7daisysp12ChorusEngine7ProcessEf:
ARM GAS  C:\Users\pedro\AppData\Local\Temp\cc8r8zr2.s 			page 3


 118              		@ args = 0, pretend = 0, frame = 0
 119              		@ frame_needed = 0, uses_anonymous_args = 0
 120 0000 90ED027A 		vldr.32	s14, [r0, #8]
 121 0004 F7EE006A 		vmov.f32	s13, #1.0e+0
 122 0008 D0ED017A 		vldr.32	s15, [r0, #4]
 123 000c 77EE277A 		vadd.f32	s15, s14, s15
 124 0010 70B5     		push	{r4, r5, r6, lr}
 125 0012 F4EEE67A 		vcmpe.f32	s15, s13
 126 0016 F1EE10FA 		vmrs	APSR_nzcv, FPSCR
 127 001a 55DD     		ble	.L15
 128 001c 77EEE67A 		vsub.f32	s15, s15, s13
 129 0020 B1EE477A 		vneg.f32	s14, s14
 130 0024 76EEE77A 		vsub.f32	s15, s13, s15
 131 0028 80ED027A 		vstr.32	s14, [r0, #8]
 132 002c C0ED017A 		vstr.32	s15, [r0, #4]
 133              	.L12:
 134 0030 D0ED036A 		vldr.32	s13, [r0, #12]
 135 0034 40F65F13 		movw	r3, #2399
 136 0038 90ED057A 		vldr.32	s14, [r0, #20]
 137 003c B6EE006A 		vmov.f32	s12, #5.0e-1
 138 0040 C269     		ldr	r2, [r0, #28]
 139 0042 A6EEA77A 		vfma.f32	s14, s13, s15
 140 0046 2949     		ldr	r1, .L18
 141 0048 00EB820E 		add	lr, r0, r2, lsl #2
 142 004c D0ED045A 		vldr.32	s11, [r0, #16]
 143 0050 FDEEC77A 		vcvt.s32.f32	s15, s14
 144 0054 17EE904A 		vmov	r4, s15	@ int
 145 0058 F8EEE77A 		vcvt.f32.s32	s15, s15
 146 005c A342     		cmp	r3, r4
 147 005e 77EE677A 		vsub.f32	s15, s14, s15
 148 0062 28BF     		it	cs
 149 0064 2346     		movcs	r3, r4
 150 0066 0362     		str	r3, [r0, #32]
 151 0068 1344     		add	r3, r3, r2
 152 006a 02F65F12 		addw	r2, r2, #2399
 153 006e C0ED067A 		vstr.32	s15, [r0, #24]
 154 0072 03F1010C 		add	ip, r3, #1
 155 0076 A1FB0346 		umull	r4, r6, r1, r3
 156 007a A1FB0C45 		umull	r4, r5, r1, ip
 157 007e 360A     		lsrs	r6, r6, #8
 158 0080 A1FB0241 		umull	r4, r1, r1, r2
 159 0084 4FF41664 		mov	r4, #2400
 160 0088 2D0A     		lsrs	r5, r5, #8
 161 008a 04FB1633 		mls	r3, r4, r6, r3
 162 008e 090A     		lsrs	r1, r1, #8
 163 0090 04FB15CC 		mls	ip, r4, r5, ip
 164 0094 00EB8303 		add	r3, r0, r3, lsl #2
 165 0098 04FB1121 		mls	r1, r4, r1, r2
 166 009c 00EB8C0C 		add	ip, r0, ip, lsl #2
 167 00a0 93ED097A 		vldr.32	s14, [r3, #36]
 168 00a4 DCED096A 		vldr.32	s13, [ip, #36]
 169 00a8 76EEC76A 		vsub.f32	s13, s13, s14
 170 00ac A6EEA77A 		vfma.f32	s14, s13, s15
 171 00b0 F0EE407A 		vmov.f32	s15, s0
 172 00b4 E5EE877A 		vfma.f32	s15, s11, s14
 173 00b8 30EE070A 		vadd.f32	s0, s0, s14
 174 00bc 20EE060A 		vmul.f32	s0, s0, s12
ARM GAS  C:\Users\pedro\AppData\Local\Temp\cc8r8zr2.s 			page 4


 175 00c0 CEED097A 		vstr.32	s15, [lr, #36]
 176 00c4 C161     		str	r1, [r0, #28]
 177 00c6 70BD     		pop	{r4, r5, r6, pc}
 178              	.L15:
 179 00c8 BFEE006A 		vmov.f32	s12, #-1.0e+0
 180 00cc F4EEC67A 		vcmpe.f32	s15, s12
 181 00d0 F1EE10FA 		vmrs	APSR_nzcv, FPSCR
 182 00d4 07D5     		bpl	.L17
 183 00d6 77EEA67A 		vadd.f32	s15, s15, s13
 184 00da B1EE477A 		vneg.f32	s14, s14
 185 00de 76EE677A 		vsub.f32	s15, s12, s15
 186 00e2 80ED027A 		vstr.32	s14, [r0, #8]
 187              	.L17:
 188 00e6 C0ED017A 		vstr.32	s15, [r0, #4]
 189 00ea A1E7     		b	.L12
 190              	.L19:
 191              		.align	2
 192              	.L18:
 193 00ec B5814E1B 		.word	458129845
 195              		.section	.text._ZN7daisysp12ChorusEngine11SetLfoDepthEf,"ax",%progbits
 196              		.align	1
 197              		.p2align 2,,3
 198              		.global	_ZN7daisysp12ChorusEngine11SetLfoDepthEf
 199              		.syntax unified
 200              		.thumb
 201              		.thumb_func
 202              		.fpu fpv5-d16
 204              	_ZN7daisysp12ChorusEngine11SetLfoDepthEf:
 205              		@ args = 0, pretend = 0, frame = 0
 206              		@ frame_needed = 0, uses_anonymous_args = 0
 207              		@ link register save eliminated.
 208 0000 DFED077A 		vldr.32	s15, .L21
 209              		.syntax unified
 210              	@ 36 "Source/Utility/dsp.h" 1
 211 0004 80FE270A 		vmaxnm.f32 s0, s0, s15
 212              	@ 0 "" 2
 213              		.thumb
 214              		.syntax unified
 215 0008 D0ED057A 		vldr.32	s15, [r0, #20]
 216 000c 9FED057A 		vldr.32	s14, .L21+4
 217              		.syntax unified
 218              	@ 47 "Source/Utility/dsp.h" 1
 219 0010 80FE470A 		vminnm.f32 s0, s0, s14
 220              	@ 0 "" 2
 221              		.thumb
 222              		.syntax unified
 223 0014 27EE800A 		vmul.f32	s0, s15, s0
 224 0018 80ED030A 		vstr.32	s0, [r0, #12]
 225 001c 7047     		bx	lr
 226              	.L22:
 227 001e 00BF     		.align	2
 228              	.L21:
 229 0020 00000000 		.word	0
 230 0024 7B146E3F 		.word	1064178811
 232              		.section	.text._ZN7daisysp12ChorusEngine10SetLfoFreqEf,"ax",%progbits
 233              		.align	1
 234              		.p2align 2,,3
ARM GAS  C:\Users\pedro\AppData\Local\Temp\cc8r8zr2.s 			page 5


 235              		.global	_ZN7daisysp12ChorusEngine10SetLfoFreqEf
 236              		.syntax unified
 237              		.thumb
 238              		.thumb_func
 239              		.fpu fpv5-d16
 241              	_ZN7daisysp12ChorusEngine10SetLfoFreqEf:
 242              		@ args = 0, pretend = 0, frame = 0
 243              		@ frame_needed = 0, uses_anonymous_args = 0
 244              		@ link register save eliminated.
 245 0000 F1EE007A 		vmov.f32	s15, #4.0e+0
 246 0004 D0ED006A 		vldr.32	s13, [r0]
 247 0008 90ED027A 		vldr.32	s14, [r0, #8]
 248 000c 20EE270A 		vmul.f32	s0, s0, s15
 249 0010 B5EEC07A 		vcmpe.f32	s14, #0
 250 0014 B5EE007A 		vmov.f32	s14, #2.5e-1
 251 0018 C0EE267A 		vdiv.f32	s15, s0, s13
 252 001c F1EE10FA 		vmrs	APSR_nzcv, FPSCR
 253 0020 FDEE006A 		vmov.f32	s13, #-2.5e-1
 254 0024 48BF     		it	mi
 255 0026 F1EE677A 		vnegmi.f32	s15, s15
 256              		.syntax unified
 257              	@ 36 "Source/Utility/dsp.h" 1
 258 002a C7FEA67A 		vmaxnm.f32 s15, s15, s13
 259              	@ 0 "" 2
 260              	@ 47 "Source/Utility/dsp.h" 1
 261 002e C7FEC77A 		vminnm.f32 s15, s15, s14
 262              	@ 0 "" 2
 263              		.thumb
 264              		.syntax unified
 265 0032 C0ED027A 		vstr.32	s15, [r0, #8]
 266 0036 7047     		bx	lr
 268              		.section	.text._ZN7daisysp12ChorusEngine8SetDelayEf,"ax",%progbits
 269              		.align	1
 270              		.p2align 2,,3
 271              		.global	_ZN7daisysp12ChorusEngine8SetDelayEf
 272              		.syntax unified
 273              		.thumb
 274              		.thumb_func
 275              		.fpu fpv5-d16
 277              	_ZN7daisysp12ChorusEngine8SetDelayEf:
 278              		@ args = 0, pretend = 0, frame = 0
 279              		@ frame_needed = 0, uses_anonymous_args = 0
 280              		@ link register save eliminated.
 281 0000 DFED0D7A 		vldr.32	s15, .L28
 282 0004 9FED0D7A 		vldr.32	s14, .L28+4
 283 0008 F0EE676A 		vmov.f32	s13, s15
 284 000c 9FED0C6A 		vldr.32	s12, .L28+8
 285 0010 E0EE066A 		vfma.f32	s13, s0, s12
 286              		.syntax unified
 287              	@ 36 "Source/Utility/dsp.h" 1
 288 0014 C7FEA67A 		vmaxnm.f32 s15, s15, s13
 289              	@ 0 "" 2
 290              		.thumb
 291              		.syntax unified
 292 0018 67EE877A 		vmul.f32	s15, s15, s14
 293 001c D0ED006A 		vldr.32	s13, [r0]
 294 0020 90ED037A 		vldr.32	s14, [r0, #12]
ARM GAS  C:\Users\pedro\AppData\Local\Temp\cc8r8zr2.s 			page 6


 295 0024 67EEA67A 		vmul.f32	s15, s15, s13
 296              		.syntax unified
 297              	@ 47 "Source/Utility/dsp.h" 1
 298 0028 87FE677A 		vminnm.f32 s14, s14, s15
 299              	@ 0 "" 2
 300              		.thumb
 301              		.syntax unified
 302 002c 80ED037A 		vstr.32	s14, [r0, #12]
 303 0030 C0ED057A 		vstr.32	s15, [r0, #20]
 304 0034 7047     		bx	lr
 305              	.L29:
 306 0036 00BF     		.align	2
 307              	.L28:
 308 0038 CDCCCC3D 		.word	1036831949
 309 003c 6F12833A 		.word	981668463
 310 0040 CDCCFC40 		.word	1090309325
 312              		.section	.text._ZN7daisysp12ChorusEngine10SetDelayMsEf,"ax",%progbits
 313              		.align	1
 314              		.p2align 2,,3
 315              		.global	_ZN7daisysp12ChorusEngine10SetDelayMsEf
 316              		.syntax unified
 317              		.thumb
 318              		.thumb_func
 319              		.fpu fpv5-d16
 321              	_ZN7daisysp12ChorusEngine10SetDelayMsEf:
 322              		@ args = 0, pretend = 0, frame = 0
 323              		@ frame_needed = 0, uses_anonymous_args = 0
 324              		@ link register save eliminated.
 325 0000 9FED0A7A 		vldr.32	s14, .L31
 326 0004 DFED0A7A 		vldr.32	s15, .L31+4
 327              		.syntax unified
 328              	@ 36 "Source/Utility/dsp.h" 1
 329 0008 87FE800A 		vmaxnm.f32 s0, s15, s0
 330              	@ 0 "" 2
 331              		.thumb
 332              		.syntax unified
 333 000c 20EE070A 		vmul.f32	s0, s0, s14
 334 0010 90ED007A 		vldr.32	s14, [r0]
 335 0014 D0ED037A 		vldr.32	s15, [r0, #12]
 336 0018 20EE070A 		vmul.f32	s0, s0, s14
 337              		.syntax unified
 338              	@ 47 "Source/Utility/dsp.h" 1
 339 001c C7FEC07A 		vminnm.f32 s15, s15, s0
 340              	@ 0 "" 2
 341              		.thumb
 342              		.syntax unified
 343 0020 C0ED037A 		vstr.32	s15, [r0, #12]
 344 0024 80ED050A 		vstr.32	s0, [r0, #20]
 345 0028 7047     		bx	lr
 346              	.L32:
 347 002a 00BF     		.align	2
 348              	.L31:
 349 002c 6F12833A 		.word	981668463
 350 0030 CDCCCC3D 		.word	1036831949
 352              		.section	.text._ZN7daisysp12ChorusEngine11SetFeedbackEf,"ax",%progbits
 353              		.align	1
 354              		.p2align 2,,3
ARM GAS  C:\Users\pedro\AppData\Local\Temp\cc8r8zr2.s 			page 7


 355              		.global	_ZN7daisysp12ChorusEngine11SetFeedbackEf
 356              		.syntax unified
 357              		.thumb
 358              		.thumb_func
 359              		.fpu fpv5-d16
 361              	_ZN7daisysp12ChorusEngine11SetFeedbackEf:
 362              		@ args = 0, pretend = 0, frame = 0
 363              		@ frame_needed = 0, uses_anonymous_args = 0
 364              		@ link register save eliminated.
 365 0000 F7EE007A 		vmov.f32	s15, #1.0e+0
 366 0004 9FED047A 		vldr.32	s14, .L34
 367              		.syntax unified
 368              	@ 36 "Source/Utility/dsp.h" 1
 369 0008 80FE070A 		vmaxnm.f32 s0, s0, s14
 370              	@ 0 "" 2
 371              	@ 47 "Source/Utility/dsp.h" 1
 372 000c 80FE670A 		vminnm.f32 s0, s0, s15
 373              	@ 0 "" 2
 374              		.thumb
 375              		.syntax unified
 376 0010 80ED040A 		vstr.32	s0, [r0, #16]
 377 0014 7047     		bx	lr
 378              	.L35:
 379 0016 00BF     		.align	2
 380              	.L34:
 381 0018 00000000 		.word	0
 383              		.section	.text._ZN7daisysp12ChorusEngine10ProcessLfoEv,"ax",%progbits
 384              		.align	1
 385              		.p2align 2,,3
 386              		.global	_ZN7daisysp12ChorusEngine10ProcessLfoEv
 387              		.syntax unified
 388              		.thumb
 389              		.thumb_func
 390              		.fpu fpv5-d16
 392              	_ZN7daisysp12ChorusEngine10ProcessLfoEv:
 393              		@ args = 0, pretend = 0, frame = 0
 394              		@ frame_needed = 0, uses_anonymous_args = 0
 395              		@ link register save eliminated.
 396 0000 90ED027A 		vldr.32	s14, [r0, #8]
 397 0004 B7EE000A 		vmov.f32	s0, #1.0e+0
 398 0008 D0ED017A 		vldr.32	s15, [r0, #4]
 399 000c 77EE277A 		vadd.f32	s15, s14, s15
 400 0010 F4EEC07A 		vcmpe.f32	s15, s0
 401 0014 F1EE10FA 		vmrs	APSR_nzcv, FPSCR
 402 0018 0EDD     		ble	.L42
 403 001a 77EEC07A 		vsub.f32	s15, s15, s0
 404 001e B1EE477A 		vneg.f32	s14, s14
 405 0022 70EE677A 		vsub.f32	s15, s0, s15
 406 0026 90ED030A 		vldr.32	s0, [r0, #12]
 407 002a 80ED027A 		vstr.32	s14, [r0, #8]
 408 002e 27EE800A 		vmul.f32	s0, s15, s0
 409 0032 C0ED017A 		vstr.32	s15, [r0, #4]
 410 0036 7047     		bx	lr
 411              	.L42:
 412 0038 FFEE006A 		vmov.f32	s13, #-1.0e+0
 413 003c F4EEE67A 		vcmpe.f32	s15, s13
 414 0040 F1EE10FA 		vmrs	APSR_nzcv, FPSCR
ARM GAS  C:\Users\pedro\AppData\Local\Temp\cc8r8zr2.s 			page 8


 415 0044 07D5     		bpl	.L43
 416 0046 77EE807A 		vadd.f32	s15, s15, s0
 417 004a B1EE477A 		vneg.f32	s14, s14
 418 004e 76EEE77A 		vsub.f32	s15, s13, s15
 419 0052 80ED027A 		vstr.32	s14, [r0, #8]
 420              	.L43:
 421 0056 90ED030A 		vldr.32	s0, [r0, #12]
 422 005a C0ED017A 		vstr.32	s15, [r0, #4]
 423 005e 27EE800A 		vmul.f32	s0, s15, s0
 424 0062 7047     		bx	lr
 426              		.section	.text._ZN7daisysp6Chorus4InitEf,"ax",%progbits
 427              		.align	1
 428              		.p2align 2,,3
 429              		.global	_ZN7daisysp6Chorus4InitEf
 430              		.syntax unified
 431              		.thumb
 432              		.thumb_func
 433              		.fpu fpv5-d16
 435              	_ZN7daisysp6Chorus4InitEf:
 436              		@ args = 0, pretend = 0, frame = 0
 437              		@ frame_needed = 0, uses_anonymous_args = 0
 438 0000 70B5     		push	{r4, r5, r6, lr}
 439 0002 0446     		mov	r4, r0
 440 0004 4FF41652 		mov	r2, #9600
 441 0008 0021     		movs	r1, #0
 442 000a 2430     		adds	r0, r0, #36
 443 000c 04F50055 		add	r5, r4, #8192
 444 0010 2DED048B 		vpush.64	{d8, d9}
 445 0014 B0EE408A 		vmov.f32	s16, s0
 446 0018 84ED000A 		vstr.32	s0, [r4]
 447 001c FFF7FEFF 		bl	memset
 448 0020 DFED546A 		vldr.32	s13, .L54
 449 0024 9FED547A 		vldr.32	s14, .L54+4
 450 0028 0020     		movs	r0, #0
 451              		.syntax unified
 452              	@ 36 "Source/Utility/dsp.h" 1
 453 002a 87FE267A 		vmaxnm.f32 s14, s14, s13
 454              	@ 0 "" 2
 455              		.thumb
 456              		.syntax unified
 457 002e DFED536A 		vldr.32	s13, .L54+8
 458 0032 0121     		movs	r1, #1
 459 0034 DFED527A 		vldr.32	s15, .L54+12
 460 0038 05F2A456 		addw	r6, r5, #1444
 461 003c C6EE888A 		vdiv.f32	s17, s13, s16
 462 0040 9FED509A 		vldr.32	s18, .L54+16
 463 0044 9FED506A 		vldr.32	s12, .L54+20
 464 0048 0023     		movs	r3, #0
 465 004a 504A     		ldr	r2, .L54+24
 466 004c 05F2A455 		addw	r5, r5, #1444
 467 0050 6360     		str	r3, [r4, #4]	@ float
 468 0052 2261     		str	r2, [r4, #16]	@ float
 469 0054 4FF41652 		mov	r2, #9600
 470 0058 27EE277A 		vmul.f32	s14, s14, s15
 471 005c D4ED027A 		vldr.32	s15, [r4, #8]
 472 0060 F5EEC07A 		vcmpe.f32	s15, #0
 473 0064 DFED4A7A 		vldr.32	s15, .L54+28
ARM GAS  C:\Users\pedro\AppData\Local\Temp\cc8r8zr2.s 			page 9


 474 0068 27EE087A 		vmul.f32	s14, s14, s16
 475              		.syntax unified
 476              	@ 36 "Source/Utility/dsp.h" 1
 477 006c C7FE897A 		vmaxnm.f32 s15, s15, s18
 478              	@ 0 "" 2
 479              		.thumb
 480              		.syntax unified
 481 0070 F1EE10FA 		vmrs	APSR_nzcv, FPSCR
 482 0074 84ED057A 		vstr.32	s14, [r4, #20]
 483              		.syntax unified
 484              	@ 47 "Source/Utility/dsp.h" 1
 485 0078 C7FEC67A 		vminnm.f32 s15, s15, s12
 486              	@ 0 "" 2
 487              		.thumb
 488              		.syntax unified
 489 007c 27EE277A 		vmul.f32	s14, s14, s15
 490 0080 B5EE006A 		vmov.f32	s12, #2.5e-1
 491 0084 FDEE007A 		vmov.f32	s15, #-2.5e-1
 492 0088 48BF     		it	mi
 493 008a F1EE686A 		vnegmi.f32	s13, s17
 494 008e 84ED037A 		vstr.32	s14, [r4, #12]
 495 0092 58BF     		it	pl
 496 0094 F0EE686A 		vmovpl.f32	s13, s17
 497              		.syntax unified
 498              	@ 36 "Source/Utility/dsp.h" 1
 499 0098 C6FEA77A 		vmaxnm.f32 s15, s13, s15
 500              	@ 0 "" 2
 501              		.thumb
 502              		.syntax unified
 503 009c C4E90701 		strd	r0, r1, [r4, #28]
 504 00a0 42F2C850 		movw	r0, #9672
 505 00a4 0021     		movs	r1, #0
 506              		.syntax unified
 507              	@ 47 "Source/Utility/dsp.h" 1
 508 00a6 C7FEC67A 		vminnm.f32 s15, s15, s12
 509              	@ 0 "" 2
 510              		.thumb
 511              		.syntax unified
 512 00aa 2044     		add	r0, r0, r4
 513 00ac C4ED027A 		vstr.32	s15, [r4, #8]
 514 00b0 86ED008A 		vstr.32	s16, [r6]
 515 00b4 04F58044 		add	r4, r4, #16384
 516 00b8 FFF7FEFF 		bl	memset
 517 00bc DFED307A 		vldr.32	s15, .L54+12
 518 00c0 DFED2C6A 		vldr.32	s13, .L54
 519 00c4 0023     		movs	r3, #0
 520 00c6 9FED2C7A 		vldr.32	s14, .L54+4
 521 00ca 0122     		movs	r2, #1
 522              		.syntax unified
 523              	@ 36 "Source/Utility/dsp.h" 1
 524 00cc 87FE267A 		vmaxnm.f32 s14, s14, s13
 525              	@ 0 "" 2
 526              		.thumb
 527              		.syntax unified
 528 00d0 27EE277A 		vmul.f32	s14, s14, s15
 529 00d4 D6ED026A 		vldr.32	s13, [r6, #8]
 530 00d8 EB61     		str	r3, [r5, #28]
ARM GAS  C:\Users\pedro\AppData\Local\Temp\cc8r8zr2.s 			page 10


 531 00da B5EE005A 		vmov.f32	s10, #2.5e-1
 532 00de F4EEC96A 		vcmpe.f32	s13, s18
 533 00e2 2A4B     		ldr	r3, .L54+24
 534 00e4 67EE087A 		vmul.f32	s15, s14, s16
 535 00e8 2A62     		str	r2, [r5, #32]
 536 00ea 9FED267A 		vldr.32	s14, .L54+16
 537 00ee F7EE005A 		vmov.f32	s11, #1.0e+0
 538 00f2 9FED256A 		vldr.32	s12, .L54+20
 539 00f6 F1EE10FA 		vmrs	APSR_nzcv, FPSCR
 540 00fa C6ED057A 		vstr.32	s15, [r6, #20]
 541 00fe 04F53560 		add	r0, r4, #2896
 542 0102 DFED236A 		vldr.32	s13, .L54+28
 543 0106 04F64832 		addw	r2, r4, #2888
 544              		.syntax unified
 545              	@ 36 "Source/Utility/dsp.h" 1
 546 010a C6FE876A 		vmaxnm.f32 s13, s13, s14
 547              	@ 0 "" 2
 548              	@ 47 "Source/Utility/dsp.h" 1
 549 010e C6FEC66A 		vminnm.f32 s13, s13, s12
 550              	@ 0 "" 2
 551              		.thumb
 552              		.syntax unified
 553 0112 67EEA67A 		vmul.f32	s15, s15, s13
 554 0116 3361     		str	r3, [r6, #16]	@ float
 555 0118 04F64C33 		addw	r3, r4, #2892
 556 011c 86ED019A 		vstr.32	s18, [r6, #4]
 557 0120 48BF     		it	mi
 558 0122 F1EE688A 		vnegmi.f32	s17, s17
 559 0126 4FF07C51 		mov	r1, #1056964608
 560 012a C5ED037A 		vstr.32	s15, [r5, #12]
 561 012e BDEE006A 		vmov.f32	s12, #-2.5e-1
 562              		.syntax unified
 563              	@ 36 "Source/Utility/dsp.h" 1
 564 0132 C8FE867A 		vmaxnm.f32 s15, s17, s12
 565              	@ 0 "" 2
 566              	@ 36 "Source/Utility/dsp.h" 1
 567 0136 85FE076A 		vmaxnm.f32 s12, s10, s14
 568              	@ 0 "" 2
 569              	@ 47 "Source/Utility/dsp.h" 1
 570 013a C7FEC57A 		vminnm.f32 s15, s15, s10
 571              	@ 0 "" 2
 572              	@ 47 "Source/Utility/dsp.h" 1
 573 013e 86FE656A 		vminnm.f32 s12, s12, s11
 574              	@ 0 "" 2
 575              		.thumb
 576              		.syntax unified
 577 0142 C5ED027A 		vstr.32	s15, [r5, #8]
 578 0146 F6EE086A 		vmov.f32	s13, #7.5e-1
 579 014a 83ED006A 		vstr.32	s12, [r3]
 580 014e 04F65833 		addw	r3, r4, #2904
 581 0152 04F65434 		addw	r4, r4, #2900
 582              		.syntax unified
 583              	@ 36 "Source/Utility/dsp.h" 1
 584 0156 C6FE877A 		vmaxnm.f32 s15, s13, s14
 585              	@ 0 "" 2
 586              		.thumb
 587              		.syntax unified
ARM GAS  C:\Users\pedro\AppData\Local\Temp\cc8r8zr2.s 			page 11


 588 015a BDEC048B 		vldm	sp!, {d8-d9}
 589              		.syntax unified
 590              	@ 47 "Source/Utility/dsp.h" 1
 591 015e C7FEE57A 		vminnm.f32 s15, s15, s11
 592              	@ 0 "" 2
 593              		.thumb
 594              		.syntax unified
 595 0162 C0ED007A 		vstr.32	s15, [r0]
 596 0166 1160     		str	r1, [r2]	@ float
 597 0168 83ED007A 		vstr.32	s14, [r3]
 598 016c 84ED007A 		vstr.32	s14, [r4]
 599 0170 70BD     		pop	{r4, r5, r6, pc}
 600              	.L55:
 601 0172 00BF     		.align	2
 602              	.L54:
 603 0174 CDCCC040 		.word	1086377165
 604 0178 CDCCCC3D 		.word	1036831949
 605 017c 9A99993F 		.word	1067030938
 606 0180 6F12833A 		.word	981668463
 607 0184 00000000 		.word	0
 608 0188 7B146E3F 		.word	1064178811
 609 018c CDCC4C3E 		.word	1045220557
 610 0190 6666663F 		.word	1063675494
 612              		.section	.text._ZN7daisysp6Chorus7ProcessEf,"ax",%progbits
 613              		.align	1
 614              		.p2align 2,,3
 615              		.global	_ZN7daisysp6Chorus7ProcessEf
 616              		.syntax unified
 617              		.thumb
 618              		.thumb_func
 619              		.fpu fpv5-d16
 621              	_ZN7daisysp6Chorus7ProcessEf:
 622              		@ args = 0, pretend = 0, frame = 0
 623              		@ frame_needed = 0, uses_anonymous_args = 0
 624 0000 00F58042 		add	r2, r0, #16384
 625 0004 0023     		movs	r3, #0
 626 0006 B7EE006A 		vmov.f32	s12, #1.0e+0
 627 000a 02F65831 		addw	r1, r2, #2904
 628 000e F0EE406A 		vmov.f32	s13, s0
 629 0012 F0B5     		push	{r4, r5, r6, r7, lr}
 630 0014 02F65434 		addw	r4, r2, #2900
 631 0018 2360     		str	r3, [r4]	@ float
 632 001a 0B60     		str	r3, [r1]	@ float
 633 001c 90ED027A 		vldr.32	s14, [r0, #8]
 634 0020 D0ED017A 		vldr.32	s15, [r0, #4]
 635 0024 77EE277A 		vadd.f32	s15, s14, s15
 636 0028 F4EEC67A 		vcmpe.f32	s15, s12
 637 002c F1EE10FA 		vmrs	APSR_nzcv, FPSCR
 638 0030 40F3F280 		ble	.L68
 639 0034 77EEC67A 		vsub.f32	s15, s15, s12
 640 0038 B1EE477A 		vneg.f32	s14, s14
 641 003c 76EE677A 		vsub.f32	s15, s12, s15
 642 0040 80ED027A 		vstr.32	s14, [r0, #8]
 643              	.L67:
 644 0044 C0ED017A 		vstr.32	s15, [r0, #4]
 645              	.L59:
 646 0048 90ED037A 		vldr.32	s14, [r0, #12]
ARM GAS  C:\Users\pedro\AppData\Local\Temp\cc8r8zr2.s 			page 12


 647 004c 40F65F13 		movw	r3, #2399
 648 0050 90ED056A 		vldr.32	s12, [r0, #20]
 649 0054 4FF41665 		mov	r5, #2400
 650 0058 C169     		ldr	r1, [r0, #28]
 651 005a B7EE005A 		vmov.f32	s10, #1.0e+0
 652 005e A7EE876A 		vfma.f32	s12, s15, s14
 653 0062 90ED043A 		vldr.32	s6, [r0, #16]
 654 0066 00EB810E 		add	lr, r0, r1, lsl #2
 655 006a F6EE003A 		vmov.f32	s7, #5.0e-1
 656 006e 9FED7E7A 		vldr.32	s14, .L69
 657 0072 B0EE470A 		vmov.f32	s0, s14
 658 0076 FDEEC65A 		vcvt.s32.f32	s11, s12
 659 007a 15EE904A 		vmov	r4, s11	@ int
 660 007e F8EEE55A 		vcvt.f32.s32	s11, s11
 661 0082 A342     		cmp	r3, r4
 662 0084 36EE656A 		vsub.f32	s12, s12, s11
 663 0088 28BF     		it	cs
 664 008a 2346     		movcs	r3, r4
 665 008c 774C     		ldr	r4, .L69+4
 666 008e 0362     		str	r3, [r0, #32]
 667 0090 0B44     		add	r3, r3, r1
 668 0092 80ED066A 		vstr.32	s12, [r0, #24]
 669 0096 01F65F11 		addw	r1, r1, #2399
 670 009a A4FB0376 		umull	r7, r6, r4, r3
 671 009e 03F1010C 		add	ip, r3, #1
 672 00a2 360A     		lsrs	r6, r6, #8
 673 00a4 05FB1633 		mls	r3, r5, r6, r3
 674 00a8 00EB8303 		add	r3, r0, r3, lsl #2
 675 00ac D3ED097A 		vldr.32	s15, [r3, #36]
 676 00b0 A4FB0C63 		umull	r6, r3, r4, ip
 677 00b4 A4FB0164 		umull	r6, r4, r4, r1
 678 00b8 1B0A     		lsrs	r3, r3, #8
 679 00ba 240A     		lsrs	r4, r4, #8
 680 00bc 05FB13CC 		mls	ip, r5, r3, ip
 681 00c0 02F64C33 		addw	r3, r2, #2892
 682 00c4 05FB1414 		mls	r4, r5, r4, r1
 683 00c8 00F50051 		add	r1, r0, #8192
 684 00cc 00EB8C0C 		add	ip, r0, ip, lsl #2
 685 00d0 D3ED004A 		vldr.32	s9, [r3]
 686 00d4 01F5B563 		add	r3, r1, #1448
 687 00d8 DCED095A 		vldr.32	s11, [ip, #36]
 688 00dc 35EE644A 		vsub.f32	s8, s10, s9
 689 00e0 75EEE75A 		vsub.f32	s11, s11, s15
 690 00e4 E6EE257A 		vfma.f32	s15, s12, s11
 691 00e8 B0EE666A 		vmov.f32	s12, s13
 692 00ec A7EE836A 		vfma.f32	s12, s15, s6
 693 00f0 76EEA77A 		vadd.f32	s15, s13, s15
 694 00f4 67EEA37A 		vmul.f32	s15, s15, s7
 695 00f8 8EED096A 		vstr.32	s12, [lr, #36]
 696 00fc C461     		str	r4, [r0, #28]
 697 00fe 01F2AC50 		addw	r0, r1, #1452
 698 0102 A7EE840A 		vfma.f32	s0, s15, s8
 699 0106 A7EEA47A 		vfma.f32	s14, s15, s9
 700 010a 90ED006A 		vldr.32	s12, [r0]
 701 010e D3ED007A 		vldr.32	s15, [r3]
 702 0112 76EE277A 		vadd.f32	s15, s12, s15
 703 0116 F4EEC57A 		vcmpe.f32	s15, s10
ARM GAS  C:\Users\pedro\AppData\Local\Temp\cc8r8zr2.s 			page 13


 704 011a F1EE10FA 		vmrs	APSR_nzcv, FPSCR
 705 011e 40F38E80 		ble	.L65
 706 0122 77EEC57A 		vsub.f32	s15, s15, s10
 707 0126 B1EE466A 		vneg.f32	s12, s12
 708 012a 75EE677A 		vsub.f32	s15, s10, s15
 709 012e C3ED007A 		vstr.32	s15, [r3]
 710 0132 80ED006A 		vstr.32	s12, [r0]
 711              	.L62:
 712 0136 01F5B665 		add	r5, r1, #1456
 713 013a 01F5B760 		add	r0, r1, #1464
 714 013e 40F65F13 		movw	r3, #2399
 715 0142 01F2BC54 		addw	r4, r1, #1468
 716 0146 D5ED005A 		vldr.32	s11, [r5]
 717 014a 02F53566 		add	r6, r2, #2896
 718 014e 90ED006A 		vldr.32	s12, [r0]
 719 0152 4FF4166E 		mov	lr, #2400
 720 0156 D1F8C005 		ldr	r0, [r1, #1472]
 721 015a B6EE004A 		vmov.f32	s8, #5.0e-1
 722 015e A5EEA76A 		vfma.f32	s12, s11, s15
 723 0162 D6ED004A 		vldr.32	s9, [r6]
 724 0166 F7EE005A 		vmov.f32	s11, #1.0e+0
 725 016a 75EEE45A 		vsub.f32	s11, s11, s9
 726 016e FDEEC67A 		vcvt.s32.f32	s15, s12
 727 0172 17EE905A 		vmov	r5, s15	@ int
 728 0176 F8EEE77A 		vcvt.f32.s32	s15, s15
 729 017a AB42     		cmp	r3, r5
 730 017c 76EE677A 		vsub.f32	s15, s12, s15
 731 0180 28BF     		it	cs
 732 0182 2B46     		movcs	r3, r5
 733 0184 394D     		ldr	r5, .L69+4
 734 0186 C4ED007A 		vstr.32	s15, [r4]
 735 018a C1F8C435 		str	r3, [r1, #1476]
 736 018e 0344     		add	r3, r3, r0
 737 0190 A5FB0376 		umull	r7, r6, r5, r3
 738 0194 03F1010C 		add	ip, r3, #1
 739 0198 360A     		lsrs	r6, r6, #8
 740 019a 0EFB1633 		mls	r3, lr, r6, r3
 741 019e 04EB8303 		add	r3, r4, r3, lsl #2
 742 01a2 93ED036A 		vldr.32	s12, [r3, #12]
 743 01a6 A5FB0C63 		umull	r6, r3, r5, ip
 744 01aa 1B0A     		lsrs	r3, r3, #8
 745 01ac 0EFB13CC 		mls	ip, lr, r3, ip
 746 01b0 04EB8C0C 		add	ip, r4, ip, lsl #2
 747 01b4 04EB8004 		add	r4, r4, r0, lsl #2
 748 01b8 00F65F10 		addw	r0, r0, #2399
 749 01bc 9CED035A 		vldr.32	s10, [ip, #12]
 750 01c0 A5FB0053 		umull	r5, r3, r5, r0
 751 01c4 01F2B455 		addw	r5, r1, #1460
 752 01c8 35EE465A 		vsub.f32	s10, s10, s12
 753 01cc 1B0A     		lsrs	r3, r3, #8
 754 01ce A7EE856A 		vfma.f32	s12, s15, s10
 755 01d2 0EFB1300 		mls	r0, lr, r3, r0
 756 01d6 02F64833 		addw	r3, r2, #2888
 757 01da 93ED005A 		vldr.32	s10, [r3]
 758 01de 02F65433 		addw	r3, r2, #2900
 759 01e2 02F65832 		addw	r2, r2, #2904
 760 01e6 76EE867A 		vadd.f32	s15, s13, s12
ARM GAS  C:\Users\pedro\AppData\Local\Temp\cc8r8zr2.s 			page 14


 761 01ea 67EE847A 		vmul.f32	s15, s15, s8
 762 01ee A5EEA70A 		vfma.f32	s0, s11, s15
 763 01f2 A4EEA77A 		vfma.f32	s14, s9, s15
 764 01f6 D5ED007A 		vldr.32	s15, [r5]
 765 01fa E6EE276A 		vfma.f32	s13, s12, s15
 766 01fe 20EE050A 		vmul.f32	s0, s0, s10
 767 0202 27EE057A 		vmul.f32	s14, s14, s10
 768 0206 C4ED036A 		vstr.32	s13, [r4, #12]
 769 020a C1F8C005 		str	r0, [r1, #1472]
 770 020e 83ED000A 		vstr.32	s0, [r3]
 771 0212 82ED007A 		vstr.32	s14, [r2]
 772 0216 F0BD     		pop	{r4, r5, r6, r7, pc}
 773              	.L68:
 774 0218 FFEE005A 		vmov.f32	s11, #-1.0e+0
 775 021c F4EEE57A 		vcmpe.f32	s15, s11
 776 0220 F1EE10FA 		vmrs	APSR_nzcv, FPSCR
 777 0224 7FF50EAF 		bpl	.L67
 778 0228 77EE867A 		vadd.f32	s15, s15, s12
 779 022c B1EE477A 		vneg.f32	s14, s14
 780 0230 75EEE77A 		vsub.f32	s15, s11, s15
 781 0234 80ED027A 		vstr.32	s14, [r0, #8]
 782 0238 C0ED017A 		vstr.32	s15, [r0, #4]
 783 023c 04E7     		b	.L59
 784              	.L65:
 785 023e FFEE005A 		vmov.f32	s11, #-1.0e+0
 786 0242 F4EEE57A 		vcmpe.f32	s15, s11
 787 0246 F1EE10FA 		vmrs	APSR_nzcv, FPSCR
 788 024a 02D4     		bmi	.L63
 789 024c C3ED007A 		vstr.32	s15, [r3]
 790 0250 71E7     		b	.L62
 791              	.L63:
 792 0252 77EE857A 		vadd.f32	s15, s15, s10
 793 0256 B1EE466A 		vneg.f32	s12, s12
 794 025a 75EEE77A 		vsub.f32	s15, s11, s15
 795 025e C3ED007A 		vstr.32	s15, [r3]
 796 0262 80ED006A 		vstr.32	s12, [r0]
 797 0266 66E7     		b	.L62
 798              	.L70:
 799              		.align	2
 800              	.L69:
 801 0268 00000000 		.word	0
 802 026c B5814E1B 		.word	458129845
 804              		.section	.text._ZN7daisysp6Chorus7GetLeftEv,"ax",%progbits
 805              		.align	1
 806              		.p2align 2,,3
 807              		.global	_ZN7daisysp6Chorus7GetLeftEv
 808              		.syntax unified
 809              		.thumb
 810              		.thumb_func
 811              		.fpu fpv5-d16
 813              	_ZN7daisysp6Chorus7GetLeftEv:
 814              		@ args = 0, pretend = 0, frame = 0
 815              		@ frame_needed = 0, uses_anonymous_args = 0
 816              		@ link register save eliminated.
 817 0000 44F65433 		movw	r3, #19284
 818 0004 0344     		add	r3, r3, r0
 819 0006 93ED000A 		vldr.32	s0, [r3]
ARM GAS  C:\Users\pedro\AppData\Local\Temp\cc8r8zr2.s 			page 15


 820 000a 7047     		bx	lr
 822              		.section	.text._ZN7daisysp6Chorus8GetRightEv,"ax",%progbits
 823              		.align	1
 824              		.p2align 2,,3
 825              		.global	_ZN7daisysp6Chorus8GetRightEv
 826              		.syntax unified
 827              		.thumb
 828              		.thumb_func
 829              		.fpu fpv5-d16
 831              	_ZN7daisysp6Chorus8GetRightEv:
 832              		@ args = 0, pretend = 0, frame = 0
 833              		@ frame_needed = 0, uses_anonymous_args = 0
 834              		@ link register save eliminated.
 835 0000 44F65833 		movw	r3, #19288
 836 0004 0344     		add	r3, r3, r0
 837 0006 93ED000A 		vldr.32	s0, [r3]
 838 000a 7047     		bx	lr
 840              		.section	.text._ZN7daisysp6Chorus6SetPanEff,"ax",%progbits
 841              		.align	1
 842              		.p2align 2,,3
 843              		.global	_ZN7daisysp6Chorus6SetPanEff
 844              		.syntax unified
 845              		.thumb
 846              		.thumb_func
 847              		.fpu fpv5-d16
 849              	_ZN7daisysp6Chorus6SetPanEff:
 850              		@ args = 0, pretend = 0, frame = 0
 851              		@ frame_needed = 0, uses_anonymous_args = 0
 852              		@ link register save eliminated.
 853 0000 00F58040 		add	r0, r0, #16384
 854 0004 F7EE007A 		vmov.f32	s15, #1.0e+0
 855 0008 9FED097A 		vldr.32	s14, .L74
 856 000c 00F64C33 		addw	r3, r0, #2892
 857 0010 00F53560 		add	r0, r0, #2896
 858              		.syntax unified
 859              	@ 36 "Source/Utility/dsp.h" 1
 860 0014 80FE070A 		vmaxnm.f32 s0, s0, s14
 861              	@ 0 "" 2
 862              	@ 36 "Source/Utility/dsp.h" 1
 863 0018 C0FE870A 		vmaxnm.f32 s1, s1, s14
 864              	@ 0 "" 2
 865              	@ 47 "Source/Utility/dsp.h" 1
 866 001c 80FE670A 		vminnm.f32 s0, s0, s15
 867              	@ 0 "" 2
 868              	@ 47 "Source/Utility/dsp.h" 1
 869 0020 C0FEE70A 		vminnm.f32 s1, s1, s15
 870              	@ 0 "" 2
 871              		.thumb
 872              		.syntax unified
 873 0024 83ED000A 		vstr.32	s0, [r3]
 874 0028 C0ED000A 		vstr.32	s1, [r0]
 875 002c 7047     		bx	lr
 876              	.L75:
 877 002e 00BF     		.align	2
 878              	.L74:
 879 0030 00000000 		.word	0
 881              		.section	.text._ZN7daisysp6Chorus6SetPanEf,"ax",%progbits
ARM GAS  C:\Users\pedro\AppData\Local\Temp\cc8r8zr2.s 			page 16


 882              		.align	1
 883              		.p2align 2,,3
 884              		.global	_ZN7daisysp6Chorus6SetPanEf
 885              		.syntax unified
 886              		.thumb
 887              		.thumb_func
 888              		.fpu fpv5-d16
 890              	_ZN7daisysp6Chorus6SetPanEf:
 891              		@ args = 0, pretend = 0, frame = 0
 892              		@ frame_needed = 0, uses_anonymous_args = 0
 893              		@ link register save eliminated.
 894 0000 00F58040 		add	r0, r0, #16384
 895 0004 F7EE007A 		vmov.f32	s15, #1.0e+0
 896 0008 9FED077A 		vldr.32	s14, .L77
 897 000c 00F64C33 		addw	r3, r0, #2892
 898 0010 00F53560 		add	r0, r0, #2896
 899              		.syntax unified
 900              	@ 36 "Source/Utility/dsp.h" 1
 901 0014 80FE070A 		vmaxnm.f32 s0, s0, s14
 902              	@ 0 "" 2
 903              	@ 47 "Source/Utility/dsp.h" 1
 904 0018 80FE670A 		vminnm.f32 s0, s0, s15
 905              	@ 0 "" 2
 906              		.thumb
 907              		.syntax unified
 908 001c 83ED000A 		vstr.32	s0, [r3]
 909 0020 80ED000A 		vstr.32	s0, [r0]
 910 0024 7047     		bx	lr
 911              	.L78:
 912 0026 00BF     		.align	2
 913              	.L77:
 914 0028 00000000 		.word	0
 916              		.section	.text._ZN7daisysp6Chorus11SetLfoDepthEff,"ax",%progbits
 917              		.align	1
 918              		.p2align 2,,3
 919              		.global	_ZN7daisysp6Chorus11SetLfoDepthEff
 920              		.syntax unified
 921              		.thumb
 922              		.thumb_func
 923              		.fpu fpv5-d16
 925              	_ZN7daisysp6Chorus11SetLfoDepthEff:
 926              		@ args = 0, pretend = 0, frame = 0
 927              		@ frame_needed = 0, uses_anonymous_args = 0
 928              		@ link register save eliminated.
 929 0000 42F2A453 		movw	r3, #9636
 930 0004 90ED057A 		vldr.32	s14, [r0, #20]
 931 0008 9FED0B6A 		vldr.32	s12, .L80
 932 000c 0344     		add	r3, r3, r0
 933 000e DFED0B6A 		vldr.32	s13, .L80+4
 934              		.syntax unified
 935              	@ 36 "Source/Utility/dsp.h" 1
 936 0012 80FE060A 		vmaxnm.f32 s0, s0, s12
 937              	@ 0 "" 2
 938              		.thumb
 939              		.syntax unified
 940 0016 D3ED057A 		vldr.32	s15, [r3, #20]
 941              		.syntax unified
ARM GAS  C:\Users\pedro\AppData\Local\Temp\cc8r8zr2.s 			page 17


 942              	@ 47 "Source/Utility/dsp.h" 1
 943 001a 80FE660A 		vminnm.f32 s0, s0, s13
 944              	@ 0 "" 2
 945              	@ 36 "Source/Utility/dsp.h" 1
 946 001e C0FE860A 		vmaxnm.f32 s1, s1, s12
 947              	@ 0 "" 2
 948              		.thumb
 949              		.syntax unified
 950 0022 27EE000A 		vmul.f32	s0, s14, s0
 951              		.syntax unified
 952              	@ 47 "Source/Utility/dsp.h" 1
 953 0026 C0FEE60A 		vminnm.f32 s1, s1, s13
 954              	@ 0 "" 2
 955              		.thumb
 956              		.syntax unified
 957 002a 67EEA00A 		vmul.f32	s1, s15, s1
 958 002e 80ED030A 		vstr.32	s0, [r0, #12]
 959 0032 C3ED030A 		vstr.32	s1, [r3, #12]
 960 0036 7047     		bx	lr
 961              	.L81:
 962              		.align	2
 963              	.L80:
 964 0038 00000000 		.word	0
 965 003c 7B146E3F 		.word	1064178811
 967              		.section	.text._ZN7daisysp6Chorus11SetLfoDepthEf,"ax",%progbits
 968              		.align	1
 969              		.p2align 2,,3
 970              		.global	_ZN7daisysp6Chorus11SetLfoDepthEf
 971              		.syntax unified
 972              		.thumb
 973              		.thumb_func
 974              		.fpu fpv5-d16
 976              	_ZN7daisysp6Chorus11SetLfoDepthEf:
 977              		@ args = 0, pretend = 0, frame = 0
 978              		@ frame_needed = 0, uses_anonymous_args = 0
 979              		@ link register save eliminated.
 980 0000 42F2A453 		movw	r3, #9636
 981 0004 9FED0A7A 		vldr.32	s14, .L83
 982 0008 DFED0A7A 		vldr.32	s15, .L83+4
 983 000c 0344     		add	r3, r3, r0
 984              		.syntax unified
 985              	@ 36 "Source/Utility/dsp.h" 1
 986 000e 80FE070A 		vmaxnm.f32 s0, s0, s14
 987              	@ 0 "" 2
 988              		.thumb
 989              		.syntax unified
 990 0012 90ED057A 		vldr.32	s14, [r0, #20]
 991              		.syntax unified
 992              	@ 47 "Source/Utility/dsp.h" 1
 993 0016 80FE670A 		vminnm.f32 s0, s0, s15
 994              	@ 0 "" 2
 995              		.thumb
 996              		.syntax unified
 997 001a D3ED057A 		vldr.32	s15, [r3, #20]
 998 001e 27EE007A 		vmul.f32	s14, s14, s0
 999 0022 27EE800A 		vmul.f32	s0, s15, s0
 1000 0026 80ED037A 		vstr.32	s14, [r0, #12]
ARM GAS  C:\Users\pedro\AppData\Local\Temp\cc8r8zr2.s 			page 18


 1001 002a 83ED030A 		vstr.32	s0, [r3, #12]
 1002 002e 7047     		bx	lr
 1003              	.L84:
 1004              		.align	2
 1005              	.L83:
 1006 0030 00000000 		.word	0
 1007 0034 7B146E3F 		.word	1064178811
 1009              		.section	.text._ZN7daisysp6Chorus10SetLfoFreqEff,"ax",%progbits
 1010              		.align	1
 1011              		.p2align 2,,3
 1012              		.global	_ZN7daisysp6Chorus10SetLfoFreqEff
 1013              		.syntax unified
 1014              		.thumb
 1015              		.thumb_func
 1016              		.fpu fpv5-d16
 1018              	_ZN7daisysp6Chorus10SetLfoFreqEff:
 1019              		@ args = 0, pretend = 0, frame = 0
 1020              		@ frame_needed = 0, uses_anonymous_args = 0
 1021              		@ link register save eliminated.
 1022 0000 F1EE007A 		vmov.f32	s15, #4.0e+0
 1023 0004 D0ED006A 		vldr.32	s13, [r0]
 1024 0008 90ED027A 		vldr.32	s14, [r0, #8]
 1025 000c 00F50053 		add	r3, r0, #8192
 1026 0010 BDEE006A 		vmov.f32	s12, #-2.5e-1
 1027 0014 20EE270A 		vmul.f32	s0, s0, s15
 1028 0018 03F2A452 		addw	r2, r3, #1444
 1029 001c B5EEC07A 		vcmpe.f32	s14, #0
 1030 0020 03F2A453 		addw	r3, r3, #1444
 1031 0024 B5EE007A 		vmov.f32	s14, #2.5e-1
 1032 0028 C0EE267A 		vdiv.f32	s15, s0, s13
 1033 002c F1EE006A 		vmov.f32	s13, #4.0e+0
 1034 0030 F1EE10FA 		vmrs	APSR_nzcv, FPSCR
 1035 0034 60EEA60A 		vmul.f32	s1, s1, s13
 1036 0038 D2ED006A 		vldr.32	s13, [r2]
 1037 003c 48BF     		it	mi
 1038 003e F1EE677A 		vnegmi.f32	s15, s15
 1039              		.syntax unified
 1040              	@ 36 "Source/Utility/dsp.h" 1
 1041 0042 C7FE867A 		vmaxnm.f32 s15, s15, s12
 1042              	@ 0 "" 2
 1043              	@ 47 "Source/Utility/dsp.h" 1
 1044 0046 C7FEC77A 		vminnm.f32 s15, s15, s14
 1045              	@ 0 "" 2
 1046              		.thumb
 1047              		.syntax unified
 1048 004a C0ED027A 		vstr.32	s15, [r0, #8]
 1049 004e C0EEA67A 		vdiv.f32	s15, s1, s13
 1050 0052 92ED027A 		vldr.32	s14, [r2, #8]
 1051 0056 B5EEC07A 		vcmpe.f32	s14, #0
 1052 005a FDEE006A 		vmov.f32	s13, #-2.5e-1
 1053 005e B5EE007A 		vmov.f32	s14, #2.5e-1
 1054 0062 F1EE10FA 		vmrs	APSR_nzcv, FPSCR
 1055 0066 48BF     		it	mi
 1056 0068 F1EE677A 		vnegmi.f32	s15, s15
 1057              		.syntax unified
 1058              	@ 36 "Source/Utility/dsp.h" 1
 1059 006c C7FEA67A 		vmaxnm.f32 s15, s15, s13
ARM GAS  C:\Users\pedro\AppData\Local\Temp\cc8r8zr2.s 			page 19


 1060              	@ 0 "" 2
 1061              	@ 47 "Source/Utility/dsp.h" 1
 1062 0070 C7FEC77A 		vminnm.f32 s15, s15, s14
 1063              	@ 0 "" 2
 1064              		.thumb
 1065              		.syntax unified
 1066 0074 C3ED027A 		vstr.32	s15, [r3, #8]
 1067 0078 7047     		bx	lr
 1069 007a 00BF     		.section	.text._ZN7daisysp6Chorus10SetLfoFreqEf,"ax",%progbits
 1070              		.align	1
 1071              		.p2align 2,,3
 1072              		.global	_ZN7daisysp6Chorus10SetLfoFreqEf
 1073              		.syntax unified
 1074              		.thumb
 1075              		.thumb_func
 1076              		.fpu fpv5-d16
 1078              	_ZN7daisysp6Chorus10SetLfoFreqEf:
 1079              		@ args = 0, pretend = 0, frame = 0
 1080              		@ frame_needed = 0, uses_anonymous_args = 0
 1081              		@ link register save eliminated.
 1082 0000 F1EE007A 		vmov.f32	s15, #4.0e+0
 1083 0004 D0ED006A 		vldr.32	s13, [r0]
 1084 0008 90ED027A 		vldr.32	s14, [r0, #8]
 1085 000c 00F50053 		add	r3, r0, #8192
 1086 0010 20EE270A 		vmul.f32	s0, s0, s15
 1087 0014 03F2A452 		addw	r2, r3, #1444
 1088 0018 B5EEC07A 		vcmpe.f32	s14, #0
 1089 001c 03F2A453 		addw	r3, r3, #1444
 1090 0020 B5EE007A 		vmov.f32	s14, #2.5e-1
 1091 0024 C0EE267A 		vdiv.f32	s15, s0, s13
 1092 0028 F1EE10FA 		vmrs	APSR_nzcv, FPSCR
 1093 002c FDEE006A 		vmov.f32	s13, #-2.5e-1
 1094 0030 48BF     		it	mi
 1095 0032 F1EE677A 		vnegmi.f32	s15, s15
 1096              		.syntax unified
 1097              	@ 36 "Source/Utility/dsp.h" 1
 1098 0036 C7FEA67A 		vmaxnm.f32 s15, s15, s13
 1099              	@ 0 "" 2
 1100              		.thumb
 1101              		.syntax unified
 1102 003a D2ED006A 		vldr.32	s13, [r2]
 1103              		.syntax unified
 1104              	@ 47 "Source/Utility/dsp.h" 1
 1105 003e C7FEC77A 		vminnm.f32 s15, s15, s14
 1106              	@ 0 "" 2
 1107              		.thumb
 1108              		.syntax unified
 1109 0042 C0ED027A 		vstr.32	s15, [r0, #8]
 1110 0046 C0EE267A 		vdiv.f32	s15, s0, s13
 1111 004a 92ED027A 		vldr.32	s14, [r2, #8]
 1112 004e B5EEC07A 		vcmpe.f32	s14, #0
 1113 0052 FDEE006A 		vmov.f32	s13, #-2.5e-1
 1114 0056 B5EE007A 		vmov.f32	s14, #2.5e-1
 1115 005a F1EE10FA 		vmrs	APSR_nzcv, FPSCR
 1116 005e 48BF     		it	mi
 1117 0060 F1EE677A 		vnegmi.f32	s15, s15
 1118              		.syntax unified
ARM GAS  C:\Users\pedro\AppData\Local\Temp\cc8r8zr2.s 			page 20


 1119              	@ 36 "Source/Utility/dsp.h" 1
 1120 0064 C7FEA67A 		vmaxnm.f32 s15, s15, s13
 1121              	@ 0 "" 2
 1122              	@ 47 "Source/Utility/dsp.h" 1
 1123 0068 C7FEC77A 		vminnm.f32 s15, s15, s14
 1124              	@ 0 "" 2
 1125              		.thumb
 1126              		.syntax unified
 1127 006c C3ED027A 		vstr.32	s15, [r3, #8]
 1128 0070 7047     		bx	lr
 1130 0072 00BF     		.section	.text._ZN7daisysp6Chorus8SetDelayEff,"ax",%progbits
 1131              		.align	1
 1132              		.p2align 2,,3
 1133              		.global	_ZN7daisysp6Chorus8SetDelayEff
 1134              		.syntax unified
 1135              		.thumb
 1136              		.thumb_func
 1137              		.fpu fpv5-d16
 1139              	_ZN7daisysp6Chorus8SetDelayEff:
 1140              		@ args = 0, pretend = 0, frame = 0
 1141              		@ frame_needed = 0, uses_anonymous_args = 0
 1142              		@ link register save eliminated.
 1143 0000 DFED187A 		vldr.32	s15, .L100
 1144 0004 42F2A453 		movw	r3, #9636
 1145 0008 9FED176A 		vldr.32	s12, .L100+4
 1146 000c F0EE676A 		vmov.f32	s13, s15
 1147 0010 DFED165A 		vldr.32	s11, .L100+8
 1148 0014 F0EE674A 		vmov.f32	s9, s15
 1149 0018 0344     		add	r3, r3, r0
 1150 001a 90ED005A 		vldr.32	s10, [r0]
 1151 001e E0EE256A 		vfma.f32	s13, s0, s11
 1152 0022 E0EEA54A 		vfma.f32	s9, s1, s11
 1153              		.syntax unified
 1154              	@ 36 "Source/Utility/dsp.h" 1
 1155 0026 87FEA67A 		vmaxnm.f32 s14, s15, s13
 1156              	@ 0 "" 2
 1157              	@ 36 "Source/Utility/dsp.h" 1
 1158 002a C7FEA47A 		vmaxnm.f32 s15, s15, s9
 1159              	@ 0 "" 2
 1160              		.thumb
 1161              		.syntax unified
 1162 002e 27EE067A 		vmul.f32	s14, s14, s12
 1163 0032 D0ED036A 		vldr.32	s13, [r0, #12]
 1164 0036 67EE867A 		vmul.f32	s15, s15, s12
 1165 003a 93ED006A 		vldr.32	s12, [r3]
 1166 003e 27EE057A 		vmul.f32	s14, s14, s10
 1167 0042 67EE867A 		vmul.f32	s15, s15, s12
 1168              		.syntax unified
 1169              	@ 47 "Source/Utility/dsp.h" 1
 1170 0046 C6FEC76A 		vminnm.f32 s13, s13, s14
 1171              	@ 0 "" 2
 1172              		.thumb
 1173              		.syntax unified
 1174 004a C0ED036A 		vstr.32	s13, [r0, #12]
 1175 004e D3ED036A 		vldr.32	s13, [r3, #12]
 1176 0052 80ED057A 		vstr.32	s14, [r0, #20]
 1177 0056 C3ED057A 		vstr.32	s15, [r3, #20]
ARM GAS  C:\Users\pedro\AppData\Local\Temp\cc8r8zr2.s 			page 21


 1178              		.syntax unified
 1179              	@ 47 "Source/Utility/dsp.h" 1
 1180 005a C6FEE77A 		vminnm.f32 s15, s13, s15
 1181              	@ 0 "" 2
 1182              		.thumb
 1183              		.syntax unified
 1184 005e C3ED037A 		vstr.32	s15, [r3, #12]
 1185 0062 7047     		bx	lr
 1186              	.L101:
 1187              		.align	2
 1188              	.L100:
 1189 0064 CDCCCC3D 		.word	1036831949
 1190 0068 6F12833A 		.word	981668463
 1191 006c CDCCFC40 		.word	1090309325
 1193              		.section	.text._ZN7daisysp6Chorus8SetDelayEf,"ax",%progbits
 1194              		.align	1
 1195              		.p2align 2,,3
 1196              		.global	_ZN7daisysp6Chorus8SetDelayEf
 1197              		.syntax unified
 1198              		.thumb
 1199              		.thumb_func
 1200              		.fpu fpv5-d16
 1202              	_ZN7daisysp6Chorus8SetDelayEf:
 1203              		@ args = 0, pretend = 0, frame = 0
 1204              		@ frame_needed = 0, uses_anonymous_args = 0
 1205              		@ link register save eliminated.
 1206 0000 DFED147A 		vldr.32	s15, .L103
 1207 0004 42F2A453 		movw	r3, #9636
 1208 0008 9FED136A 		vldr.32	s12, .L103+4
 1209 000c F0EE676A 		vmov.f32	s13, s15
 1210 0010 9FED127A 		vldr.32	s14, .L103+8
 1211 0014 0344     		add	r3, r3, r0
 1212 0016 E0EE066A 		vfma.f32	s13, s0, s12
 1213 001a 93ED006A 		vldr.32	s12, [r3]
 1214              		.syntax unified
 1215              	@ 36 "Source/Utility/dsp.h" 1
 1216 001e C7FEA67A 		vmaxnm.f32 s15, s15, s13
 1217              	@ 0 "" 2
 1218              		.thumb
 1219              		.syntax unified
 1220 0022 67EE877A 		vmul.f32	s15, s15, s14
 1221 0026 90ED007A 		vldr.32	s14, [r0]
 1222 002a D0ED036A 		vldr.32	s13, [r0, #12]
 1223 002e 27EE877A 		vmul.f32	s14, s15, s14
 1224 0032 67EE867A 		vmul.f32	s15, s15, s12
 1225              		.syntax unified
 1226              	@ 47 "Source/Utility/dsp.h" 1
 1227 0036 C6FEC76A 		vminnm.f32 s13, s13, s14
 1228              	@ 0 "" 2
 1229              		.thumb
 1230              		.syntax unified
 1231 003a C0ED036A 		vstr.32	s13, [r0, #12]
 1232 003e D3ED036A 		vldr.32	s13, [r3, #12]
 1233 0042 80ED057A 		vstr.32	s14, [r0, #20]
 1234 0046 C3ED057A 		vstr.32	s15, [r3, #20]
 1235              		.syntax unified
 1236              	@ 47 "Source/Utility/dsp.h" 1
ARM GAS  C:\Users\pedro\AppData\Local\Temp\cc8r8zr2.s 			page 22


 1237 004a C6FEE77A 		vminnm.f32 s15, s13, s15
 1238              	@ 0 "" 2
 1239              		.thumb
 1240              		.syntax unified
 1241 004e C3ED037A 		vstr.32	s15, [r3, #12]
 1242 0052 7047     		bx	lr
 1243              	.L104:
 1244              		.align	2
 1245              	.L103:
 1246 0054 CDCCCC3D 		.word	1036831949
 1247 0058 CDCCFC40 		.word	1090309325
 1248 005c 6F12833A 		.word	981668463
 1250              		.section	.text._ZN7daisysp6Chorus10SetDelayMsEff,"ax",%progbits
 1251              		.align	1
 1252              		.p2align 2,,3
 1253              		.global	_ZN7daisysp6Chorus10SetDelayMsEff
 1254              		.syntax unified
 1255              		.thumb
 1256              		.thumb_func
 1257              		.fpu fpv5-d16
 1259              	_ZN7daisysp6Chorus10SetDelayMsEff:
 1260              		@ args = 0, pretend = 0, frame = 0
 1261              		@ frame_needed = 0, uses_anonymous_args = 0
 1262              		@ link register save eliminated.
 1263 0000 42F2A453 		movw	r3, #9636
 1264 0004 9FED127A 		vldr.32	s14, .L106
 1265 0008 DFED127A 		vldr.32	s15, .L106+4
 1266 000c 0344     		add	r3, r3, r0
 1267 000e D0ED006A 		vldr.32	s13, [r0]
 1268              		.syntax unified
 1269              	@ 36 "Source/Utility/dsp.h" 1
 1270 0012 87FE800A 		vmaxnm.f32 s0, s15, s0
 1271              	@ 0 "" 2
 1272              	@ 36 "Source/Utility/dsp.h" 1
 1273 0016 C7FEA07A 		vmaxnm.f32 s15, s15, s1
 1274              	@ 0 "" 2
 1275              		.thumb
 1276              		.syntax unified
 1277 001a 20EE070A 		vmul.f32	s0, s0, s14
 1278 001e D3ED000A 		vldr.32	s1, [r3]
 1279 0022 67EE877A 		vmul.f32	s15, s15, s14
 1280 0026 90ED037A 		vldr.32	s14, [r0, #12]
 1281 002a 20EE260A 		vmul.f32	s0, s0, s13
 1282 002e 67EEA07A 		vmul.f32	s15, s15, s1
 1283              		.syntax unified
 1284              	@ 47 "Source/Utility/dsp.h" 1
 1285 0032 87FE407A 		vminnm.f32 s14, s14, s0
 1286              	@ 0 "" 2
 1287              		.thumb
 1288              		.syntax unified
 1289 0036 80ED037A 		vstr.32	s14, [r0, #12]
 1290 003a 93ED037A 		vldr.32	s14, [r3, #12]
 1291 003e 80ED050A 		vstr.32	s0, [r0, #20]
 1292 0042 C3ED057A 		vstr.32	s15, [r3, #20]
 1293              		.syntax unified
 1294              	@ 47 "Source/Utility/dsp.h" 1
 1295 0046 C7FE677A 		vminnm.f32 s15, s14, s15
ARM GAS  C:\Users\pedro\AppData\Local\Temp\cc8r8zr2.s 			page 23


 1296              	@ 0 "" 2
 1297              		.thumb
 1298              		.syntax unified
 1299 004a C3ED037A 		vstr.32	s15, [r3, #12]
 1300 004e 7047     		bx	lr
 1301              	.L107:
 1302              		.align	2
 1303              	.L106:
 1304 0050 6F12833A 		.word	981668463
 1305 0054 CDCCCC3D 		.word	1036831949
 1307              		.section	.text._ZN7daisysp6Chorus10SetDelayMsEf,"ax",%progbits
 1308              		.align	1
 1309              		.p2align 2,,3
 1310              		.global	_ZN7daisysp6Chorus10SetDelayMsEf
 1311              		.syntax unified
 1312              		.thumb
 1313              		.thumb_func
 1314              		.fpu fpv5-d16
 1316              	_ZN7daisysp6Chorus10SetDelayMsEf:
 1317              		@ args = 0, pretend = 0, frame = 0
 1318              		@ frame_needed = 0, uses_anonymous_args = 0
 1319              		@ link register save eliminated.
 1320 0000 42F2A453 		movw	r3, #9636
 1321 0004 9FED107A 		vldr.32	s14, .L109
 1322 0008 DFED107A 		vldr.32	s15, .L109+4
 1323 000c 0344     		add	r3, r3, r0
 1324              		.syntax unified
 1325              	@ 36 "Source/Utility/dsp.h" 1
 1326 000e 87FE800A 		vmaxnm.f32 s0, s15, s0
 1327              	@ 0 "" 2
 1328              		.thumb
 1329              		.syntax unified
 1330 0012 20EE070A 		vmul.f32	s0, s0, s14
 1331 0016 D0ED007A 		vldr.32	s15, [r0]
 1332 001a D3ED006A 		vldr.32	s13, [r3]
 1333 001e 90ED037A 		vldr.32	s14, [r0, #12]
 1334 0022 60EE277A 		vmul.f32	s15, s0, s15
 1335 0026 20EE260A 		vmul.f32	s0, s0, s13
 1336              		.syntax unified
 1337              	@ 47 "Source/Utility/dsp.h" 1
 1338 002a 87FE677A 		vminnm.f32 s14, s14, s15
 1339              	@ 0 "" 2
 1340              		.thumb
 1341              		.syntax unified
 1342 002e C0ED057A 		vstr.32	s15, [r0, #20]
 1343 0032 80ED037A 		vstr.32	s14, [r0, #12]
 1344 0036 83ED050A 		vstr.32	s0, [r3, #20]
 1345 003a D3ED037A 		vldr.32	s15, [r3, #12]
 1346              		.syntax unified
 1347              	@ 47 "Source/Utility/dsp.h" 1
 1348 003e 87FEC00A 		vminnm.f32 s0, s15, s0
 1349              	@ 0 "" 2
 1350              		.thumb
 1351              		.syntax unified
 1352 0042 83ED030A 		vstr.32	s0, [r3, #12]
 1353 0046 7047     		bx	lr
 1354              	.L110:
ARM GAS  C:\Users\pedro\AppData\Local\Temp\cc8r8zr2.s 			page 24


 1355              		.align	2
 1356              	.L109:
 1357 0048 6F12833A 		.word	981668463
 1358 004c CDCCCC3D 		.word	1036831949
 1360              		.section	.text._ZN7daisysp6Chorus11SetFeedbackEff,"ax",%progbits
 1361              		.align	1
 1362              		.p2align 2,,3
 1363              		.global	_ZN7daisysp6Chorus11SetFeedbackEff
 1364              		.syntax unified
 1365              		.thumb
 1366              		.thumb_func
 1367              		.fpu fpv5-d16
 1369              	_ZN7daisysp6Chorus11SetFeedbackEff:
 1370              		@ args = 0, pretend = 0, frame = 0
 1371              		@ frame_needed = 0, uses_anonymous_args = 0
 1372              		@ link register save eliminated.
 1373 0000 42F2A453 		movw	r3, #9636
 1374 0004 F7EE007A 		vmov.f32	s15, #1.0e+0
 1375 0008 9FED077A 		vldr.32	s14, .L112
 1376 000c 0344     		add	r3, r3, r0
 1377              		.syntax unified
 1378              	@ 36 "Source/Utility/dsp.h" 1
 1379 000e 80FE070A 		vmaxnm.f32 s0, s0, s14
 1380              	@ 0 "" 2
 1381              	@ 36 "Source/Utility/dsp.h" 1
 1382 0012 C0FE870A 		vmaxnm.f32 s1, s1, s14
 1383              	@ 0 "" 2
 1384              	@ 47 "Source/Utility/dsp.h" 1
 1385 0016 80FE670A 		vminnm.f32 s0, s0, s15
 1386              	@ 0 "" 2
 1387              	@ 47 "Source/Utility/dsp.h" 1
 1388 001a C0FEE70A 		vminnm.f32 s1, s1, s15
 1389              	@ 0 "" 2
 1390              		.thumb
 1391              		.syntax unified
 1392 001e 80ED040A 		vstr.32	s0, [r0, #16]
 1393 0022 C3ED040A 		vstr.32	s1, [r3, #16]
 1394 0026 7047     		bx	lr
 1395              	.L113:
 1396              		.align	2
 1397              	.L112:
 1398 0028 00000000 		.word	0
 1400              		.section	.text._ZN7daisysp6Chorus11SetFeedbackEf,"ax",%progbits
 1401              		.align	1
 1402              		.p2align 2,,3
 1403              		.global	_ZN7daisysp6Chorus11SetFeedbackEf
 1404              		.syntax unified
 1405              		.thumb
 1406              		.thumb_func
 1407              		.fpu fpv5-d16
 1409              	_ZN7daisysp6Chorus11SetFeedbackEf:
 1410              		@ args = 0, pretend = 0, frame = 0
 1411              		@ frame_needed = 0, uses_anonymous_args = 0
 1412              		@ link register save eliminated.
 1413 0000 42F2A453 		movw	r3, #9636
 1414 0004 F7EE007A 		vmov.f32	s15, #1.0e+0
 1415 0008 9FED057A 		vldr.32	s14, .L115
ARM GAS  C:\Users\pedro\AppData\Local\Temp\cc8r8zr2.s 			page 25


 1416 000c 0344     		add	r3, r3, r0
 1417              		.syntax unified
 1418              	@ 36 "Source/Utility/dsp.h" 1
 1419 000e 80FE070A 		vmaxnm.f32 s0, s0, s14
 1420              	@ 0 "" 2
 1421              	@ 47 "Source/Utility/dsp.h" 1
 1422 0012 80FE670A 		vminnm.f32 s0, s0, s15
 1423              	@ 0 "" 2
 1424              		.thumb
 1425              		.syntax unified
 1426 0016 80ED040A 		vstr.32	s0, [r0, #16]
 1427 001a 83ED040A 		vstr.32	s0, [r3, #16]
 1428 001e 7047     		bx	lr
 1429              	.L116:
 1430              		.align	2
 1431              	.L115:
 1432 0020 00000000 		.word	0
 1434              		.ident	"GCC: (GNU Arm Embedded Toolchain 10-2020-q4-major) 10.2.1 20201103 (release)"
ARM GAS  C:\Users\pedro\AppData\Local\Temp\cc8r8zr2.s 			page 26

