ARM GAS  C:\Users\pedro\AppData\Local\Temp\ccGap9UU.s 			page 1


   1              		.cpu cortex-m7
   2              		.eabi_attribute 28, 1
   3              		.eabi_attribute 20, 1
   4              		.eabi_attribute 21, 1
   5              		.eabi_attribute 23, 3
   6              		.eabi_attribute 24, 1
   7              		.eabi_attribute 25, 1
   8              		.eabi_attribute 26, 1
   9              		.eabi_attribute 30, 2
  10              		.eabi_attribute 34, 1
  11              		.eabi_attribute 18, 4
  12              		.file	"clockednoise.cpp"
  13              		.text
  14              		.section	.text._ZN7daisysp12ClockedNoise4InitEf,"ax",%progbits
  15              		.align	1
  16              		.p2align 2,,3
  17              		.global	_ZN7daisysp12ClockedNoise4InitEf
  18              		.arch armv7e-m
  19              		.syntax unified
  20              		.thumb
  21              		.thumb_func
  22              		.fpu fpv5-d16
  24              	_ZN7daisysp12ClockedNoise4InitEf:
  25              		@ args = 0, pretend = 0, frame = 0
  26              		@ frame_needed = 0, uses_anonymous_args = 0
  27              		@ link register save eliminated.
  28 0000 0023     		movs	r3, #0
  29 0002 044A     		ldr	r2, .L3
  30 0004 80ED040A 		vstr.32	s0, [r0, #16]
  31 0008 0360     		str	r3, [r0]	@ float
  32 000a 4360     		str	r3, [r0, #4]	@ float
  33 000c 8360     		str	r3, [r0, #8]	@ float
  34 000e C260     		str	r2, [r0, #12]	@ float
  35 0010 7047     		bx	lr
  36              	.L4:
  37 0012 00BF     		.align	2
  38              	.L3:
  39 0014 6F12833A 		.word	981668463
  41              		.section	.text._ZN7daisysp12ClockedNoise7ProcessEv,"ax",%progbits
  42              		.align	1
  43              		.p2align 2,,3
  44              		.global	_ZN7daisysp12ClockedNoise7ProcessEv
  45              		.syntax unified
  46              		.thumb
  47              		.thumb_func
  48              		.fpu fpv5-d16
  50              	_ZN7daisysp12ClockedNoise7ProcessEv:
  51              		@ args = 0, pretend = 0, frame = 0
  52              		@ frame_needed = 0, uses_anonymous_args = 0
  53 0000 10B5     		push	{r4, lr}
  54 0002 0446     		mov	r4, r0
  55 0004 2DED028B 		vpush.64	{d8}
  56 0008 90ED028A 		vldr.32	s16, [r0, #8]
  57 000c D0ED018A 		vldr.32	s17, [r0, #4]
  58 0010 FFF7FEFF 		bl	rand
  59 0014 D4ED034A 		vldr.32	s9, [r4, #12]
  60 0018 F7EE005A 		vmov.f32	s11, #1.0e+0
ARM GAS  C:\Users\pedro\AppData\Local\Temp\ccGap9UU.s 			page 2


  61 001c 94ED006A 		vldr.32	s12, [r4]
  62 0020 F5EE007A 		vmov.f32	s15, #2.5e-1
  63 0024 05EE100A 		vmov	s10, r0	@ int
  64 0028 F0EE003A 		vmov.f32	s7, #2.0e+0
  65 002c 34EE866A 		vadd.f32	s12, s9, s12
  66 0030 DFED226A 		vldr.32	s13, .L10
  67 0034 BAEEE05A 		vcvt.f32.s32	s10, s10, #31
  68 0038 BFEE007A 		vmov.f32	s14, #-1.0e+0
  69 003c B4EEE56A 		vcmpe.f32	s12, s11
  70 0040 74EEE77A 		vsub.f32	s15, s9, s15
  71 0044 B1EE004A 		vmov.f32	s8, #4.0e+0
  72 0048 F1EE10FA 		vmrs	APSR_nzcv, FPSCR
  73 004c A5EE237A 		vfma.f32	s14, s10, s7
  74 0050 67EE847A 		vmul.f32	s15, s15, s8
  75              		.syntax unified
  76              	@ 36 "Source/Utility/dsp.h" 1
  77 0054 C7FEA67A 		vmaxnm.f32 s15, s15, s13
  78              	@ 0 "" 2
  79              	@ 47 "Source/Utility/dsp.h" 1
  80 0058 C7FEE57A 		vminnm.f32 s15, s15, s11
  81              	@ 0 "" 2
  82              		.thumb
  83              		.syntax unified
  84 005c 2ADB     		blt	.L9
  85 005e 36EE656A 		vsub.f32	s12, s12, s11
  86 0062 BEEE005A 		vmov.f32	s10, #-5.0e-1
  87 0066 B6EE004A 		vmov.f32	s8, #5.0e-1
  88 006a C6EE243A 		vdiv.f32	s7, s12, s9
  89 006e 84ED006A 		vstr.32	s12, [r4]
  90 0072 37EE683A 		vsub.f32	s6, s14, s17
  91 0076 F0EE478A 		vmov.f32	s17, s14
  92 007a 75EEE35A 		vsub.f32	s11, s11, s7
  93 007e 63EE844A 		vmul.f32	s9, s7, s8
  94 0082 25EE856A 		vmul.f32	s12, s11, s10
  95 0086 24EEA35A 		vmul.f32	s10, s9, s7
  96 008a 66EE255A 		vmul.f32	s11, s12, s11
  97 008e A3EE058A 		vfma.f32	s16, s6, s10
  98 0092 E3EE256A 		vfma.f32	s13, s6, s11
  99              	.L7:
 100 0096 76EEA86A 		vadd.f32	s13, s13, s17
 101 009a C4ED018A 		vstr.32	s17, [r4, #4]
 102 009e 37EE487A 		vsub.f32	s14, s14, s16
 103 00a2 B0EE480A 		vmov.f32	s0, s16
 104 00a6 C4ED026A 		vstr.32	s13, [r4, #8]
 105 00aa BDEC028B 		vldm	sp!, {d8}
 106 00ae A7EE270A 		vfma.f32	s0, s14, s15
 107 00b2 10BD     		pop	{r4, pc}
 108              	.L9:
 109 00b4 84ED006A 		vstr.32	s12, [r4]
 110 00b8 EDE7     		b	.L7
 111              	.L11:
 112 00ba 00BF     		.align	2
 113              	.L10:
 114 00bc 00000000 		.word	0
 116              		.section	.text._ZN7daisysp12ClockedNoise7SetFreqEf,"ax",%progbits
 117              		.align	1
 118              		.p2align 2,,3
ARM GAS  C:\Users\pedro\AppData\Local\Temp\ccGap9UU.s 			page 3


 119              		.global	_ZN7daisysp12ClockedNoise7SetFreqEf
 120              		.syntax unified
 121              		.thumb
 122              		.thumb_func
 123              		.fpu fpv5-d16
 125              	_ZN7daisysp12ClockedNoise7SetFreqEf:
 126              		@ args = 0, pretend = 0, frame = 0
 127              		@ frame_needed = 0, uses_anonymous_args = 0
 128              		@ link register save eliminated.
 129 0000 90ED046A 		vldr.32	s12, [r0, #16]
 130 0004 B7EE007A 		vmov.f32	s14, #1.0e+0
 131 0008 DFED056A 		vldr.32	s13, .L13
 132 000c C0EE067A 		vdiv.f32	s15, s0, s12
 133              		.syntax unified
 134              	@ 36 "Source/Utility/dsp.h" 1
 135 0010 C7FEA67A 		vmaxnm.f32 s15, s15, s13
 136              	@ 0 "" 2
 137              	@ 47 "Source/Utility/dsp.h" 1
 138 0014 C7FEC77A 		vminnm.f32 s15, s15, s14
 139              	@ 0 "" 2
 140              		.thumb
 141              		.syntax unified
 142 0018 C0ED037A 		vstr.32	s15, [r0, #12]
 143 001c 7047     		bx	lr
 144              	.L14:
 145 001e 00BF     		.align	2
 146              	.L13:
 147 0020 00000000 		.word	0
 149              		.section	.text._ZN7daisysp12ClockedNoise4SyncEv,"ax",%progbits
 150              		.align	1
 151              		.p2align 2,,3
 152              		.global	_ZN7daisysp12ClockedNoise4SyncEv
 153              		.syntax unified
 154              		.thumb
 155              		.thumb_func
 156              		.fpu fpv5-d16
 158              	_ZN7daisysp12ClockedNoise4SyncEv:
 159              		@ args = 0, pretend = 0, frame = 0
 160              		@ frame_needed = 0, uses_anonymous_args = 0
 161              		@ link register save eliminated.
 162 0000 4FF07E53 		mov	r3, #1065353216
 163 0004 0360     		str	r3, [r0]	@ float
 164 0006 7047     		bx	lr
 166              		.ident	"GCC: (GNU Arm Embedded Toolchain 10-2020-q4-major) 10.2.1 20201103 (release)"
ARM GAS  C:\Users\pedro\AppData\Local\Temp\ccGap9UU.s 			page 4

