ARM GAS  C:\Users\pedro\AppData\Local\Temp\ccPR56Ku.s 			page 1


   1              		.cpu cortex-m7
   2              		.eabi_attribute 28, 1
   3              		.eabi_attribute 20, 1
   4              		.eabi_attribute 21, 1
   5              		.eabi_attribute 23, 3
   6              		.eabi_attribute 24, 1
   7              		.eabi_attribute 25, 1
   8              		.eabi_attribute 26, 1
   9              		.eabi_attribute 30, 2
  10              		.eabi_attribute 34, 1
  11              		.eabi_attribute 18, 4
  12              		.file	"decimator.cpp"
  13              		.text
  14              		.section	.text._ZN7daisysp9Decimator4InitEv,"ax",%progbits
  15              		.align	1
  16              		.p2align 2,,3
  17              		.global	_ZN7daisysp9Decimator4InitEv
  18              		.arch armv7e-m
  19              		.syntax unified
  20              		.thumb
  21              		.thumb_func
  22              		.fpu fpv5-d16
  24              	_ZN7daisysp9Decimator4InitEv:
  25              		@ args = 0, pretend = 0, frame = 0
  26              		@ frame_needed = 0, uses_anonymous_args = 0
  27              		@ link register save eliminated.
  28 0000 0023     		movs	r3, #0
  29 0002 4FF07E51 		mov	r1, #1065353216
  30 0006 0022     		movs	r2, #0
  31 0008 4160     		str	r1, [r0, #4]	@ float
  32 000a 8360     		str	r3, [r0, #8]	@ float
  33 000c 0361     		str	r3, [r0, #16]	@ float
  34 000e 4361     		str	r3, [r0, #20]	@ float
  35 0010 C0E90622 		strd	r2, r2, [r0, #24]
  36 0014 7047     		bx	lr
  38              		.section	.text._ZN7daisysp9Decimator7ProcessEf,"ax",%progbits
  39              		.align	1
  40              		.p2align 2,,3
  41              		.global	_ZN7daisysp9Decimator7ProcessEf
  42              		.syntax unified
  43              		.thumb
  44              		.thumb_func
  45              		.fpu fpv5-d16
  47              	_ZN7daisysp9Decimator7ProcessEf:
  48              		@ args = 0, pretend = 0, frame = 0
  49              		@ frame_needed = 0, uses_anonymous_args = 0
  50              		@ link register save eliminated.
  51 0000 D0ED017A 		vldr.32	s15, [r0, #4]
  52 0004 9FED127A 		vldr.32	s14, .L6
  53 0008 67EEA77A 		vmul.f32	s15, s15, s15
  54 000c 8269     		ldr	r2, [r0, #24]
  55 000e 0132     		adds	r2, r2, #1
  56 0010 67EE877A 		vmul.f32	s15, s15, s14
  57 0014 8261     		str	r2, [r0, #24]
  58 0016 FCEEE77A 		vcvt.u32.f32	s15, s15
  59 001a 17EE903A 		vmov	r3, s15	@ int
  60 001e C0ED077A 		vstr.32	s15, [r0, #28]	@ int
ARM GAS  C:\Users\pedro\AppData\Local\Temp\ccPR56Ku.s 			page 2


  61 0022 9342     		cmp	r3, r2
  62 0024 0FD3     		bcc	.L4
  63 0026 90ED040A 		vldr.32	s0, [r0, #16]
  64              	.L5:
  65 002a BEEEC80A 		vcvt.s32.f32	s0, s0, #16
  66 002e C268     		ldr	r2, [r0, #12]
  67 0030 10EE103A 		vmov	r3, s0	@ int
  68 0034 1341     		asrs	r3, r3, r2
  69 0036 9340     		lsls	r3, r3, r2
  70 0038 00EE103A 		vmov	s0, r3	@ int
  71 003c BAEEC80A 		vcvt.f32.s32	s0, s0, #16
  72 0040 80ED050A 		vstr.32	s0, [r0, #20]
  73 0044 7047     		bx	lr
  74              	.L4:
  75 0046 0023     		movs	r3, #0
  76 0048 80ED040A 		vstr.32	s0, [r0, #16]
  77 004c 8361     		str	r3, [r0, #24]
  78 004e ECE7     		b	.L5
  79              	.L7:
  80              		.align	2
  81              	.L6:
  82 0050 0000C042 		.word	1119879168
  84              		.ident	"GCC: (GNU Arm Embedded Toolchain 10-2020-q4-major) 10.2.1 20201103 (release)"
ARM GAS  C:\Users\pedro\AppData\Local\Temp\ccPR56Ku.s 			page 3


DEFINED SYMBOLS
                            *ABS*:00000000 decimator.cpp
C:\Users\pedro\AppData\Local\Temp\ccPR56Ku.s:15     .text._ZN7daisysp9Decimator4InitEv:00000000 $t
C:\Users\pedro\AppData\Local\Temp\ccPR56Ku.s:24     .text._ZN7daisysp9Decimator4InitEv:00000000 _ZN7daisysp9Decimator4InitEv
C:\Users\pedro\AppData\Local\Temp\ccPR56Ku.s:39     .text._ZN7daisysp9Decimator7ProcessEf:00000000 $t
C:\Users\pedro\AppData\Local\Temp\ccPR56Ku.s:47     .text._ZN7daisysp9Decimator7ProcessEf:00000000 _ZN7daisysp9Decimator7ProcessEf
C:\Users\pedro\AppData\Local\Temp\ccPR56Ku.s:82     .text._ZN7daisysp9Decimator7ProcessEf:00000050 $d

NO UNDEFINED SYMBOLS
