ARM GAS  C:\Users\pedro\AppData\Local\Temp\cclyti9A.s 			page 1


   1              		.cpu cortex-m7
   2              		.eabi_attribute 28, 1
   3              		.eabi_attribute 20, 1
   4              		.eabi_attribute 21, 1
   5              		.eabi_attribute 23, 3
   6              		.eabi_attribute 24, 1
   7              		.eabi_attribute 25, 1
   8              		.eabi_attribute 26, 1
   9              		.eabi_attribute 30, 2
  10              		.eabi_attribute 34, 1
  11              		.eabi_attribute 18, 4
  12              		.file	"flanger.cpp"
  13              		.text
  14              		.section	.text._ZN7daisysp7Flanger4InitEf,"ax",%progbits
  15              		.align	1
  16              		.p2align 2,,3
  17              		.global	_ZN7daisysp7Flanger4InitEf
  18              		.arch armv7e-m
  19              		.syntax unified
  20              		.thumb
  21              		.thumb_func
  22              		.fpu fpv5-d16
  24              	_ZN7daisysp7Flanger4InitEf:
  25              		@ args = 0, pretend = 0, frame = 0
  26              		@ frame_needed = 0, uses_anonymous_args = 0
  27 0000 9FED2C7A 		vldr.32	s14, .L7
  28 0004 F7EE006A 		vmov.f32	s13, #1.0e+0
  29 0008 DFED2B7A 		vldr.32	s15, .L7+4
  30 000c 4FF47062 		mov	r2, #3840
  31 0010 0021     		movs	r1, #0
  32 0012 10B5     		push	{r4, lr}
  33 0014 2DED028B 		vpush.64	{d8}
  34 0018 DFED288A 		vldr.32	s17, .L7+8
  35 001c 0446     		mov	r4, r0
  36              		.syntax unified
  37              	@ 36 "Source/Utility/dsp.h" 1
  38 001e C7FEA87A 		vmaxnm.f32 s15, s15, s17
  39              	@ 0 "" 2
  40              	@ 47 "Source/Utility/dsp.h" 1
  41 0022 C7FEE67A 		vminnm.f32 s15, s15, s13
  42              	@ 0 "" 2
  43              		.thumb
  44              		.syntax unified
  45 0026 67EE877A 		vmul.f32	s15, s15, s14
  46 002a 2430     		adds	r0, r0, #36
  47 002c B0EE408A 		vmov.f32	s16, s0
  48 0030 84ED000A 		vstr.32	s0, [r4]
  49 0034 C4ED017A 		vstr.32	s15, [r4, #4]
  50 0038 FFF7FEFF 		bl	memset
  51 003c 9FED206A 		vldr.32	s12, .L7+12
  52 0040 DFED206A 		vldr.32	s13, .L7+16
  53 0044 0022     		movs	r2, #0
  54 0046 DFED207A 		vldr.32	s15, .L7+20
  55 004a 0123     		movs	r3, #1
  56              		.syntax unified
  57              	@ 36 "Source/Utility/dsp.h" 1
  58 004c C7FEA67A 		vmaxnm.f32 s15, s15, s13
ARM GAS  C:\Users\pedro\AppData\Local\Temp\cclyti9A.s 			page 2


  59              	@ 0 "" 2
  60              		.thumb
  61              		.syntax unified
  62 0050 C6EE086A 		vdiv.f32	s13, s12, s16
  63 0054 9FED1D7A 		vldr.32	s14, .L7+24
  64 0058 9FED1D6A 		vldr.32	s12, .L7+28
  65 005c 9FED175A 		vldr.32	s10, .L7+8
  66 0060 C4ED028A 		vstr.32	s17, [r4, #8]
  67 0064 E261     		str	r2, [r4, #28]
  68 0066 67EE877A 		vmul.f32	s15, s15, s14
  69 006a 94ED037A 		vldr.32	s14, [r4, #12]
  70 006e FDEE005A 		vmov.f32	s11, #-2.5e-1
  71 0072 2362     		str	r3, [r4, #32]
  72 0074 B4EEE87A 		vcmpe.f32	s14, s17
  73 0078 9FED167A 		vldr.32	s14, .L7+32
  74 007c 67EE887A 		vmul.f32	s15, s15, s16
  75              		.syntax unified
  76              	@ 36 "Source/Utility/dsp.h" 1
  77 0080 87FE057A 		vmaxnm.f32 s14, s14, s10
  78              	@ 0 "" 2
  79              		.thumb
  80              		.syntax unified
  81 0084 F1EE10FA 		vmrs	APSR_nzcv, FPSCR
  82              		.syntax unified
  83              	@ 47 "Source/Utility/dsp.h" 1
  84 0088 87FE467A 		vminnm.f32 s14, s14, s12
  85              	@ 0 "" 2
  86              		.thumb
  87              		.syntax unified
  88 008c C4ED057A 		vstr.32	s15, [r4, #20]
  89 0090 67EE277A 		vmul.f32	s15, s14, s15
  90 0094 B5EE006A 		vmov.f32	s12, #2.5e-1
  91 0098 BDEC028B 		vldm	sp!, {d8}
  92 009c 48BF     		it	mi
  93 009e F1EE666A 		vnegmi.f32	s13, s13
  94 00a2 C4ED047A 		vstr.32	s15, [r4, #16]
  95              		.syntax unified
  96              	@ 36 "Source/Utility/dsp.h" 1
  97 00a6 86FEA57A 		vmaxnm.f32 s14, s13, s11
  98              	@ 0 "" 2
  99              	@ 47 "Source/Utility/dsp.h" 1
 100 00aa 87FE467A 		vminnm.f32 s14, s14, s12
 101              	@ 0 "" 2
 102              		.thumb
 103              		.syntax unified
 104 00ae 84ED037A 		vstr.32	s14, [r4, #12]
 105 00b2 10BD     		pop	{r4, pc}
 106              	.L8:
 107              		.align	2
 108              	.L7:
 109 00b4 EC51783F 		.word	1064849900
 110 00b8 CDCC4C3E 		.word	1045220557
 111 00bc 00000000 		.word	0
 112 00c0 9A99993F 		.word	1067030938
 113 00c4 CDCCA840 		.word	1084804301
 114 00c8 CDCCCC3D 		.word	1036831949
 115 00cc 6F12833A 		.word	981668463
ARM GAS  C:\Users\pedro\AppData\Local\Temp\cclyti9A.s 			page 3


 116 00d0 7B146E3F 		.word	1064178811
 117 00d4 6666663F 		.word	1063675494
 119              		.section	.text._ZN7daisysp7Flanger7ProcessEf,"ax",%progbits
 120              		.align	1
 121              		.p2align 2,,3
 122              		.global	_ZN7daisysp7Flanger7ProcessEf
 123              		.syntax unified
 124              		.thumb
 125              		.thumb_func
 126              		.fpu fpv5-d16
 128              	_ZN7daisysp7Flanger7ProcessEf:
 129              		@ args = 0, pretend = 0, frame = 0
 130              		@ frame_needed = 0, uses_anonymous_args = 0
 131 0000 D0ED037A 		vldr.32	s15, [r0, #12]
 132 0004 F7EE006A 		vmov.f32	s13, #1.0e+0
 133 0008 90ED027A 		vldr.32	s14, [r0, #8]
 134 000c 37EE877A 		vadd.f32	s14, s15, s14
 135 0010 30B5     		push	{r4, r5, lr}
 136 0012 B4EEE67A 		vcmpe.f32	s14, s13
 137 0016 F1EE10FA 		vmrs	APSR_nzcv, FPSCR
 138 001a 5DDD     		ble	.L15
 139 001c 37EE667A 		vsub.f32	s14, s14, s13
 140 0020 F1EE677A 		vneg.f32	s15, s15
 141 0024 36EEC77A 		vsub.f32	s14, s13, s14
 142 0028 C0ED037A 		vstr.32	s15, [r0, #12]
 143 002c 80ED027A 		vstr.32	s14, [r0, #8]
 144              	.L12:
 145 0030 F7EE007A 		vmov.f32	s15, #1.0e+0
 146 0034 90ED046A 		vldr.32	s12, [r0, #16]
 147 0038 D0ED056A 		vldr.32	s13, [r0, #20]
 148 003c 40F2BF33 		movw	r3, #959
 149 0040 C169     		ldr	r1, [r0, #28]
 150 0042 E6EE077A 		vfma.f32	s15, s12, s14
 151 0046 2D4A     		ldr	r2, .L18
 152 0048 00EB810E 		add	lr, r0, r1, lsl #2
 153 004c D0ED015A 		vldr.32	s11, [r0, #4]
 154 0050 B6EE006A 		vmov.f32	s12, #5.0e-1
 155 0054 77EEA67A 		vadd.f32	s15, s15, s13
 156 0058 BDEEE77A 		vcvt.s32.f32	s14, s15
 157 005c 17EE104A 		vmov	r4, s14	@ int
 158 0060 B8EEC77A 		vcvt.f32.s32	s14, s14
 159 0064 A342     		cmp	r3, r4
 160 0066 77EEC77A 		vsub.f32	s15, s15, s14
 161 006a 28BF     		it	cs
 162 006c 2346     		movcs	r3, r4
 163 006e 0362     		str	r3, [r0, #32]
 164 0070 0B44     		add	r3, r3, r1
 165 0072 01F2BF31 		addw	r1, r1, #959
 166 0076 C0ED067A 		vstr.32	s15, [r0, #24]
 167 007a A2FB0354 		umull	r5, r4, r2, r3
 168 007e 03F1010C 		add	ip, r3, #1
 169 0082 640A     		lsrs	r4, r4, #9
 170 0084 C4EB0414 		rsb	r4, r4, r4, lsl #4
 171 0088 A3EB8413 		sub	r3, r3, r4, lsl #6
 172 008c 00EB8303 		add	r3, r0, r3, lsl #2
 173 0090 93ED097A 		vldr.32	s14, [r3, #36]
 174 0094 A2FB0C43 		umull	r4, r3, r2, ip
ARM GAS  C:\Users\pedro\AppData\Local\Temp\cclyti9A.s 			page 4


 175 0098 A2FB0142 		umull	r4, r2, r2, r1
 176 009c 5B0A     		lsrs	r3, r3, #9
 177 009e 520A     		lsrs	r2, r2, #9
 178 00a0 C3EB0313 		rsb	r3, r3, r3, lsl #4
 179 00a4 C2EB0212 		rsb	r2, r2, r2, lsl #4
 180 00a8 ACEB831C 		sub	ip, ip, r3, lsl #6
 181 00ac A1EB8212 		sub	r2, r1, r2, lsl #6
 182 00b0 00EB8C0C 		add	ip, r0, ip, lsl #2
 183 00b4 DCED096A 		vldr.32	s13, [ip, #36]
 184 00b8 76EEC76A 		vsub.f32	s13, s13, s14
 185 00bc A6EEA77A 		vfma.f32	s14, s13, s15
 186 00c0 F0EE407A 		vmov.f32	s15, s0
 187 00c4 E5EE877A 		vfma.f32	s15, s11, s14
 188 00c8 30EE070A 		vadd.f32	s0, s0, s14
 189 00cc 20EE060A 		vmul.f32	s0, s0, s12
 190 00d0 CEED097A 		vstr.32	s15, [lr, #36]
 191 00d4 C261     		str	r2, [r0, #28]
 192 00d6 30BD     		pop	{r4, r5, pc}
 193              	.L15:
 194 00d8 BFEE006A 		vmov.f32	s12, #-1.0e+0
 195 00dc B4EEC67A 		vcmpe.f32	s14, s12
 196 00e0 F1EE10FA 		vmrs	APSR_nzcv, FPSCR
 197 00e4 07D5     		bpl	.L17
 198 00e6 37EE267A 		vadd.f32	s14, s14, s13
 199 00ea F1EE677A 		vneg.f32	s15, s15
 200 00ee 36EE477A 		vsub.f32	s14, s12, s14
 201 00f2 C0ED037A 		vstr.32	s15, [r0, #12]
 202              	.L17:
 203 00f6 80ED027A 		vstr.32	s14, [r0, #8]
 204 00fa 99E7     		b	.L12
 205              	.L19:
 206              		.align	2
 207              	.L18:
 208 00fc 89888888 		.word	-2004318071
 210              		.section	.text._ZN7daisysp7Flanger11SetFeedbackEf,"ax",%progbits
 211              		.align	1
 212              		.p2align 2,,3
 213              		.global	_ZN7daisysp7Flanger11SetFeedbackEf
 214              		.syntax unified
 215              		.thumb
 216              		.thumb_func
 217              		.fpu fpv5-d16
 219              	_ZN7daisysp7Flanger11SetFeedbackEf:
 220              		@ args = 0, pretend = 0, frame = 0
 221              		@ frame_needed = 0, uses_anonymous_args = 0
 222              		@ link register save eliminated.
 223 0000 DFED077A 		vldr.32	s15, .L21
 224 0004 B7EE007A 		vmov.f32	s14, #1.0e+0
 225 0008 DFED066A 		vldr.32	s13, .L21+4
 226              		.syntax unified
 227              	@ 36 "Source/Utility/dsp.h" 1
 228 000c 80FE260A 		vmaxnm.f32 s0, s0, s13
 229              	@ 0 "" 2
 230              	@ 47 "Source/Utility/dsp.h" 1
 231 0010 80FE470A 		vminnm.f32 s0, s0, s14
 232              	@ 0 "" 2
 233              		.thumb
ARM GAS  C:\Users\pedro\AppData\Local\Temp\cclyti9A.s 			page 5


 234              		.syntax unified
 235 0014 20EE270A 		vmul.f32	s0, s0, s15
 236 0018 80ED010A 		vstr.32	s0, [r0, #4]
 237 001c 7047     		bx	lr
 238              	.L22:
 239 001e 00BF     		.align	2
 240              	.L21:
 241 0020 EC51783F 		.word	1064849900
 242 0024 00000000 		.word	0
 244              		.section	.text._ZN7daisysp7Flanger11SetLfoDepthEf,"ax",%progbits
 245              		.align	1
 246              		.p2align 2,,3
 247              		.global	_ZN7daisysp7Flanger11SetLfoDepthEf
 248              		.syntax unified
 249              		.thumb
 250              		.thumb_func
 251              		.fpu fpv5-d16
 253              	_ZN7daisysp7Flanger11SetLfoDepthEf:
 254              		@ args = 0, pretend = 0, frame = 0
 255              		@ frame_needed = 0, uses_anonymous_args = 0
 256              		@ link register save eliminated.
 257 0000 DFED077A 		vldr.32	s15, .L24
 258              		.syntax unified
 259              	@ 36 "Source/Utility/dsp.h" 1
 260 0004 80FE270A 		vmaxnm.f32 s0, s0, s15
 261              	@ 0 "" 2
 262              		.thumb
 263              		.syntax unified
 264 0008 D0ED057A 		vldr.32	s15, [r0, #20]
 265 000c 9FED057A 		vldr.32	s14, .L24+4
 266              		.syntax unified
 267              	@ 47 "Source/Utility/dsp.h" 1
 268 0010 80FE470A 		vminnm.f32 s0, s0, s14
 269              	@ 0 "" 2
 270              		.thumb
 271              		.syntax unified
 272 0014 27EE800A 		vmul.f32	s0, s15, s0
 273 0018 80ED040A 		vstr.32	s0, [r0, #16]
 274 001c 7047     		bx	lr
 275              	.L25:
 276 001e 00BF     		.align	2
 277              	.L24:
 278 0020 00000000 		.word	0
 279 0024 7B146E3F 		.word	1064178811
 281              		.section	.text._ZN7daisysp7Flanger10SetLfoFreqEf,"ax",%progbits
 282              		.align	1
 283              		.p2align 2,,3
 284              		.global	_ZN7daisysp7Flanger10SetLfoFreqEf
 285              		.syntax unified
 286              		.thumb
 287              		.thumb_func
 288              		.fpu fpv5-d16
 290              	_ZN7daisysp7Flanger10SetLfoFreqEf:
 291              		@ args = 0, pretend = 0, frame = 0
 292              		@ frame_needed = 0, uses_anonymous_args = 0
 293              		@ link register save eliminated.
 294 0000 F1EE007A 		vmov.f32	s15, #4.0e+0
ARM GAS  C:\Users\pedro\AppData\Local\Temp\cclyti9A.s 			page 6


 295 0004 D0ED006A 		vldr.32	s13, [r0]
 296 0008 90ED037A 		vldr.32	s14, [r0, #12]
 297 000c 20EE270A 		vmul.f32	s0, s0, s15
 298 0010 B5EEC07A 		vcmpe.f32	s14, #0
 299 0014 B5EE007A 		vmov.f32	s14, #2.5e-1
 300 0018 C0EE267A 		vdiv.f32	s15, s0, s13
 301 001c F1EE10FA 		vmrs	APSR_nzcv, FPSCR
 302 0020 FDEE006A 		vmov.f32	s13, #-2.5e-1
 303 0024 48BF     		it	mi
 304 0026 F1EE677A 		vnegmi.f32	s15, s15
 305              		.syntax unified
 306              	@ 36 "Source/Utility/dsp.h" 1
 307 002a C7FEA67A 		vmaxnm.f32 s15, s15, s13
 308              	@ 0 "" 2
 309              	@ 47 "Source/Utility/dsp.h" 1
 310 002e C7FEC77A 		vminnm.f32 s15, s15, s14
 311              	@ 0 "" 2
 312              		.thumb
 313              		.syntax unified
 314 0032 C0ED037A 		vstr.32	s15, [r0, #12]
 315 0036 7047     		bx	lr
 317              		.section	.text._ZN7daisysp7Flanger8SetDelayEf,"ax",%progbits
 318              		.align	1
 319              		.p2align 2,,3
 320              		.global	_ZN7daisysp7Flanger8SetDelayEf
 321              		.syntax unified
 322              		.thumb
 323              		.thumb_func
 324              		.fpu fpv5-d16
 326              	_ZN7daisysp7Flanger8SetDelayEf:
 327              		@ args = 0, pretend = 0, frame = 0
 328              		@ frame_needed = 0, uses_anonymous_args = 0
 329              		@ link register save eliminated.
 330 0000 9FED0F5B 		vldr.64	d5, .L31
 331 0004 9FED106B 		vldr.64	d6, .L31+8
 332 0008 B7EEC00A 		vcvt.f64.f32	d0, s0
 333 000c DFED104A 		vldr.32	s9, .L31+16
 334 0010 9FED107A 		vldr.32	s14, .L31+20
 335 0014 A0EE056B 		vfma.f64	d6, d0, d5
 336 0018 90ED005A 		vldr.32	s10, [r0]
 337 001c D0ED045A 		vldr.32	s11, [r0, #16]
 338 0020 F7EEC67B 		vcvt.f32.f64	s15, d6
 339              		.syntax unified
 340              	@ 36 "Source/Utility/dsp.h" 1
 341 0024 C7FE277A 		vmaxnm.f32 s15, s14, s15
 342              	@ 0 "" 2
 343              		.thumb
 344              		.syntax unified
 345 0028 67EEA47A 		vmul.f32	s15, s15, s9
 346 002c 67EE857A 		vmul.f32	s15, s15, s10
 347              		.syntax unified
 348              	@ 47 "Source/Utility/dsp.h" 1
 349 0030 85FEE77A 		vminnm.f32 s14, s11, s15
 350              	@ 0 "" 2
 351              		.thumb
 352              		.syntax unified
 353 0034 80ED047A 		vstr.32	s14, [r0, #16]
ARM GAS  C:\Users\pedro\AppData\Local\Temp\cclyti9A.s 			page 7


 354 0038 C0ED057A 		vstr.32	s15, [r0, #20]
 355 003c 7047     		bx	lr
 356              	.L32:
 357 003e 00BF     		.align	3
 358              	.L31:
 359 0040 9A999999 		.word	-1717986918
 360 0044 99991B40 		.word	1075550617
 361 0048 000000A0 		.word	-1610612736
 362 004c 9999B93F 		.word	1069128089
 363 0050 6F12833A 		.word	981668463
 364 0054 CDCCCC3D 		.word	1036831949
 366              		.section	.text._ZN7daisysp7Flanger10SetDelayMsEf,"ax",%progbits
 367              		.align	1
 368              		.p2align 2,,3
 369              		.global	_ZN7daisysp7Flanger10SetDelayMsEf
 370              		.syntax unified
 371              		.thumb
 372              		.thumb_func
 373              		.fpu fpv5-d16
 375              	_ZN7daisysp7Flanger10SetDelayMsEf:
 376              		@ args = 0, pretend = 0, frame = 0
 377              		@ frame_needed = 0, uses_anonymous_args = 0
 378              		@ link register save eliminated.
 379 0000 9FED0A7A 		vldr.32	s14, .L34
 380 0004 DFED0A7A 		vldr.32	s15, .L34+4
 381              		.syntax unified
 382              	@ 36 "Source/Utility/dsp.h" 1
 383 0008 87FE800A 		vmaxnm.f32 s0, s15, s0
 384              	@ 0 "" 2
 385              		.thumb
 386              		.syntax unified
 387 000c 20EE070A 		vmul.f32	s0, s0, s14
 388 0010 90ED007A 		vldr.32	s14, [r0]
 389 0014 D0ED047A 		vldr.32	s15, [r0, #16]
 390 0018 20EE070A 		vmul.f32	s0, s0, s14
 391              		.syntax unified
 392              	@ 47 "Source/Utility/dsp.h" 1
 393 001c C7FEC07A 		vminnm.f32 s15, s15, s0
 394              	@ 0 "" 2
 395              		.thumb
 396              		.syntax unified
 397 0020 C0ED047A 		vstr.32	s15, [r0, #16]
 398 0024 80ED050A 		vstr.32	s0, [r0, #20]
 399 0028 7047     		bx	lr
 400              	.L35:
 401 002a 00BF     		.align	2
 402              	.L34:
 403 002c 6F12833A 		.word	981668463
 404 0030 CDCCCC3D 		.word	1036831949
 406              		.section	.text._ZN7daisysp7Flanger10ProcessLfoEv,"ax",%progbits
 407              		.align	1
 408              		.p2align 2,,3
 409              		.global	_ZN7daisysp7Flanger10ProcessLfoEv
 410              		.syntax unified
 411              		.thumb
 412              		.thumb_func
 413              		.fpu fpv5-d16
ARM GAS  C:\Users\pedro\AppData\Local\Temp\cclyti9A.s 			page 8


 415              	_ZN7daisysp7Flanger10ProcessLfoEv:
 416              		@ args = 0, pretend = 0, frame = 0
 417              		@ frame_needed = 0, uses_anonymous_args = 0
 418              		@ link register save eliminated.
 419 0000 90ED037A 		vldr.32	s14, [r0, #12]
 420 0004 B7EE000A 		vmov.f32	s0, #1.0e+0
 421 0008 D0ED027A 		vldr.32	s15, [r0, #8]
 422 000c 77EE277A 		vadd.f32	s15, s14, s15
 423 0010 F4EEC07A 		vcmpe.f32	s15, s0
 424 0014 F1EE10FA 		vmrs	APSR_nzcv, FPSCR
 425 0018 0EDD     		ble	.L42
 426 001a 77EEC07A 		vsub.f32	s15, s15, s0
 427 001e B1EE477A 		vneg.f32	s14, s14
 428 0022 70EE677A 		vsub.f32	s15, s0, s15
 429 0026 90ED040A 		vldr.32	s0, [r0, #16]
 430 002a 80ED037A 		vstr.32	s14, [r0, #12]
 431 002e 27EE800A 		vmul.f32	s0, s15, s0
 432 0032 C0ED027A 		vstr.32	s15, [r0, #8]
 433 0036 7047     		bx	lr
 434              	.L42:
 435 0038 FFEE006A 		vmov.f32	s13, #-1.0e+0
 436 003c F4EEE67A 		vcmpe.f32	s15, s13
 437 0040 F1EE10FA 		vmrs	APSR_nzcv, FPSCR
 438 0044 07D5     		bpl	.L43
 439 0046 77EE807A 		vadd.f32	s15, s15, s0
 440 004a B1EE477A 		vneg.f32	s14, s14
 441 004e 76EEE77A 		vsub.f32	s15, s13, s15
 442 0052 80ED037A 		vstr.32	s14, [r0, #12]
 443              	.L43:
 444 0056 90ED040A 		vldr.32	s0, [r0, #16]
 445 005a C0ED027A 		vstr.32	s15, [r0, #8]
 446 005e 27EE800A 		vmul.f32	s0, s15, s0
 447 0062 7047     		bx	lr
 449              		.ident	"GCC: (GNU Arm Embedded Toolchain 10-2020-q4-major) 10.2.1 20201103 (release)"
ARM GAS  C:\Users\pedro\AppData\Local\Temp\cclyti9A.s 			page 9

