ARM GAS  C:\Users\pedro\AppData\Local\Temp\ccuk1RB9.s 			page 1


   1              		.cpu cortex-m7
   2              		.eabi_attribute 28, 1
   3              		.eabi_attribute 20, 1
   4              		.eabi_attribute 21, 1
   5              		.eabi_attribute 23, 3
   6              		.eabi_attribute 24, 1
   7              		.eabi_attribute 25, 1
   8              		.eabi_attribute 26, 1
   9              		.eabi_attribute 30, 2
  10              		.eabi_attribute 34, 1
  11              		.eabi_attribute 18, 4
  12              		.file	"formantosc.cpp"
  13              		.text
  14              		.section	.text._ZN7daisysp17FormantOscillator4InitEf,"ax",%progbits
  15              		.align	1
  16              		.p2align 2,,3
  17              		.global	_ZN7daisysp17FormantOscillator4InitEf
  18              		.arch armv7e-m
  19              		.syntax unified
  20              		.thumb
  21              		.thumb_func
  22              		.fpu fpv5-d16
  24              	_ZN7daisysp17FormantOscillator4InitEf:
  25              		@ args = 0, pretend = 0, frame = 0
  26              		@ frame_needed = 0, uses_anonymous_args = 0
  27              		@ link register save eliminated.
  28 0000 0023     		movs	r3, #0
  29 0002 054A     		ldr	r2, .L3
  30 0004 80ED070A 		vstr.32	s0, [r0, #28]
  31 0008 0360     		str	r3, [r0]	@ float
  32 000a 4360     		str	r3, [r0, #4]	@ float
  33 000c 8360     		str	r3, [r0, #8]	@ float
  34 000e C360     		str	r3, [r0, #12]	@ float
  35 0010 0261     		str	r2, [r0, #16]	@ float
  36 0012 4361     		str	r3, [r0, #20]	@ float
  37 0014 7047     		bx	lr
  38              	.L4:
  39 0016 00BF     		.align	2
  40              	.L3:
  41 0018 0000C842 		.word	1120403456
  43              		.section	.text._ZN7daisysp17FormantOscillator7ProcessEv,"ax",%progbits
  44              		.align	1
  45              		.p2align 2,,3
  46              		.global	_ZN7daisysp17FormantOscillator7ProcessEv
  47              		.syntax unified
  48              		.thumb
  49              		.thumb_func
  50              		.fpu fpv5-d16
  52              	_ZN7daisysp17FormantOscillator7ProcessEv:
  53              		@ args = 0, pretend = 0, frame = 0
  54              		@ frame_needed = 0, uses_anonymous_args = 0
  55 0000 D0ED007A 		vldr.32	s15, [r0]
  56 0004 B7EE007A 		vmov.f32	s14, #1.0e+0
  57 0008 D0ED036A 		vldr.32	s13, [r0, #12]
  58 000c 76EEA77A 		vadd.f32	s15, s13, s15
  59 0010 10B5     		push	{r4, lr}
  60 0012 F4EEC77A 		vcmpe.f32	s15, s14
ARM GAS  C:\Users\pedro\AppData\Local\Temp\ccuk1RB9.s 			page 2


  61 0016 0446     		mov	r4, r0
  62 0018 C0ED007A 		vstr.32	s15, [r0]
  63 001c F1EE10FA 		vmrs	APSR_nzcv, FPSCR
  64 0020 2DED0A8B 		vpush.64	{d8, d9, d10, d11, d12}
  65 0024 90ED02AA 		vldr.32	s20, [r0, #8]
  66 0028 56DB     		blt	.L11
  67 002a 77EEC77A 		vsub.f32	s15, s15, s14
  68 002e 90ED048A 		vldr.32	s16, [r0, #16]
  69 0032 90ED010A 		vldr.32	s0, [r0, #4]
  70 0036 90ED059A 		vldr.32	s18, [r0, #20]
  71 003a 87EEA6BA 		vdiv.f32	s22, s15, s13
  72 003e D0ED06AA 		vldr.32	s21, [r0, #24]
  73 0042 9FED35CA 		vldr.32	s24, .L14
  74 0046 DFED359A 		vldr.32	s19, .L14+4
  75 004a C0ED007A 		vstr.32	s15, [r0]
  76 004e 77EE4B8A 		vsub.f32	s17, s14, s22
  77 0052 A8EE880A 		vfma.f32	s0, s17, s16
  78 0056 39EE000A 		vadd.f32	s0, s18, s0
  79 005a A8EEAA0A 		vfma.f32	s0, s17, s21
  80 005e 20EE0C0A 		vmul.f32	s0, s0, s24
  81 0062 FFF7FEFF 		bl	sinf
  82 0066 79EE297A 		vadd.f32	s15, s18, s19
  83 006a F0EE40BA 		vmov.f32	s23, s0
  84 006e 37EEAA0A 		vadd.f32	s0, s15, s21
  85 0072 20EE0C0A 		vmul.f32	s0, s0, s24
  86 0076 FFF7FEFF 		bl	sinf
  87 007a F6EE006A 		vmov.f32	s13, #5.0e-1
  88 007e BEEE007A 		vmov.f32	s14, #-5.0e-1
  89 0082 30EE6B0A 		vsub.f32	s0, s0, s23
  90 0086 6BEE266A 		vmul.f32	s13, s22, s13
  91 008a 28EE877A 		vmul.f32	s14, s17, s14
  92 008e 68EE0B7A 		vmul.f32	s15, s16, s22
  93 0092 66EE8B6A 		vmul.f32	s13, s13, s22
  94 0096 27EE287A 		vmul.f32	s14, s14, s17
  95 009a C4ED017A 		vstr.32	s15, [r4, #4]
  96 009e A6EE80AA 		vfma.f32	s20, s13, s0
  97 00a2 E0EE079A 		vfma.f32	s19, s0, s14
  98              	.L8:
  99 00a6 39EE2A9A 		vadd.f32	s18, s18, s21
 100 00aa 0023     		movs	r3, #0
 101 00ac 9FED1A0A 		vldr.32	s0, .L14
 102 00b0 A361     		str	r3, [r4, #24]	@ float
 103 00b2 79EE277A 		vadd.f32	s15, s18, s15
 104 00b6 84ED059A 		vstr.32	s18, [r4, #20]
 105 00ba 27EE800A 		vmul.f32	s0, s15, s0
 106 00be FFF7FEFF 		bl	sinf
 107 00c2 F0EE407A 		vmov.f32	s15, s0
 108 00c6 B0EE4A0A 		vmov.f32	s0, s20
 109 00ca 79EEA77A 		vadd.f32	s15, s19, s15
 110 00ce BDEC0A8B 		vldm	sp!, {d8-d12}
 111 00d2 C4ED027A 		vstr.32	s15, [r4, #8]
 112 00d6 10BD     		pop	{r4, pc}
 113              	.L11:
 114 00d8 D0ED017A 		vldr.32	s15, [r0, #4]
 115 00dc 90ED040A 		vldr.32	s0, [r0, #16]
 116 00e0 77EE807A 		vadd.f32	s15, s15, s0
 117 00e4 F4EEC77A 		vcmpe.f32	s15, s14
ARM GAS  C:\Users\pedro\AppData\Local\Temp\ccuk1RB9.s 			page 3


 118 00e8 C0ED017A 		vstr.32	s15, [r0, #4]
 119 00ec F1EE10FA 		vmrs	APSR_nzcv, FPSCR
 120 00f0 0ADB     		blt	.L13
 121 00f2 77EEC77A 		vsub.f32	s15, s15, s14
 122 00f6 90ED059A 		vldr.32	s18, [r0, #20]
 123 00fa D0ED06AA 		vldr.32	s21, [r0, #24]
 124 00fe DFED079A 		vldr.32	s19, .L14+4
 125 0102 C0ED017A 		vstr.32	s15, [r0, #4]
 126 0106 CEE7     		b	.L8
 127              	.L13:
 128 0108 90ED059A 		vldr.32	s18, [r0, #20]
 129 010c D0ED06AA 		vldr.32	s21, [r0, #24]
 130 0110 DFED029A 		vldr.32	s19, .L14+4
 131 0114 C7E7     		b	.L8
 132              	.L15:
 133 0116 00BF     		.align	2
 134              	.L14:
 135 0118 DB0FC940 		.word	1086918619
 136 011c 00000000 		.word	0
 138              		.section	.text._ZN7daisysp17FormantOscillator14SetFormantFreqEf,"ax",%progbits
 139              		.align	1
 140              		.p2align 2,,3
 141              		.global	_ZN7daisysp17FormantOscillator14SetFormantFreqEf
 142              		.syntax unified
 143              		.thumb
 144              		.thumb_func
 145              		.fpu fpv5-d16
 147              	_ZN7daisysp17FormantOscillator14SetFormantFreqEf:
 148              		@ args = 0, pretend = 0, frame = 0
 149              		@ frame_needed = 0, uses_anonymous_args = 0
 150              		@ link register save eliminated.
 151 0000 D0ED076A 		vldr.32	s13, [r0, #28]
 152 0004 B5EE007A 		vmov.f32	s14, #2.5e-1
 153 0008 C0EE267A 		vdiv.f32	s15, s0, s13
 154 000c F4EEC77A 		vcmpe.f32	s15, s14
 155 0010 F1EE10FA 		vmrs	APSR_nzcv, FPSCR
 156 0014 0BDA     		bge	.L18
 157 0016 BDEE007A 		vmov.f32	s14, #-2.5e-1
 158 001a F4EE477A 		vcmp.f32	s15, s14
 159 001e F1EE10FA 		vmrs	APSR_nzcv, FPSCR
 160 0022 98BF     		it	ls
 161 0024 F0EE477A 		vmovls.f32	s15, s14
 162 0028 C0ED047A 		vstr.32	s15, [r0, #16]
 163 002c 7047     		bx	lr
 164              	.L18:
 165 002e F0EE477A 		vmov.f32	s15, s14
 166 0032 C0ED047A 		vstr.32	s15, [r0, #16]
 167 0036 7047     		bx	lr
 169              		.section	.text._ZN7daisysp17FormantOscillator14SetCarrierFreqEf,"ax",%progbits
 170              		.align	1
 171              		.p2align 2,,3
 172              		.global	_ZN7daisysp17FormantOscillator14SetCarrierFreqEf
 173              		.syntax unified
 174              		.thumb
 175              		.thumb_func
 176              		.fpu fpv5-d16
 178              	_ZN7daisysp17FormantOscillator14SetCarrierFreqEf:
ARM GAS  C:\Users\pedro\AppData\Local\Temp\ccuk1RB9.s 			page 4


 179              		@ args = 0, pretend = 0, frame = 0
 180              		@ frame_needed = 0, uses_anonymous_args = 0
 181              		@ link register save eliminated.
 182 0000 D0ED076A 		vldr.32	s13, [r0, #28]
 183 0004 B5EE007A 		vmov.f32	s14, #2.5e-1
 184 0008 C0EE267A 		vdiv.f32	s15, s0, s13
 185 000c F4EEC77A 		vcmpe.f32	s15, s14
 186 0010 F1EE10FA 		vmrs	APSR_nzcv, FPSCR
 187 0014 0BDA     		bge	.L22
 188 0016 BDEE007A 		vmov.f32	s14, #-2.5e-1
 189 001a F4EE477A 		vcmp.f32	s15, s14
 190 001e F1EE10FA 		vmrs	APSR_nzcv, FPSCR
 191 0022 98BF     		it	ls
 192 0024 F0EE477A 		vmovls.f32	s15, s14
 193 0028 C0ED037A 		vstr.32	s15, [r0, #12]
 194 002c 7047     		bx	lr
 195              	.L22:
 196 002e F0EE477A 		vmov.f32	s15, s14
 197 0032 C0ED037A 		vstr.32	s15, [r0, #12]
 198 0036 7047     		bx	lr
 200              		.section	.text._ZN7daisysp17FormantOscillator13SetPhaseShiftEf,"ax",%progbits
 201              		.align	1
 202              		.p2align 2,,3
 203              		.global	_ZN7daisysp17FormantOscillator13SetPhaseShiftEf
 204              		.syntax unified
 205              		.thumb
 206              		.thumb_func
 207              		.fpu fpv5-d16
 209              	_ZN7daisysp17FormantOscillator13SetPhaseShiftEf:
 210              		@ args = 0, pretend = 0, frame = 0
 211              		@ frame_needed = 0, uses_anonymous_args = 0
 212              		@ link register save eliminated.
 213 0000 D0ED057A 		vldr.32	s15, [r0, #20]
 214 0004 30EE670A 		vsub.f32	s0, s0, s15
 215 0008 80ED060A 		vstr.32	s0, [r0, #24]
 216 000c 7047     		bx	lr
 218 000e 00BF     		.ident	"GCC: (GNU Arm Embedded Toolchain 10-2020-q4-major) 10.2.1 20201103 (release)"
ARM GAS  C:\Users\pedro\AppData\Local\Temp\ccuk1RB9.s 			page 5

