ARM GAS  C:\Users\pedro\AppData\Local\Temp\ccLkRq9g.s 			page 1


   1              		.cpu cortex-m7
   2              		.eabi_attribute 28, 1
   3              		.eabi_attribute 20, 1
   4              		.eabi_attribute 21, 1
   5              		.eabi_attribute 23, 3
   6              		.eabi_attribute 24, 1
   7              		.eabi_attribute 25, 1
   8              		.eabi_attribute 26, 1
   9              		.eabi_attribute 30, 2
  10              		.eabi_attribute 34, 1
  11              		.eabi_attribute 18, 4
  12              		.file	"grainlet.cpp"
  13              		.text
  14              		.section	.text._ZN7daisysp18GrainletOscillator4InitEf,"ax",%progbits
  15              		.align	1
  16              		.p2align 2,,3
  17              		.global	_ZN7daisysp18GrainletOscillator4InitEf
  18              		.arch armv7e-m
  19              		.syntax unified
  20              		.thumb
  21              		.thumb_func
  22              		.fpu fpv5-d16
  24              	_ZN7daisysp18GrainletOscillator4InitEf:
  25              		@ args = 0, pretend = 0, frame = 0
  26              		@ frame_needed = 0, uses_anonymous_args = 0
  27              		@ link register save eliminated.
  28 0000 9FED137A 		vldr.32	s14, .L7
  29 0004 F6EE007A 		vmov.f32	s15, #5.0e-1
  30 0008 9FED126A 		vldr.32	s12, .L7+4
  31 000c 0023     		movs	r3, #0
  32 000e C7EE006A 		vdiv.f32	s13, s14, s0
  33 0012 80ED090A 		vstr.32	s0, [r0, #36]
  34 0016 0360     		str	r3, [r0]	@ float
  35 0018 4360     		str	r3, [r0, #4]	@ float
  36 001a 8360     		str	r3, [r0, #8]	@ float
  37 001c 4361     		str	r3, [r0, #20]	@ float
  38 001e 86EE007A 		vdiv.f32	s14, s12, s0
  39 0022 8361     		str	r3, [r0, #24]	@ float
  40 0024 C0ED077A 		vstr.32	s15, [r0, #28]
  41 0028 C0ED087A 		vstr.32	s15, [r0, #32]
  42 002c F4EE676A 		vcmp.f32	s13, s15
  43 0030 F1EE10FA 		vmrs	APSR_nzcv, FPSCR
  44 0034 B4EE677A 		vcmp.f32	s14, s15
  45 0038 77FEA66A 		vselgt.f32	s13, s15, s13
  46 003c C0ED036A 		vstr.32	s13, [r0, #12]
  47 0040 F1EE10FA 		vmrs	APSR_nzcv, FPSCR
  48 0044 37FE877A 		vselgt.f32	s14, s15, s14
  49 0048 80ED047A 		vstr.32	s14, [r0, #16]
  50 004c 7047     		bx	lr
  51              	.L8:
  52 004e 00BF     		.align	2
  53              	.L7:
  54 0050 0000DC43 		.word	1138491392
  55 0054 00005C43 		.word	1130102784
  57              		.section	.text._ZN7daisysp18GrainletOscillator7SetFreqEf,"ax",%progbits
  58              		.align	1
  59              		.p2align 2,,3
ARM GAS  C:\Users\pedro\AppData\Local\Temp\ccLkRq9g.s 			page 2


  60              		.global	_ZN7daisysp18GrainletOscillator7SetFreqEf
  61              		.syntax unified
  62              		.thumb
  63              		.thumb_func
  64              		.fpu fpv5-d16
  66              	_ZN7daisysp18GrainletOscillator7SetFreqEf:
  67              		@ args = 0, pretend = 0, frame = 0
  68              		@ frame_needed = 0, uses_anonymous_args = 0
  69              		@ link register save eliminated.
  70 0000 D0ED096A 		vldr.32	s13, [r0, #36]
  71 0004 B6EE007A 		vmov.f32	s14, #5.0e-1
  72 0008 C0EE267A 		vdiv.f32	s15, s0, s13
  73 000c F4EE477A 		vcmp.f32	s15, s14
  74 0010 F1EE10FA 		vmrs	APSR_nzcv, FPSCR
  75 0014 77FE277A 		vselgt.f32	s15, s14, s15
  76 0018 C0ED037A 		vstr.32	s15, [r0, #12]
  77 001c 7047     		bx	lr
  79 001e 00BF     		.section	.text._ZN7daisysp18GrainletOscillator14SetFormantFreqEf,"ax",%progbits
  80              		.align	1
  81              		.p2align 2,,3
  82              		.global	_ZN7daisysp18GrainletOscillator14SetFormantFreqEf
  83              		.syntax unified
  84              		.thumb
  85              		.thumb_func
  86              		.fpu fpv5-d16
  88              	_ZN7daisysp18GrainletOscillator14SetFormantFreqEf:
  89              		@ args = 0, pretend = 0, frame = 0
  90              		@ frame_needed = 0, uses_anonymous_args = 0
  91              		@ link register save eliminated.
  92 0000 D0ED096A 		vldr.32	s13, [r0, #36]
  93 0004 B6EE007A 		vmov.f32	s14, #5.0e-1
  94 0008 C0EE267A 		vdiv.f32	s15, s0, s13
  95 000c F4EE477A 		vcmp.f32	s15, s14
  96 0010 F1EE10FA 		vmrs	APSR_nzcv, FPSCR
  97 0014 77FE277A 		vselgt.f32	s15, s14, s15
  98 0018 C0ED047A 		vstr.32	s15, [r0, #16]
  99 001c 7047     		bx	lr
 101 001e 00BF     		.section	.text._ZN7daisysp18GrainletOscillator8SetShapeEf,"ax",%progbits
 102              		.align	1
 103              		.p2align 2,,3
 104              		.global	_ZN7daisysp18GrainletOscillator8SetShapeEf
 105              		.syntax unified
 106              		.thumb
 107              		.thumb_func
 108              		.fpu fpv5-d16
 110              	_ZN7daisysp18GrainletOscillator8SetShapeEf:
 111              		@ args = 0, pretend = 0, frame = 0
 112              		@ frame_needed = 0, uses_anonymous_args = 0
 113              		@ link register save eliminated.
 114 0000 80ED070A 		vstr.32	s0, [r0, #28]
 115 0004 7047     		bx	lr
 117 0006 00BF     		.section	.text._ZN7daisysp18GrainletOscillator8SetBleedEf,"ax",%progbits
 118              		.align	1
 119              		.p2align 2,,3
 120              		.global	_ZN7daisysp18GrainletOscillator8SetBleedEf
 121              		.syntax unified
 122              		.thumb
ARM GAS  C:\Users\pedro\AppData\Local\Temp\ccLkRq9g.s 			page 3


 123              		.thumb_func
 124              		.fpu fpv5-d16
 126              	_ZN7daisysp18GrainletOscillator8SetBleedEf:
 127              		@ args = 0, pretend = 0, frame = 0
 128              		@ frame_needed = 0, uses_anonymous_args = 0
 129              		@ link register save eliminated.
 130 0000 80ED080A 		vstr.32	s0, [r0, #32]
 131 0004 7047     		bx	lr
 133 0006 00BF     		.section	.text._ZN7daisysp18GrainletOscillator4SineEf,"ax",%progbits
 134              		.align	1
 135              		.p2align 2,,3
 136              		.global	_ZN7daisysp18GrainletOscillator4SineEf
 137              		.syntax unified
 138              		.thumb
 139              		.thumb_func
 140              		.fpu fpv5-d16
 142              	_ZN7daisysp18GrainletOscillator4SineEf:
 143              		@ args = 0, pretend = 0, frame = 0
 144              		@ frame_needed = 0, uses_anonymous_args = 0
 145              		@ link register save eliminated.
 146 0000 DFED027A 		vldr.32	s15, .L18
 147 0004 20EE270A 		vmul.f32	s0, s0, s15
 148 0008 FFF7FEBF 		b	sinf
 149              	.L19:
 150              		.align	2
 151              	.L18:
 152 000c DB0FC940 		.word	1086918619
 154              		.section	.text._ZN7daisysp18GrainletOscillator7CarrierEff,"ax",%progbits
 155              		.align	1
 156              		.p2align 2,,3
 157              		.global	_ZN7daisysp18GrainletOscillator7CarrierEff
 158              		.syntax unified
 159              		.thumb
 160              		.thumb_func
 161              		.fpu fpv5-d16
 163              	_ZN7daisysp18GrainletOscillator7CarrierEff:
 164              		@ args = 0, pretend = 0, frame = 0
 165              		@ frame_needed = 0, uses_anonymous_args = 0
 166 0000 F0EE087A 		vmov.f32	s15, #3.0e+0
 167 0004 08B5     		push	{r3, lr}
 168 0006 60EEA70A 		vmul.f32	s1, s1, s15
 169 000a 2DED028B 		vpush.64	{d8}
 170 000e FDEEE07A 		vcvt.s32.f32	s15, s1
 171 0012 B7EE008A 		vmov.f32	s16, #1.0e+0
 172 0016 B8EEE77A 		vcvt.f32.s32	s14, s15
 173 001a 17EE903A 		vmov	r3, s15	@ int
 174 001e 70EEC70A 		vsub.f32	s1, s1, s14
 175 0022 78EE600A 		vsub.f32	s1, s16, s1
 176 0026 ABB9     		cbnz	r3, .L21
 177 0028 60EEA07A 		vmul.f32	s15, s1, s1
 178 002c B2EE0E7A 		vmov.f32	s14, #1.5e+1
 179 0030 67EEA00A 		vmul.f32	s1, s15, s1
 180 0034 F0EE487A 		vmov.f32	s15, s16
 181 0038 E0EE877A 		vfma.f32	s15, s1, s14
 182 003c 27EE800A 		vmul.f32	s0, s15, s0
 183 0040 B4EEC80A 		vcmpe.f32	s0, s16
 184 0044 F1EE10FA 		vmrs	APSR_nzcv, FPSCR
ARM GAS  C:\Users\pedro\AppData\Local\Temp\ccLkRq9g.s 			page 4


 185 0048 2CDB     		blt	.L33
 186              	.L29:
 187 004a 9FED3B0A 		vldr.32	s0, .L35
 188 004e BDEC028B 		vldm	sp!, {d8}
 189 0052 08BD     		pop	{r3, pc}
 190              	.L21:
 191 0054 012B     		cmp	r3, #1
 192 0056 38D0     		beq	.L34
 193 0058 78EE600A 		vsub.f32	s1, s16, s1
 194 005c B2EE0D6A 		vmov.f32	s12, #1.45e+1
 195 0060 F6EE007A 		vmov.f32	s15, #5.0e-1
 196 0064 20EEA07A 		vmul.f32	s14, s1, s1
 197 0068 F5EE008A 		vmov.f32	s17, #2.5e-1
 198 006c F6EE086A 		vmov.f32	s13, #7.5e-1
 199 0070 67EE200A 		vmul.f32	s1, s14, s1
 200 0074 B0EE687A 		vmov.f32	s14, s17
 201 0078 E0EE867A 		vfma.f32	s15, s1, s12
 202 007c A7EE807A 		vfma.f32	s14, s15, s0
 203 0080 B4EEE67A 		vcmpe.f32	s14, s13
 204 0084 F1EE10FA 		vmrs	APSR_nzcv, FPSCR
 205 0088 DFDA     		bge	.L29
 206 008a 9FED2C0A 		vldr.32	s0, .L35+4
 207 008e 27EE000A 		vmul.f32	s0, s14, s0
 208 0092 FFF7FEFF 		bl	sinf
 209 0096 30EE080A 		vadd.f32	s0, s0, s16
 210 009a 20EE280A 		vmul.f32	s0, s0, s17
 211 009e BDEC028B 		vldm	sp!, {d8}
 212 00a2 08BD     		pop	{r3, pc}
 213              	.L33:
 214 00a4 B6EE087A 		vmov.f32	s14, #7.5e-1
 215 00a8 DFED247A 		vldr.32	s15, .L35+4
 216 00ac 30EE070A 		vadd.f32	s0, s0, s14
 217 00b0 20EE270A 		vmul.f32	s0, s0, s15
 218 00b4 FFF7FEFF 		bl	sinf
 219 00b8 F5EE007A 		vmov.f32	s15, #2.5e-1
 220 00bc 30EE080A 		vadd.f32	s0, s0, s16
 221 00c0 BDEC028B 		vldm	sp!, {d8}
 222 00c4 20EE270A 		vmul.f32	s0, s0, s15
 223 00c8 08BD     		pop	{r3, pc}
 224              	.L34:
 225 00ca 9FED1D7A 		vldr.32	s14, .L35+8
 226 00ce DFED1D7A 		vldr.32	s15, .L35+12
 227 00d2 20EE877A 		vmul.f32	s14, s1, s14
 228 00d6 27EE207A 		vmul.f32	s14, s14, s1
 229 00da E7EE207A 		vfma.f32	s15, s14, s1
 230 00de B4EEE70A 		vcmpe.f32	s0, s15
 231 00e2 F1EE10FA 		vmrs	APSR_nzcv, FPSCR
 232 00e6 1AD5     		bpl	.L31
 233 00e8 F6EE006A 		vmov.f32	s13, #5.0e-1
 234 00ec 86EEA77A 		vdiv.f32	s14, s13, s15
 235 00f0 27EE000A 		vmul.f32	s0, s14, s0
 236              	.L27:
 237 00f4 B6EE087A 		vmov.f32	s14, #7.5e-1
 238 00f8 DFED107A 		vldr.32	s15, .L35+4
 239 00fc 30EE070A 		vadd.f32	s0, s0, s14
 240 0100 20EE270A 		vmul.f32	s0, s0, s15
 241 0104 FFF7FEFF 		bl	sinf
ARM GAS  C:\Users\pedro\AppData\Local\Temp\ccLkRq9g.s 			page 5


 242 0108 B7EE007A 		vmov.f32	s14, #1.0e+0
 243 010c F5EE007A 		vmov.f32	s15, #2.5e-1
 244 0110 30EE070A 		vadd.f32	s0, s0, s14
 245 0114 BDEC028B 		vldm	sp!, {d8}
 246 0118 20EE270A 		vmul.f32	s0, s0, s15
 247 011c 08BD     		pop	{r3, pc}
 248              	.L31:
 249 011e B6EE007A 		vmov.f32	s14, #5.0e-1
 250 0122 30EE670A 		vsub.f32	s0, s0, s15
 251 0126 38EE678A 		vsub.f32	s16, s16, s15
 252 012a 60EE077A 		vmul.f32	s15, s0, s14
 253 012e 87EE880A 		vdiv.f32	s0, s15, s16
 254 0132 30EE070A 		vadd.f32	s0, s0, s14
 255 0136 DDE7     		b	.L27
 256              	.L36:
 257              		.align	2
 258              	.L35:
 259 0138 00000000 		.word	0
 260 013c DB0FC940 		.word	1086918619
 261 0140 EE7CFF3E 		.word	1056931054
 262 0144 6F12833A 		.word	981668463
 264              		.section	.text._ZN7daisysp18GrainletOscillator7ProcessEv,"ax",%progbits
 265              		.align	1
 266              		.p2align 2,,3
 267              		.global	_ZN7daisysp18GrainletOscillator7ProcessEv
 268              		.syntax unified
 269              		.thumb
 270              		.thumb_func
 271              		.fpu fpv5-d16
 273              	_ZN7daisysp18GrainletOscillator7ProcessEv:
 274              		@ args = 0, pretend = 0, frame = 0
 275              		@ frame_needed = 0, uses_anonymous_args = 0
 276 0000 10B5     		push	{r4, lr}
 277 0002 D0ED037A 		vldr.32	s15, [r0, #12]
 278 0006 0446     		mov	r4, r0
 279 0008 2DED0E8B 		vpush.64	{d8, d9, d10, d11, d12, d13, d14}
 280 000c 90ED008A 		vldr.32	s16, [r0]
 281 0010 F7EE008A 		vmov.f32	s17, #1.0e+0
 282 0014 90ED02DA 		vldr.32	s26, [r0, #8]
 283 0018 37EE888A 		vadd.f32	s16, s15, s16
 284 001c B4EEE88A 		vcmpe.f32	s16, s17
 285 0020 80ED008A 		vstr.32	s16, [r0]
 286 0024 F1EE10FA 		vmrs	APSR_nzcv, FPSCR
 287 0028 C0F28180 		blt	.L43
 288 002c 38EE688A 		vsub.f32	s16, s16, s17
 289 0030 90ED089A 		vldr.32	s18, [r0, #32]
 290 0034 90ED07AA 		vldr.32	s20, [r0, #28]
 291 0038 B0EE680A 		vmov.f32	s0, s17
 292 003c D0ED066A 		vldr.32	s13, [r0, #24]
 293 0040 F0EE49AA 		vmov.f32	s21, s18
 294 0044 88EE27CA 		vdiv.f32	s24, s16, s15
 295 0048 90ED057A 		vldr.32	s14, [r0, #20]
 296 004c 90ED046A 		vldr.32	s12, [r0, #16]
 297 0050 90ED01EA 		vldr.32	s28, [r0, #4]
 298 0054 80ED008A 		vstr.32	s16, [r0]
 299 0058 DFED45CA 		vldr.32	s25, .L46
 300 005c 7AEE477A 		vsub.f32	s15, s20, s14
ARM GAS  C:\Users\pedro\AppData\Local\Temp\ccLkRq9g.s 			page 6


 301 0060 39EE667A 		vsub.f32	s14, s18, s13
 302 0064 F0EE4A0A 		vmov.f32	s1, s20
 303 0068 39EE28BA 		vadd.f32	s22, s18, s17
 304 006c 78EECCBA 		vsub.f32	s23, s17, s24
 305 0070 66EE0C9A 		vmul.f32	s19, s12, s24
 306 0074 ABEE86EA 		vfma.f32	s28, s23, s12
 307 0078 EBEE87AA 		vfma.f32	s21, s23, s14
 308 007c EBEEA70A 		vfma.f32	s1, s23, s15
 309 0080 FFF7FEFF 		bl	_ZN7daisysp18GrainletOscillator7CarrierEff
 310 0084 DFED3B7A 		vldr.32	s15, .L46+4
 311 0088 F0EE40DA 		vmov.f32	s27, s0
 312 008c 2EEE270A 		vmul.f32	s0, s28, s15
 313 0090 FFF7FEFF 		bl	sinf
 314 0094 7AEE807A 		vadd.f32	s15, s21, s0
 315 0098 F0EE4A0A 		vmov.f32	s1, s20
 316 009c 2046     		mov	r0, r4
 317 009e B0EE6C0A 		vmov.f32	s0, s25
 318 00a2 7AEEA88A 		vadd.f32	s17, s21, s17
 319 00a6 67EEADAA 		vmul.f32	s21, s15, s27
 320 00aa FFF7FEFF 		bl	_ZN7daisysp18GrainletOscillator7CarrierEff
 321 00ae 79EE2C7A 		vadd.f32	s15, s18, s25
 322 00b2 C4ED019A 		vstr.32	s19, [r4, #4]
 323 00b6 F6EE006A 		vmov.f32	s13, #5.0e-1
 324 00ba CAEEA8DA 		vdiv.f32	s27, s21, s17
 325 00be 27EE800A 		vmul.f32	s0, s15, s0
 326 00c2 BEEE007A 		vmov.f32	s14, #-5.0e-1
 327 00c6 6CEE266A 		vmul.f32	s13, s24, s13
 328 00ca 80EE0B6A 		vdiv.f32	s12, s0, s22
 329 00ce 2BEE877A 		vmul.f32	s14, s23, s14
 330 00d2 66EE8C6A 		vmul.f32	s13, s13, s24
 331 00d6 27EE2B7A 		vmul.f32	s14, s14, s23
 332 00da 36EE6D6A 		vsub.f32	s12, s12, s27
 333 00de A6EE86DA 		vfma.f32	s26, s13, s12
 334 00e2 E6EE07CA 		vfma.f32	s25, s12, s14
 335              	.L40:
 336 00e6 F0EE4A0A 		vmov.f32	s1, s20
 337 00ea 2046     		mov	r0, r4
 338 00ec B0EE480A 		vmov.f32	s0, s16
 339 00f0 84ED069A 		vstr.32	s18, [r4, #24]
 340 00f4 84ED05AA 		vstr.32	s20, [r4, #20]
 341 00f8 FFF7FEFF 		bl	_ZN7daisysp18GrainletOscillator7CarrierEff
 342 00fc DFED1D7A 		vldr.32	s15, .L46+4
 343 0100 B0EE408A 		vmov.f32	s16, s0
 344 0104 29EEA70A 		vmul.f32	s0, s19, s15
 345 0108 FFF7FEFF 		bl	sinf
 346 010c B0EE407A 		vmov.f32	s14, s0
 347 0110 B0EE4D0A 		vmov.f32	s0, s26
 348 0114 37EE097A 		vadd.f32	s14, s14, s18
 349 0118 67EE087A 		vmul.f32	s15, s14, s16
 350 011c 87EE8B7A 		vdiv.f32	s14, s15, s22
 351 0120 77EE2C7A 		vadd.f32	s15, s14, s25
 352 0124 BDEC0E8B 		vldm	sp!, {d8-d14}
 353 0128 C4ED027A 		vstr.32	s15, [r4, #8]
 354 012c 10BD     		pop	{r4, pc}
 355              	.L43:
 356 012e D0ED019A 		vldr.32	s19, [r0, #4]
 357 0132 D0ED047A 		vldr.32	s15, [r0, #16]
ARM GAS  C:\Users\pedro\AppData\Local\Temp\ccLkRq9g.s 			page 7


 358 0136 90ED089A 		vldr.32	s18, [r0, #32]
 359 013a 79EEA79A 		vadd.f32	s19, s19, s15
 360 013e F4EEE89A 		vcmpe.f32	s19, s17
 361 0142 C0ED019A 		vstr.32	s19, [r0, #4]
 362 0146 F1EE10FA 		vmrs	APSR_nzcv, FPSCR
 363 014a 0ADB     		blt	.L45
 364 014c 79EEE89A 		vsub.f32	s19, s19, s17
 365 0150 90ED07AA 		vldr.32	s20, [r0, #28]
 366 0154 39EE28BA 		vadd.f32	s22, s18, s17
 367 0158 DFED05CA 		vldr.32	s25, .L46
 368 015c C0ED019A 		vstr.32	s19, [r0, #4]
 369 0160 C1E7     		b	.L40
 370              	.L45:
 371 0162 39EE28BA 		vadd.f32	s22, s18, s17
 372 0166 90ED07AA 		vldr.32	s20, [r0, #28]
 373 016a DFED01CA 		vldr.32	s25, .L46
 374 016e BAE7     		b	.L40
 375              	.L47:
 376              		.align	2
 377              	.L46:
 378 0170 00000000 		.word	0
 379 0174 DB0FC940 		.word	1086918619
 381              		.section	.text._ZN7daisysp18GrainletOscillator8GrainletEffff,"ax",%progbits
 382              		.align	1
 383              		.p2align 2,,3
 384              		.global	_ZN7daisysp18GrainletOscillator8GrainletEffff
 385              		.syntax unified
 386              		.thumb
 387              		.thumb_func
 388              		.fpu fpv5-d16
 390              	_ZN7daisysp18GrainletOscillator8GrainletEffff:
 391              		@ args = 0, pretend = 0, frame = 0
 392              		@ frame_needed = 0, uses_anonymous_args = 0
 393 0000 F0EE087A 		vmov.f32	s15, #3.0e+0
 394 0004 08B5     		push	{r3, lr}
 395 0006 21EE271A 		vmul.f32	s2, s2, s15
 396 000a 2DED048B 		vpush.64	{d8, d9}
 397 000e FDEEC17A 		vcvt.s32.f32	s15, s2
 398 0012 F7EE008A 		vmov.f32	s17, #1.0e+0
 399 0016 B0EE609A 		vmov.f32	s18, s1
 400 001a B8EEE77A 		vcvt.f32.s32	s14, s15
 401 001e 17EE903A 		vmov	r3, s15	@ int
 402 0022 B0EE618A 		vmov.f32	s16, s3
 403 0026 31EE471A 		vsub.f32	s2, s2, s14
 404 002a 38EEC11A 		vsub.f32	s2, s17, s2
 405 002e 2BBB     		cbnz	r3, .L49
 406 0030 61EE017A 		vmul.f32	s15, s2, s2
 407 0034 B2EE0E7A 		vmov.f32	s14, #1.5e+1
 408 0038 27EE811A 		vmul.f32	s2, s15, s2
 409 003c F0EE687A 		vmov.f32	s15, s17
 410 0040 E1EE077A 		vfma.f32	s15, s2, s14
 411 0044 20EE270A 		vmul.f32	s0, s0, s15
 412 0048 B4EEE80A 		vcmpe.f32	s0, s17
 413 004c F1EE10FA 		vmrs	APSR_nzcv, FPSCR
 414 0050 3ADB     		blt	.L61
 415              	.L57:
 416 0052 DFED409A 		vldr.32	s19, .L63
ARM GAS  C:\Users\pedro\AppData\Local\Temp\ccLkRq9g.s 			page 8


 417              	.L51:
 418 0056 9FED400A 		vldr.32	s0, .L63+4
 419 005a 29EE000A 		vmul.f32	s0, s18, s0
 420 005e FFF7FEFF 		bl	sinf
 421 0062 F7EE001A 		vmov.f32	s3, #1.0e+0
 422 0066 30EE080A 		vadd.f32	s0, s0, s16
 423 006a 38EE218A 		vadd.f32	s16, s16, s3
 424 006e 20EE290A 		vmul.f32	s0, s0, s19
 425 0072 80EE080A 		vdiv.f32	s0, s0, s16
 426 0076 BDEC048B 		vldm	sp!, {d8-d9}
 427 007a 08BD     		pop	{r3, pc}
 428              	.L49:
 429 007c 012B     		cmp	r3, #1
 430 007e 34D0     		beq	.L62
 431 0080 38EEC11A 		vsub.f32	s2, s17, s2
 432 0084 F2EE0D7A 		vmov.f32	s15, #1.45e+1
 433 0088 B6EE007A 		vmov.f32	s14, #5.0e-1
 434 008c 61EE016A 		vmul.f32	s13, s2, s2
 435 0090 F5EE009A 		vmov.f32	s19, #2.5e-1
 436 0094 B6EE086A 		vmov.f32	s12, #7.5e-1
 437 0098 26EE811A 		vmul.f32	s2, s13, s2
 438 009c A1EE277A 		vfma.f32	s14, s2, s15
 439 00a0 F0EE697A 		vmov.f32	s15, s19
 440 00a4 E0EE077A 		vfma.f32	s15, s0, s14
 441 00a8 F4EEC67A 		vcmpe.f32	s15, s12
 442 00ac F1EE10FA 		vmrs	APSR_nzcv, FPSCR
 443 00b0 CFDA     		bge	.L57
 444 00b2 9FED290A 		vldr.32	s0, .L63+4
 445 00b6 27EE800A 		vmul.f32	s0, s15, s0
 446 00ba FFF7FEFF 		bl	sinf
 447 00be 30EE280A 		vadd.f32	s0, s0, s17
 448 00c2 60EE299A 		vmul.f32	s19, s0, s19
 449 00c6 C6E7     		b	.L51
 450              	.L61:
 451 00c8 B6EE087A 		vmov.f32	s14, #7.5e-1
 452 00cc DFED227A 		vldr.32	s15, .L63+4
 453 00d0 30EE070A 		vadd.f32	s0, s0, s14
 454 00d4 20EE270A 		vmul.f32	s0, s0, s15
 455 00d8 FFF7FEFF 		bl	sinf
 456 00dc F5EE007A 		vmov.f32	s15, #2.5e-1
 457 00e0 30EE280A 		vadd.f32	s0, s0, s17
 458 00e4 60EE279A 		vmul.f32	s19, s0, s15
 459 00e8 B5E7     		b	.L51
 460              	.L62:
 461 00ea 9FED1C7A 		vldr.32	s14, .L63+8
 462 00ee DFED1C7A 		vldr.32	s15, .L63+12
 463 00f2 21EE077A 		vmul.f32	s14, s2, s14
 464 00f6 27EE017A 		vmul.f32	s14, s14, s2
 465 00fa E1EE077A 		vfma.f32	s15, s2, s14
 466 00fe B4EEE70A 		vcmpe.f32	s0, s15
 467 0102 F1EE10FA 		vmrs	APSR_nzcv, FPSCR
 468 0106 18D5     		bpl	.L59
 469 0108 F6EE006A 		vmov.f32	s13, #5.0e-1
 470 010c 86EEA77A 		vdiv.f32	s14, s13, s15
 471 0110 27EE000A 		vmul.f32	s0, s14, s0
 472              	.L55:
 473 0114 B6EE087A 		vmov.f32	s14, #7.5e-1
ARM GAS  C:\Users\pedro\AppData\Local\Temp\ccLkRq9g.s 			page 9


 474 0118 DFED0F7A 		vldr.32	s15, .L63+4
 475 011c F7EE008A 		vmov.f32	s17, #1.0e+0
 476 0120 30EE070A 		vadd.f32	s0, s0, s14
 477 0124 20EE270A 		vmul.f32	s0, s0, s15
 478 0128 FFF7FEFF 		bl	sinf
 479 012c F5EE007A 		vmov.f32	s15, #2.5e-1
 480 0130 30EE280A 		vadd.f32	s0, s0, s17
 481 0134 60EE279A 		vmul.f32	s19, s0, s15
 482 0138 8DE7     		b	.L51
 483              	.L59:
 484 013a B6EE007A 		vmov.f32	s14, #5.0e-1
 485 013e 30EE670A 		vsub.f32	s0, s0, s15
 486 0142 78EEE78A 		vsub.f32	s17, s17, s15
 487 0146 60EE077A 		vmul.f32	s15, s0, s14
 488 014a 87EEA80A 		vdiv.f32	s0, s15, s17
 489 014e 30EE070A 		vadd.f32	s0, s0, s14
 490 0152 DFE7     		b	.L55
 491              	.L64:
 492              		.align	2
 493              	.L63:
 494 0154 00000000 		.word	0
 495 0158 DB0FC940 		.word	1086918619
 496 015c EE7CFF3E 		.word	1056931054
 497 0160 6F12833A 		.word	981668463
 499              		.ident	"GCC: (GNU Arm Embedded Toolchain 10-2020-q4-major) 10.2.1 20201103 (release)"
ARM GAS  C:\Users\pedro\AppData\Local\Temp\ccLkRq9g.s 			page 10

