ARM GAS  C:\Users\pedro\AppData\Local\Temp\cc5NPTHM.s 			page 1


   1              		.cpu cortex-m7
   2              		.eabi_attribute 28, 1
   3              		.eabi_attribute 20, 1
   4              		.eabi_attribute 21, 1
   5              		.eabi_attribute 23, 3
   6              		.eabi_attribute 24, 1
   7              		.eabi_attribute 25, 1
   8              		.eabi_attribute 26, 1
   9              		.eabi_attribute 30, 2
  10              		.eabi_attribute 34, 1
  11              		.eabi_attribute 18, 4
  12              		.file	"hihat.cpp"
  13              		.text
  14              		.section	.text._ZN7daisysp11SquareNoise4InitEf,"ax",%progbits
  15              		.align	1
  16              		.p2align 2,,3
  17              		.global	_ZN7daisysp11SquareNoise4InitEf
  18              		.arch armv7e-m
  19              		.syntax unified
  20              		.thumb
  21              		.thumb_func
  22              		.fpu fpv5-d16
  24              	_ZN7daisysp11SquareNoise4InitEf:
  25              		@ args = 0, pretend = 0, frame = 0
  26              		@ frame_needed = 0, uses_anonymous_args = 0
  27              		@ link register save eliminated.
  28 0000 0023     		movs	r3, #0
  29 0002 C0E90033 		strd	r3, r3, [r0]
  30 0006 C0E90233 		strd	r3, r3, [r0, #8]
  31 000a C0E90433 		strd	r3, r3, [r0, #16]
  32 000e 7047     		bx	lr
  34              		.section	.text._ZN7daisysp11SquareNoise7ProcessEf,"ax",%progbits
  35              		.align	1
  36              		.p2align 2,,3
  37              		.global	_ZN7daisysp11SquareNoise7ProcessEf
  38              		.syntax unified
  39              		.thumb
  40              		.thumb_func
  41              		.fpu fpv5-d16
  43              	_ZN7daisysp11SquareNoise7ProcessEf:
  44              		@ args = 0, pretend = 0, frame = 24
  45              		@ frame_needed = 0, uses_anonymous_args = 0
  46 0000 DFED657A 		vldr.32	s15, .L21
  47 0004 8446     		mov	ip, r0
  48 0006 B4EEE70A 		vcmpe.f32	s0, s15
  49 000a 2DE9F047 		push	{r4, r5, r6, r7, r8, r9, r10, lr}
  50 000e F1EE10FA 		vmrs	APSR_nzcv, FPSCR
  51 0012 86B0     		sub	sp, sp, #24
  52 0014 80F2AA80 		bge	.L12
  53 0018 DFED607A 		vldr.32	s15, .L21+4
  54 001c 60EE277A 		vmul.f32	s15, s0, s15
  55 0020 FCEEE77A 		vcvt.u32.f32	s15, s15
  56 0024 17EE90AA 		vmov	r10, s15	@ int
  57              	.L4:
  58 0028 DFED5D7A 		vldr.32	s15, .L21+8
  59 002c 9FED5A7A 		vldr.32	s14, .L21
  60 0030 60EE277A 		vmul.f32	s15, s0, s15
ARM GAS  C:\Users\pedro\AppData\Local\Temp\cc5NPTHM.s 			page 2


  61 0034 F4EEC77A 		vcmpe.f32	s15, s14
  62 0038 F1EE10FA 		vmrs	APSR_nzcv, FPSCR
  63 003c 80F2AA80 		bge	.L13
  64 0040 9FED567A 		vldr.32	s14, .L21+4
  65 0044 67EE877A 		vmul.f32	s15, s15, s14
  66 0048 FCEEE77A 		vcvt.u32.f32	s15, s15
  67 004c 17EE904A 		vmov	r4, s15	@ int
  68              	.L5:
  69 0050 DFED547A 		vldr.32	s15, .L21+12
  70 0054 9FED507A 		vldr.32	s14, .L21
  71 0058 60EE277A 		vmul.f32	s15, s0, s15
  72 005c F4EEC77A 		vcmpe.f32	s15, s14
  73 0060 F1EE10FA 		vmrs	APSR_nzcv, FPSCR
  74 0064 80F29380 		bge	.L14
  75 0068 9FED4C7A 		vldr.32	s14, .L21+4
  76 006c 67EE877A 		vmul.f32	s15, s15, s14
  77 0070 FCEEE77A 		vcvt.u32.f32	s15, s15
  78 0074 17EE909A 		vmov	r9, s15	@ int
  79              	.L6:
  80 0078 DFED4B7A 		vldr.32	s15, .L21+16
  81 007c 9FED467A 		vldr.32	s14, .L21
  82 0080 60EE277A 		vmul.f32	s15, s0, s15
  83 0084 F4EEC77A 		vcmpe.f32	s15, s14
  84 0088 F1EE10FA 		vmrs	APSR_nzcv, FPSCR
  85 008c 7CDA     		bge	.L15
  86 008e 9FED437A 		vldr.32	s14, .L21+4
  87 0092 67EE877A 		vmul.f32	s15, s15, s14
  88 0096 FCEEE77A 		vcvt.u32.f32	s15, s15
  89 009a 17EE908A 		vmov	r8, s15	@ int
  90              	.L7:
  91 009e DFED437A 		vldr.32	s15, .L21+20
  92 00a2 9FED3D7A 		vldr.32	s14, .L21
  93 00a6 60EE277A 		vmul.f32	s15, s0, s15
  94 00aa F4EEC77A 		vcmpe.f32	s15, s14
  95 00ae F1EE10FA 		vmrs	APSR_nzcv, FPSCR
  96 00b2 67DA     		bge	.L16
  97 00b4 9FED397A 		vldr.32	s14, .L21+4
  98 00b8 67EE877A 		vmul.f32	s15, s15, s14
  99 00bc FCEEE77A 		vcvt.u32.f32	s15, s15
 100 00c0 17EE907A 		vmov	r7, s15	@ int
 101              	.L8:
 102 00c4 9FED3A7A 		vldr.32	s14, .L21+24
 103 00c8 DFED337A 		vldr.32	s15, .L21
 104 00cc 20EE070A 		vmul.f32	s0, s0, s14
 105 00d0 B4EEE70A 		vcmpe.f32	s0, s15
 106 00d4 F1EE10FA 		vmrs	APSR_nzcv, FPSCR
 107 00d8 4BDB     		blt	.L18
 108 00da 364D     		ldr	r5, .L21+28
 109              	.L11:
 110 00dc DCF80410 		ldr	r1, [ip, #4]	@ unaligned
 111 00e0 6E46     		mov	r6, sp
 112 00e2 DCF80000 		ldr	r0, [ip]	@ unaligned
 113 00e6 BFEE000A 		vmov.f32	s0, #-1.0e+0
 114 00ea DCF80820 		ldr	r2, [ip, #8]	@ unaligned
 115 00ee EE46     		mov	lr, sp
 116 00f0 DCF80C30 		ldr	r3, [ip, #12]	@ unaligned
 117 00f4 9FED307A 		vldr.32	s14, .L21+32
ARM GAS  C:\Users\pedro\AppData\Local\Temp\cc5NPTHM.s 			page 3


 118 00f8 0FC6     		stmia	r6!, {r0, r1, r2, r3}
 119 00fa 0B46     		mov	r3, r1
 120 00fc 009A     		ldr	r2, [sp]
 121 00fe DCF81000 		ldr	r0, [ip, #16]	@ unaligned
 122 0102 2344     		add	r3, r3, r4
 123 0104 5244     		add	r2, r2, r10
 124 0106 DCF81410 		ldr	r1, [ip, #20]	@ unaligned
 125 010a 0744     		add	r7, r7, r0
 126 010c 0193     		str	r3, [sp, #4]
 127 010e DB0F     		lsrs	r3, r3, #31
 128 0110 0092     		str	r2, [sp]
 129 0112 0D44     		add	r5, r5, r1
 130 0114 03EBD273 		add	r3, r3, r2, lsr #31
 131 0118 029A     		ldr	r2, [sp, #8]
 132 011a 4A44     		add	r2, r2, r9
 133 011c 0292     		str	r2, [sp, #8]
 134 011e 03EBD273 		add	r3, r3, r2, lsr #31
 135 0122 039A     		ldr	r2, [sp, #12]
 136 0124 4244     		add	r2, r2, r8
 137 0126 03EBD273 		add	r3, r3, r2, lsr #31
 138 012a 0392     		str	r2, [sp, #12]
 139 012c 03EBD773 		add	r3, r3, r7, lsr #31
 140 0130 03EBD573 		add	r3, r3, r5, lsr #31
 141 0134 07EE903A 		vmov	s15, r3	@ int
 142 0138 F8EEE77A 		vcvt.f32.s32	s15, s15
 143 013c 03C6     		stmia	r6!, {r0, r1}
 144 013e A7EE870A 		vfma.f32	s0, s15, s14
 145 0142 0497     		str	r7, [sp, #16]
 146 0144 0595     		str	r5, [sp, #20]
 147 0146 BEE80F00 		ldmia	lr!, {r0, r1, r2, r3}
 148 014a CCF80000 		str	r0, [ip]	@ unaligned
 149 014e CCF80410 		str	r1, [ip, #4]	@ unaligned
 150 0152 CCF80820 		str	r2, [ip, #8]	@ unaligned
 151 0156 CCF80C30 		str	r3, [ip, #12]	@ unaligned
 152 015a BEE80300 		ldmia	lr!, {r0, r1}
 153 015e CCF81000 		str	r0, [ip, #16]	@ unaligned
 154 0162 CCF81410 		str	r1, [ip, #20]	@ unaligned
 155 0166 06B0     		add	sp, sp, #24
 156              		@ sp needed
 157 0168 BDE8F087 		pop	{r4, r5, r6, r7, r8, r9, r10, pc}
 158              	.L12:
 159 016c DFF844A0 		ldr	r10, .L21+28
 160 0170 5AE7     		b	.L4
 161              	.L18:
 162 0172 DFED0A7A 		vldr.32	s15, .L21+4
 163 0176 20EE270A 		vmul.f32	s0, s0, s15
 164 017a FCEEC07A 		vcvt.u32.f32	s15, s0
 165 017e 17EE905A 		vmov	r5, s15	@ int
 166 0182 ABE7     		b	.L11
 167              	.L16:
 168 0184 0B4F     		ldr	r7, .L21+28
 169 0186 9DE7     		b	.L8
 170              	.L15:
 171 0188 DFF82880 		ldr	r8, .L21+28
 172 018c 87E7     		b	.L7
 173              	.L14:
 174 018e DFF82490 		ldr	r9, .L21+28
ARM GAS  C:\Users\pedro\AppData\Local\Temp\cc5NPTHM.s 			page 4


 175 0192 71E7     		b	.L6
 176              	.L13:
 177 0194 074C     		ldr	r4, .L21+28
 178 0196 5BE7     		b	.L5
 179              	.L22:
 180              		.align	2
 181              	.L21:
 182 0198 EE7CFF3E 		.word	1056931054
 183 019c 0000804F 		.word	1333788672
 184 01a0 79E9A63F 		.word	1067903353
 185 01a4 E3A5BB3F 		.word	1069262307
 186 01a8 6ABCE43F 		.word	1071955050
 187 01ac C74BF73F 		.word	1073171399
 188 01b0 D34D2240 		.word	1075989971
 189 01b4 0077BE7F 		.word	2143188736
 190 01b8 C3F5A83E 		.word	1051260355
 192              		.section	.text._ZN7daisysp12RingModNoise4InitEf,"ax",%progbits
 193              		.align	1
 194              		.p2align 2,,3
 195              		.global	_ZN7daisysp12RingModNoise4InitEf
 196              		.syntax unified
 197              		.thumb
 198              		.thumb_func
 199              		.fpu fpv5-d16
 201              	_ZN7daisysp12RingModNoise4InitEf:
 202              		@ args = 0, pretend = 0, frame = 0
 203              		@ frame_needed = 0, uses_anonymous_args = 0
 204 0000 2DE9F041 		push	{r4, r5, r6, r7, r8, lr}
 205 0004 DFF86480 		ldr	r8, .L28+4
 206 0008 0546     		mov	r5, r0
 207 000a 0027     		movs	r7, #0
 208 000c 0446     		mov	r4, r0
 209 000e 00F1F006 		add	r6, r0, #240
 210 0012 2DED028B 		vpush.64	{d8}
 211 0016 B7EE008A 		vmov.f32	s16, #1.0e+0
 212 001a 80ED3C0A 		vstr.32	s0, [r0, #240]
 213 001e 01E0     		b	.L25
 214              	.L27:
 215 0020 95ED3C0A 		vldr.32	s0, [r5, #240]
 216              	.L25:
 217 0024 C8EE007A 		vdiv.f32	s15, s16, s0
 218 0028 4FF07C53 		mov	r3, #1056964608
 219 002c 84ED030A 		vstr.32	s0, [r4, #12]
 220 0030 2046     		mov	r0, r4
 221 0032 6360     		str	r3, [r4, #4]	@ float
 222 0034 2834     		adds	r4, r4, #40
 223 0036 44F8208C 		str	r8, [r4, #-32]	@ float
 224 003a 44F8147C 		str	r7, [r4, #-20]	@ float
 225 003e 9FED0A0A 		vldr.32	s0, .L28
 226 0042 44ED067A 		vstr.32	s15, [r4, #-24]
 227 0046 FFF7FEFF 		bl	_ZN7daisysp10Oscillator12CalcPhaseIncEf
 228 004a 0022     		movs	r2, #0
 229 004c 40F20113 		movw	r3, #257
 230 0050 B442     		cmp	r4, r6
 231 0052 04ED040A 		vstr.32	s0, [r4, #-16]
 232 0056 04F8282C 		strb	r2, [r4, #-40]
 233 005a 24F8043C 		strh	r3, [r4, #-4]	@ movhi
ARM GAS  C:\Users\pedro\AppData\Local\Temp\cc5NPTHM.s 			page 5


 234 005e DFD1     		bne	.L27
 235 0060 BDEC028B 		vldm	sp!, {d8}
 236 0064 BDE8F081 		pop	{r4, r5, r6, r7, r8, pc}
 237              	.L29:
 238              		.align	2
 239              	.L28:
 240 0068 0000C842 		.word	1120403456
 241 006c 0000C842 		.word	1120403456
 243              		.section	.text._ZN7daisysp12RingModNoise7ProcessEf,"ax",%progbits
 244              		.align	1
 245              		.p2align 2,,3
 246              		.global	_ZN7daisysp12RingModNoise7ProcessEf
 247              		.syntax unified
 248              		.thumb
 249              		.thumb_func
 250              		.fpu fpv5-d16
 252              	_ZN7daisysp12RingModNoise7ProcessEf:
 253              		@ args = 0, pretend = 0, frame = 0
 254              		@ frame_needed = 0, uses_anonymous_args = 0
 255 0000 DFED546A 		vldr.32	s13, .L32
 256 0004 DFED543A 		vldr.32	s7, .L32+4
 257 0008 70EE266A 		vadd.f32	s13, s0, s13
 258 000c D0ED3C7A 		vldr.32	s15, [r0, #240]
 259 0010 9FED524A 		vldr.32	s8, .L32+8
 260 0014 DFED524A 		vldr.32	s9, .L32+12
 261 0018 80EE267A 		vdiv.f32	s14, s0, s13
 262 001c 9FED515A 		vldr.32	s10, .L32+16
 263 0020 DFED515A 		vldr.32	s11, .L32+20
 264 0024 9FED516A 		vldr.32	s12, .L32+24
 265 0028 83EEA70A 		vdiv.f32	s0, s7, s15
 266 002c 2DE9F041 		push	{r4, r5, r6, r7, r8, lr}
 267 0030 2DED068B 		vpush.64	{d8, d9, d10}
 268 0034 84EE27AA 		vdiv.f32	s20, s8, s15
 269 0038 0427     		movs	r7, #4
 270 003a 0446     		mov	r4, r0
 271 003c 0546     		mov	r5, r0
 272 003e 0226     		movs	r6, #2
 273 0040 0770     		strb	r7, [r0]
 274 0042 04F1A008 		add	r8, r4, #160
 275 0046 84EEA78A 		vdiv.f32	s16, s9, s15
 276 004a C5EE279A 		vdiv.f32	s19, s10, s15
 277 004e 85EEA79A 		vdiv.f32	s18, s11, s15
 278 0052 C6EE278A 		vdiv.f32	s17, s12, s15
 279 0056 20EE070A 		vmul.f32	s0, s0, s14
 280 005a 2AEE07AA 		vmul.f32	s20, s20, s14
 281 005e 28EE078A 		vmul.f32	s16, s16, s14
 282 0062 20EE270A 		vmul.f32	s0, s0, s15
 283 0066 69EE879A 		vmul.f32	s19, s19, s14
 284 006a 80ED020A 		vstr.32	s0, [r0, #8]
 285 006e 29EE079A 		vmul.f32	s18, s18, s14
 286 0072 68EE878A 		vmul.f32	s17, s17, s14
 287 0076 FFF7FEFF 		bl	_ZN7daisysp10Oscillator12CalcPhaseIncEf
 288 007a 2046     		mov	r0, r4
 289 007c 84ED060A 		vstr.32	s0, [r4, #24]
 290 0080 FFF7FEFF 		bl	_ZN7daisysp10Oscillator7ProcessEv
 291 0084 05F8286F 		strb	r6, [r5, #40]!
 292 0088 D4ED3C7A 		vldr.32	s15, [r4, #240]
ARM GAS  C:\Users\pedro\AppData\Local\Temp\cc5NPTHM.s 			page 6


 293 008c F0EE40AA 		vmov.f32	s21, s0
 294 0090 2846     		mov	r0, r5
 295 0092 2AEE270A 		vmul.f32	s0, s20, s15
 296 0096 84ED0C0A 		vstr.32	s0, [r4, #48]
 297 009a FFF7FEFF 		bl	_ZN7daisysp10Oscillator12CalcPhaseIncEf
 298 009e 2846     		mov	r0, r5
 299 00a0 84ED100A 		vstr.32	s0, [r4, #64]
 300 00a4 04F15005 		add	r5, r4, #80
 301 00a8 FFF7FEFF 		bl	_ZN7daisysp10Oscillator7ProcessEv
 302 00ac D4ED3C7A 		vldr.32	s15, [r4, #240]
 303 00b0 B0EE40AA 		vmov.f32	s20, s0
 304 00b4 2846     		mov	r0, r5
 305 00b6 28EE270A 		vmul.f32	s0, s16, s15
 306 00ba 84F85070 		strb	r7, [r4, #80]
 307 00be 84ED160A 		vstr.32	s0, [r4, #88]
 308 00c2 FFF7FEFF 		bl	_ZN7daisysp10Oscillator12CalcPhaseIncEf
 309 00c6 2846     		mov	r0, r5
 310 00c8 2546     		mov	r5, r4
 311 00ca 84ED1A0A 		vstr.32	s0, [r4, #104]
 312 00ce FFF7FEFF 		bl	_ZN7daisysp10Oscillator7ProcessEv
 313 00d2 B0EE408A 		vmov.f32	s16, s0
 314 00d6 05F8786F 		strb	r6, [r5, #120]!
 315 00da 2846     		mov	r0, r5
 316 00dc D4ED3C7A 		vldr.32	s15, [r4, #240]
 317 00e0 29EEA70A 		vmul.f32	s0, s19, s15
 318 00e4 84ED200A 		vstr.32	s0, [r4, #128]
 319 00e8 FFF7FEFF 		bl	_ZN7daisysp10Oscillator12CalcPhaseIncEf
 320 00ec 2846     		mov	r0, r5
 321 00ee 84ED240A 		vstr.32	s0, [r4, #144]
 322 00f2 2546     		mov	r5, r4
 323 00f4 FFF7FEFF 		bl	_ZN7daisysp10Oscillator7ProcessEv
 324 00f8 D4ED3C7A 		vldr.32	s15, [r4, #240]
 325 00fc 28EE008A 		vmul.f32	s16, s16, s0
 326 0100 4046     		mov	r0, r8
 327 0102 29EE270A 		vmul.f32	s0, s18, s15
 328 0106 84F8A070 		strb	r7, [r4, #160]
 329 010a AAEE8A8A 		vfma.f32	s16, s21, s20
 330 010e 84ED2A0A 		vstr.32	s0, [r4, #168]
 331 0112 FFF7FEFF 		bl	_ZN7daisysp10Oscillator12CalcPhaseIncEf
 332 0116 4046     		mov	r0, r8
 333 0118 84ED2E0A 		vstr.32	s0, [r4, #184]
 334 011c FFF7FEFF 		bl	_ZN7daisysp10Oscillator7ProcessEv
 335 0120 05F8C86F 		strb	r6, [r5, #200]!
 336 0124 D4ED3C7A 		vldr.32	s15, [r4, #240]
 337 0128 B0EE409A 		vmov.f32	s18, s0
 338 012c 2846     		mov	r0, r5
 339 012e 28EEA70A 		vmul.f32	s0, s17, s15
 340 0132 84ED340A 		vstr.32	s0, [r4, #208]
 341 0136 FFF7FEFF 		bl	_ZN7daisysp10Oscillator12CalcPhaseIncEf
 342 013a 2846     		mov	r0, r5
 343 013c 84ED380A 		vstr.32	s0, [r4, #224]
 344 0140 FFF7FEFF 		bl	_ZN7daisysp10Oscillator7ProcessEv
 345 0144 A9EE008A 		vfma.f32	s16, s18, s0
 346 0148 B0EE480A 		vmov.f32	s0, s16
 347 014c BDEC068B 		vldm	sp!, {d8-d10}
 348 0150 BDE8F081 		pop	{r4, r5, r6, r7, r8, pc}
 349              	.L33:
ARM GAS  C:\Users\pedro\AppData\Local\Temp\cc5NPTHM.s 			page 7


 350              		.align	2
 351              	.L32:
 352 0154 0AD7233C 		.word	1008981770
 353 0158 00004843 		.word	1128792064
 354 015c 0050EB45 		.word	1173049344
 355 0160 0000FF43 		.word	1140785152
 356 0164 0058FC45 		.word	1174165504
 357 0168 00803644 		.word	1144422400
 358 016c 00102446 		.word	1176768512
 360              		.section	.text._ZN7daisysp12RingModNoise11ProcessPairEPNS_10OscillatorEff,"ax",%progbits
 361              		.align	1
 362              		.p2align 2,,3
 363              		.global	_ZN7daisysp12RingModNoise11ProcessPairEPNS_10OscillatorEff
 364              		.syntax unified
 365              		.thumb
 366              		.thumb_func
 367              		.fpu fpv5-d16
 369              	_ZN7daisysp12RingModNoise11ProcessPairEPNS_10OscillatorEff:
 370              		@ args = 0, pretend = 0, frame = 0
 371              		@ frame_needed = 0, uses_anonymous_args = 0
 372 0000 0423     		movs	r3, #4
 373 0002 0B70     		strb	r3, [r1]
 374 0004 D0ED3C7A 		vldr.32	s15, [r0, #240]
 375 0008 20EE270A 		vmul.f32	s0, s0, s15
 376 000c 70B5     		push	{r4, r5, r6, lr}
 377 000e 0C46     		mov	r4, r1
 378 0010 81ED020A 		vstr.32	s0, [r1, #8]
 379 0014 0646     		mov	r6, r0
 380 0016 0846     		mov	r0, r1
 381 0018 0D46     		mov	r5, r1
 382 001a 2DED028B 		vpush.64	{d8}
 383 001e B0EE608A 		vmov.f32	s16, s1
 384 0022 FFF7FEFF 		bl	_ZN7daisysp10Oscillator12CalcPhaseIncEf
 385 0026 2046     		mov	r0, r4
 386 0028 84ED060A 		vstr.32	s0, [r4, #24]
 387 002c FFF7FEFF 		bl	_ZN7daisysp10Oscillator7ProcessEv
 388 0030 0223     		movs	r3, #2
 389 0032 F0EE408A 		vmov.f32	s17, s0
 390 0036 05F8283F 		strb	r3, [r5, #40]!
 391 003a 2846     		mov	r0, r5
 392 003c D6ED3C0A 		vldr.32	s1, [r6, #240]
 393 0040 28EE200A 		vmul.f32	s0, s16, s1
 394 0044 84ED0C0A 		vstr.32	s0, [r4, #48]
 395 0048 FFF7FEFF 		bl	_ZN7daisysp10Oscillator12CalcPhaseIncEf
 396 004c 2846     		mov	r0, r5
 397 004e 84ED100A 		vstr.32	s0, [r4, #64]
 398 0052 FFF7FEFF 		bl	_ZN7daisysp10Oscillator7ProcessEv
 399 0056 28EE800A 		vmul.f32	s0, s17, s0
 400 005a BDEC028B 		vldm	sp!, {d8}
 401 005e 70BD     		pop	{r4, r5, r6, pc}
 403              		.ident	"GCC: (GNU Arm Embedded Toolchain 10-2020-q4-major) 10.2.1 20201103 (release)"
ARM GAS  C:\Users\pedro\AppData\Local\Temp\cc5NPTHM.s 			page 8

