ARM GAS  C:\Users\pedro\AppData\Local\Temp\ccxYhk54.s 			page 1


   1              		.cpu cortex-m7
   2              		.eabi_attribute 28, 1
   3              		.eabi_attribute 20, 1
   4              		.eabi_attribute 21, 1
   5              		.eabi_attribute 23, 3
   6              		.eabi_attribute 24, 1
   7              		.eabi_attribute 25, 1
   8              		.eabi_attribute 26, 1
   9              		.eabi_attribute 30, 2
  10              		.eabi_attribute 34, 1
  11              		.eabi_attribute 18, 4
  12              		.file	"jitter.cpp"
  13              		.text
  14              		.section	.text._ZN7daisysp6Jitter7randGabEv,"ax",%progbits
  15              		.align	1
  16              		.p2align 2,,3
  17              		.global	_ZN7daisysp6Jitter7randGabEv
  18              		.arch armv7e-m
  19              		.syntax unified
  20              		.thumb
  21              		.thumb_func
  22              		.fpu fpv5-d16
  24              	_ZN7daisysp6Jitter7randGabEv:
  25              		@ args = 0, pretend = 0, frame = 0
  26              		@ frame_needed = 0, uses_anonymous_args = 0
  27 0000 08B5     		push	{r3, lr}
  28 0002 FFF7FEFF 		bl	rand
  29 0006 4308     		lsrs	r3, r0, #1
  30 0008 00EE103A 		vmov	s0, r3	@ int
  31 000c B8EEC00A 		vcvt.f32.s32	s0, s0
  32 0010 9FED057B 		vldr.64	d7, .L4
  33 0014 B7EEC00A 		vcvt.f64.f32	d0, s0
  34 0018 20EE070B 		vmul.f64	d0, d0, d7
  35 001c B7EEC00B 		vcvt.f32.f64	s0, d0
  36 0020 08BD     		pop	{r3, pc}
  37              	.L5:
  38 0022 00BFAFF3 		.align	3
  38      0080
  39              	.L4:
  40 0028 00002000 		.word	2097152
  41 002c 0000003E 		.word	1040187392
  43              		.section	.text._ZN7daisysp6Jitter9biRandGabEv,"ax",%progbits
  44              		.align	1
  45              		.p2align 2,,3
  46              		.global	_ZN7daisysp6Jitter9biRandGabEv
  47              		.syntax unified
  48              		.thumb
  49              		.thumb_func
  50              		.fpu fpv5-d16
  52              	_ZN7daisysp6Jitter9biRandGabEv:
  53              		@ args = 0, pretend = 0, frame = 0
  54              		@ frame_needed = 0, uses_anonymous_args = 0
  55 0000 08B5     		push	{r3, lr}
  56 0002 FFF7FEFF 		bl	rand
  57 0006 20F00043 		bic	r3, r0, #-2147483648
  58 000a 00EE103A 		vmov	s0, r3	@ int
  59 000e B8EEC00A 		vcvt.f32.s32	s0, s0
ARM GAS  C:\Users\pedro\AppData\Local\Temp\ccxYhk54.s 			page 2


  60 0012 9FED057B 		vldr.64	d7, .L8
  61 0016 B7EEC00A 		vcvt.f64.f32	d0, s0
  62 001a 20EE070B 		vmul.f64	d0, d0, d7
  63 001e B7EEC00B 		vcvt.f32.f64	s0, d0
  64 0022 08BD     		pop	{r3, pc}
  65              	.L9:
  66 0024 AFF30080 		.align	3
  67              	.L8:
  68 0028 00002000 		.word	2097152
  69 002c 0000003E 		.word	1040187392
  71              		.section	.text._ZN7daisysp6Jitter6SetAmpEf,"ax",%progbits
  72              		.align	1
  73              		.p2align 2,,3
  74              		.global	_ZN7daisysp6Jitter6SetAmpEf
  75              		.syntax unified
  76              		.thumb
  77              		.thumb_func
  78              		.fpu fpv5-d16
  80              	_ZN7daisysp6Jitter6SetAmpEf:
  81              		@ args = 0, pretend = 0, frame = 0
  82              		@ frame_needed = 0, uses_anonymous_args = 0
  83 0000 10B5     		push	{r4, lr}
  84 0002 80ED000A 		vstr.32	s0, [r0]
  85 0006 0446     		mov	r4, r0
  86 0008 FFF7FEFF 		bl	rand
  87 000c 20F00043 		bic	r3, r0, #-2147483648
  88 0010 0122     		movs	r2, #1
  89 0012 07EE103A 		vmov	s14, r3	@ int
  90 0016 0023     		movs	r3, #0
  91 0018 2276     		strb	r2, [r4, #24]
  92 001a B8EEC77A 		vcvt.f32.s32	s14, s14
  93 001e 6361     		str	r3, [r4, #20]
  94 0020 9FED056B 		vldr.64	d6, .L12
  95 0024 B7EEC77A 		vcvt.f64.f32	d7, s14
  96 0028 27EE067B 		vmul.f64	d7, d7, d6
  97 002c B7EEC77B 		vcvt.f32.f64	s14, d7
  98 0030 84ED087A 		vstr.32	s14, [r4, #32]
  99 0034 10BD     		pop	{r4, pc}
 100              	.L13:
 101 0036 00BF     		.align	3
 102              	.L12:
 103 0038 00002000 		.word	2097152
 104 003c 0000003E 		.word	1040187392
 106              		.section	.text._ZN7daisysp6Jitter9SetCpsMinEf,"ax",%progbits
 107              		.align	1
 108              		.p2align 2,,3
 109              		.global	_ZN7daisysp6Jitter9SetCpsMinEf
 110              		.syntax unified
 111              		.thumb
 112              		.thumb_func
 113              		.fpu fpv5-d16
 115              	_ZN7daisysp6Jitter9SetCpsMinEf:
 116              		@ args = 0, pretend = 0, frame = 0
 117              		@ frame_needed = 0, uses_anonymous_args = 0
 118 0000 10B5     		push	{r4, lr}
 119 0002 80ED010A 		vstr.32	s0, [r0, #4]
 120 0006 0446     		mov	r4, r0
ARM GAS  C:\Users\pedro\AppData\Local\Temp\ccxYhk54.s 			page 3


 121 0008 FFF7FEFF 		bl	rand
 122 000c 20F00043 		bic	r3, r0, #-2147483648
 123 0010 0122     		movs	r2, #1
 124 0012 07EE103A 		vmov	s14, r3	@ int
 125 0016 0023     		movs	r3, #0
 126 0018 2276     		strb	r2, [r4, #24]
 127 001a B8EEC77A 		vcvt.f32.s32	s14, s14
 128 001e 6361     		str	r3, [r4, #20]
 129 0020 9FED056B 		vldr.64	d6, .L16
 130 0024 B7EEC77A 		vcvt.f64.f32	d7, s14
 131 0028 27EE067B 		vmul.f64	d7, d7, d6
 132 002c B7EEC77B 		vcvt.f32.f64	s14, d7
 133 0030 84ED087A 		vstr.32	s14, [r4, #32]
 134 0034 10BD     		pop	{r4, pc}
 135              	.L17:
 136 0036 00BF     		.align	3
 137              	.L16:
 138 0038 00002000 		.word	2097152
 139 003c 0000003E 		.word	1040187392
 141              		.section	.text._ZN7daisysp6Jitter9SetCpsMaxEf,"ax",%progbits
 142              		.align	1
 143              		.p2align 2,,3
 144              		.global	_ZN7daisysp6Jitter9SetCpsMaxEf
 145              		.syntax unified
 146              		.thumb
 147              		.thumb_func
 148              		.fpu fpv5-d16
 150              	_ZN7daisysp6Jitter9SetCpsMaxEf:
 151              		@ args = 0, pretend = 0, frame = 0
 152              		@ frame_needed = 0, uses_anonymous_args = 0
 153 0000 10B5     		push	{r4, lr}
 154 0002 80ED020A 		vstr.32	s0, [r0, #8]
 155 0006 0446     		mov	r4, r0
 156 0008 FFF7FEFF 		bl	rand
 157 000c 20F00043 		bic	r3, r0, #-2147483648
 158 0010 0122     		movs	r2, #1
 159 0012 07EE103A 		vmov	s14, r3	@ int
 160 0016 0023     		movs	r3, #0
 161 0018 2276     		strb	r2, [r4, #24]
 162 001a B8EEC77A 		vcvt.f32.s32	s14, s14
 163 001e 6361     		str	r3, [r4, #20]
 164 0020 9FED056B 		vldr.64	d6, .L20
 165 0024 B7EEC77A 		vcvt.f64.f32	d7, s14
 166 0028 27EE067B 		vmul.f64	d7, d7, d6
 167 002c B7EEC77B 		vcvt.f32.f64	s14, d7
 168 0030 84ED087A 		vstr.32	s14, [r4, #32]
 169 0034 10BD     		pop	{r4, pc}
 170              	.L21:
 171 0036 00BF     		.align	3
 172              	.L20:
 173 0038 00002000 		.word	2097152
 174 003c 0000003E 		.word	1040187392
 176              		.section	.text._ZN7daisysp6Jitter5ResetEv,"ax",%progbits
 177              		.align	1
 178              		.p2align 2,,3
 179              		.global	_ZN7daisysp6Jitter5ResetEv
 180              		.syntax unified
ARM GAS  C:\Users\pedro\AppData\Local\Temp\ccxYhk54.s 			page 4


 181              		.thumb
 182              		.thumb_func
 183              		.fpu fpv5-d16
 185              	_ZN7daisysp6Jitter5ResetEv:
 186              		@ args = 0, pretend = 0, frame = 0
 187              		@ frame_needed = 0, uses_anonymous_args = 0
 188 0000 10B5     		push	{r4, lr}
 189 0002 0446     		mov	r4, r0
 190 0004 FFF7FEFF 		bl	rand
 191 0008 20F00041 		bic	r1, r0, #-2147483648
 192 000c 0122     		movs	r2, #1
 193 000e 0023     		movs	r3, #0
 194 0010 07EE101A 		vmov	s14, r1	@ int
 195 0014 2276     		strb	r2, [r4, #24]
 196 0016 6361     		str	r3, [r4, #20]
 197 0018 B8EEC77A 		vcvt.f32.s32	s14, s14
 198 001c 9FED066B 		vldr.64	d6, .L24
 199 0020 B7EEC77A 		vcvt.f64.f32	d7, s14
 200 0024 27EE067B 		vmul.f64	d7, d7, d6
 201 0028 B7EEC77B 		vcvt.f32.f64	s14, d7
 202 002c 84ED087A 		vstr.32	s14, [r4, #32]
 203 0030 10BD     		pop	{r4, pc}
 204              	.L25:
 205 0032 00BFAFF3 		.align	3
 205      0080
 206              	.L24:
 207 0038 00002000 		.word	2097152
 208 003c 0000003E 		.word	1040187392
 210              		.section	.text._ZN7daisysp6Jitter4InitEf,"ax",%progbits
 211              		.align	1
 212              		.p2align 2,,3
 213              		.global	_ZN7daisysp6Jitter4InitEf
 214              		.syntax unified
 215              		.thumb
 216              		.thumb_func
 217              		.fpu fpv5-d16
 219              	_ZN7daisysp6Jitter4InitEf:
 220              		@ args = 0, pretend = 0, frame = 0
 221              		@ frame_needed = 0, uses_anonymous_args = 0
 222 0000 4FF07C53 		mov	r3, #1056964608
 223 0004 4FF08142 		mov	r2, #1082130432
 224 0008 10B5     		push	{r4, lr}
 225 000a 0360     		str	r3, [r0]	@ float
 226 000c 0446     		mov	r4, r0
 227 000e 4360     		str	r3, [r0, #4]	@ float
 228 0010 8260     		str	r2, [r0, #8]	@ float
 229 0012 80ED040A 		vstr.32	s0, [r0, #16]
 230 0016 FFF7FEFF 		bl	rand
 231 001a 20F00043 		bic	r3, r0, #-2147483648
 232 001e 0122     		movs	r2, #1
 233 0020 07EE103A 		vmov	s14, r3	@ int
 234 0024 0023     		movs	r3, #0
 235 0026 2276     		strb	r2, [r4, #24]
 236 0028 B8EEC77A 		vcvt.f32.s32	s14, s14
 237 002c 6361     		str	r3, [r4, #20]
 238 002e 9FED066B 		vldr.64	d6, .L28
 239 0032 B7EEC77A 		vcvt.f64.f32	d7, s14
ARM GAS  C:\Users\pedro\AppData\Local\Temp\ccxYhk54.s 			page 5


 240 0036 27EE067B 		vmul.f64	d7, d7, d6
 241 003a B7EEC77B 		vcvt.f32.f64	s14, d7
 242 003e 84ED087A 		vstr.32	s14, [r4, #32]
 243 0042 10BD     		pop	{r4, pc}
 244              	.L29:
 245 0044 AFF30080 		.align	3
 246              	.L28:
 247 0048 00002000 		.word	2097152
 248 004c 0000003E 		.word	1040187392
 250              		.section	.text._ZN7daisysp6Jitter7ProcessEv,"ax",%progbits
 251              		.align	1
 252              		.p2align 2,,3
 253              		.global	_ZN7daisysp6Jitter7ProcessEv
 254              		.syntax unified
 255              		.thumb
 256              		.thumb_func
 257              		.fpu fpv5-d16
 259              	_ZN7daisysp6Jitter7ProcessEv:
 260              		@ args = 0, pretend = 0, frame = 8
 261              		@ frame_needed = 0, uses_anonymous_args = 0
 262 0000 037E     		ldrb	r3, [r0, #24]	@ zero_extendqisi2
 263 0002 10B5     		push	{r4, lr}
 264 0004 0446     		mov	r4, r0
 265 0006 2DED028B 		vpush.64	{d8}
 266 000a 82B0     		sub	sp, sp, #8
 267 000c 002B     		cmp	r3, #0
 268 000e 66D1     		bne	.L35
 269 0010 9FED4B6A 		vldr.32	s12, .L37+8
 270 0014 D0ED046A 		vldr.32	s13, [r0, #16]
 271 0018 90ED037A 		vldr.32	s14, [r0, #12]
 272 001c C6EE267A 		vdiv.f32	s15, s12, s13
 273 0020 D0ED056A 		vldr.32	s13, [r0, #20]	@ int
 274 0024 90ED096A 		vldr.32	s12, [r0, #36]
 275 0028 90ED070A 		vldr.32	s0, [r0, #28]
 276 002c 4269     		ldr	r2, [r0, #20]
 277 002e F8EEE65A 		vcvt.f32.s32	s11, s13
 278 0032 D0ED006A 		vldr.32	s13, [r0]
 279 0036 A5EE860A 		vfma.f32	s0, s11, s12
 280 003a 20EE260A 		vmul.f32	s0, s0, s13
 281 003e 67EE877A 		vmul.f32	s15, s15, s14
 282 0042 FDEEE77A 		vcvt.s32.f32	s15, s15
 283 0046 17EE903A 		vmov	r3, s15	@ int
 284 004a 1344     		add	r3, r3, r2
 285 004c B3F1807F 		cmp	r3, #16777216
 286 0050 4361     		str	r3, [r0, #20]
 287 0052 03DA     		bge	.L36
 288 0054 02B0     		add	sp, sp, #8
 289              		@ sp needed
 290 0056 BDEC028B 		vldm	sp!, {d8}
 291 005a 10BD     		pop	{r4, pc}
 292              	.L36:
 293 005c 8DED010A 		vstr.32	s0, [sp, #4]	@ int
 294 0060 FFF7FEFF 		bl	rand
 295 0064 4308     		lsrs	r3, r0, #1
 296 0066 D4ED017A 		vldr.32	s15, [r4, #4]
 297 006a D4ED025A 		vldr.32	s11, [r4, #8]
 298 006e 06EE103A 		vmov	s12, r3	@ int
ARM GAS  C:\Users\pedro\AppData\Local\Temp\ccxYhk54.s 			page 6


 299 0072 6369     		ldr	r3, [r4, #20]
 300 0074 75EEE75A 		vsub.f32	s11, s11, s15
 301 0078 226A     		ldr	r2, [r4, #32]	@ float
 302 007a B8EEC66A 		vcvt.f32.s32	s12, s12
 303 007e 23F07F43 		bic	r3, r3, #-16777216
 304 0082 E261     		str	r2, [r4, #28]	@ float
 305 0084 6361     		str	r3, [r4, #20]
 306 0086 B7EEC66A 		vcvt.f64.f32	d6, s12
 307 008a 9FED2B8B 		vldr.64	d8, .L37
 308 008e 26EE086B 		vmul.f64	d6, d6, d8
 309 0092 B7EEC66B 		vcvt.f32.f64	s12, d6
 310 0096 E5EE867A 		vfma.f32	s15, s11, s12
 311 009a C4ED037A 		vstr.32	s15, [r4, #12]
 312              	.L34:
 313 009e FFF7FEFF 		bl	rand
 314 00a2 20F00043 		bic	r3, r0, #-2147483648
 315 00a6 D4ED076A 		vldr.32	s13, [r4, #28]
 316 00aa 07EE103A 		vmov	s14, r3	@ int
 317 00ae 9FED256A 		vldr.32	s12, .L37+12
 318 00b2 9DED010A 		vldr.32	s0, [sp, #4]	@ int
 319 00b6 B8EEC77A 		vcvt.f32.s32	s14, s14
 320 00ba B7EEC77A 		vcvt.f64.f32	d7, s14
 321 00be 27EE087B 		vmul.f64	d7, d7, d8
 322 00c2 B7EEC77B 		vcvt.f32.f64	s14, d7
 323 00c6 77EE667A 		vsub.f32	s15, s14, s13
 324 00ca 84ED087A 		vstr.32	s14, [r4, #32]
 325 00ce 67EE867A 		vmul.f32	s15, s15, s12
 326 00d2 C4ED097A 		vstr.32	s15, [r4, #36]
 327 00d6 02B0     		add	sp, sp, #8
 328              		@ sp needed
 329 00d8 BDEC028B 		vldm	sp!, {d8}
 330 00dc 10BD     		pop	{r4, pc}
 331              	.L35:
 332 00de D0ED087A 		vldr.32	s15, [r0, #32]
 333 00e2 0023     		movs	r3, #0
 334 00e4 90ED000A 		vldr.32	s0, [r0]
 335 00e8 0376     		strb	r3, [r0, #24]
 336 00ea 27EE800A 		vmul.f32	s0, s15, s0
 337 00ee 9FED128B 		vldr.64	d8, .L37
 338 00f2 8DED010A 		vstr.32	s0, [sp, #4]	@ int
 339 00f6 FFF7FEFF 		bl	rand
 340 00fa 4208     		lsrs	r2, r0, #1
 341 00fc D4ED016A 		vldr.32	s13, [r4, #4]
 342 0100 94ED026A 		vldr.32	s12, [r4, #8]
 343 0104 07EE102A 		vmov	s14, r2	@ int
 344 0108 6369     		ldr	r3, [r4, #20]
 345 010a 36EE666A 		vsub.f32	s12, s12, s13
 346 010e 226A     		ldr	r2, [r4, #32]	@ float
 347 0110 B8EEC77A 		vcvt.f32.s32	s14, s14
 348 0114 23F07F43 		bic	r3, r3, #-16777216
 349 0118 E261     		str	r2, [r4, #28]	@ float
 350 011a 6361     		str	r3, [r4, #20]
 351 011c B7EEC77A 		vcvt.f64.f32	d7, s14
 352 0120 27EE087B 		vmul.f64	d7, d7, d8
 353 0124 B7EEC77B 		vcvt.f32.f64	s14, d7
 354 0128 E6EE076A 		vfma.f32	s13, s12, s14
 355 012c C4ED036A 		vstr.32	s13, [r4, #12]
ARM GAS  C:\Users\pedro\AppData\Local\Temp\ccxYhk54.s 			page 7


 356 0130 B5E7     		b	.L34
 357              	.L38:
 358 0132 00BFAFF3 		.align	3
 358      0080
 359              	.L37:
 360 0138 00002000 		.word	2097152
 361 013c 0000003E 		.word	1040187392
 362 0140 0000804B 		.word	1266679808
 363 0144 00008033 		.word	864026624
 365              		.ident	"GCC: (GNU Arm Embedded Toolchain 10-2020-q4-major) 10.2.1 20201103 (release)"
ARM GAS  C:\Users\pedro\AppData\Local\Temp\ccxYhk54.s 			page 8

