ARM GAS  C:\Users\pedro\AppData\Local\Temp\cc4tiZ6h.s 			page 1


   1              		.cpu cortex-m7
   2              		.eabi_attribute 28, 1
   3              		.eabi_attribute 20, 1
   4              		.eabi_attribute 21, 1
   5              		.eabi_attribute 23, 3
   6              		.eabi_attribute 24, 1
   7              		.eabi_attribute 25, 1
   8              		.eabi_attribute 26, 1
   9              		.eabi_attribute 30, 2
  10              		.eabi_attribute 34, 1
  11              		.eabi_attribute 18, 4
  12              		.file	"KarplusString.cpp"
  13              		.text
  14              		.section	.text._ZN7daisysp6String4InitEf,"ax",%progbits
  15              		.align	1
  16              		.p2align 2,,3
  17              		.global	_ZN7daisysp6String4InitEf
  18              		.arch armv7e-m
  19              		.syntax unified
  20              		.thumb
  21              		.thumb_func
  22              		.fpu fpv5-d16
  24              	_ZN7daisysp6String4InitEf:
  25              		@ args = 0, pretend = 0, frame = 0
  26              		@ frame_needed = 0, uses_anonymous_args = 0
  27 0000 2DE9F84F 		push	{r3, r4, r5, r6, r7, r8, r9, r10, fp, lr}
  28 0004 00F58055 		add	r5, r0, #4096
  29 0008 0026     		movs	r6, #0
  30 000a 0123     		movs	r3, #1
  31 000c 00F5A158 		add	r8, r0, #5152
  32 0010 05F58567 		add	r7, r5, #1064
  33 0014 05F5836B 		add	fp, r5, #1048
  34 0018 05F21C49 		addw	r9, r5, #1052
  35 001c 05F2244A 		addw	r10, r5, #1060
  36 0020 0446     		mov	r4, r0
  37 0022 4FF48052 		mov	r2, #4096
  38 0026 3146     		mov	r1, r6
  39 0028 0C30     		adds	r0, r0, #12
  40 002a 2DED068B 		vpush.64	{d8, d9, d10}
  41 002e F6EE008A 		vmov.f32	s17, #5.0e-1
  42 0032 9FED3BAA 		vldr.32	s20, .L4
  43 0036 9FED3B8A 		vldr.32	s16, .L4+4
  44 003a F5EE009A 		vmov.f32	s19, #2.5e-1
  45 003e 87ED000A 		vstr.32	s0, [r7]
  46 0042 CAEE007A 		vdiv.f32	s15, s20, s0
  47              		.syntax unified
  48              	@ 36 "Source/Utility/dsp.h" 1
  49 0046 C7FE887A 		vmaxnm.f32 s15, s15, s16
  50              	@ 0 "" 2
  51              	@ 47 "Source/Utility/dsp.h" 1
  52 004a C7FEE97A 		vminnm.f32 s15, s15, s19
  53              	@ 0 "" 2
  54              		.thumb
  55              		.syntax unified
  56 004e CBED007A 		vstr.32	s15, [fp]
  57 0052 C9ED008A 		vstr.32	s17, [r9]
  58 0056 C8ED008A 		vstr.32	s17, [r8]
ARM GAS  C:\Users\pedro\AppData\Local\Temp\cc4tiZ6h.s 			page 2


  59 005a B0EE409A 		vmov.f32	s18, s0
  60 005e CAED008A 		vstr.32	s17, [r10]
  61 0062 40F8043C 		str	r3, [r0, #-4]
  62 0066 40F8086C 		str	r6, [r0, #-8]
  63 006a FFF7FEFF 		bl	memset
  64 006e 41F21800 		movw	r0, #4120
  65 0072 4FF48062 		mov	r2, #1024
  66 0076 3146     		mov	r1, r6
  67 0078 2044     		add	r0, r0, r4
  68 007a FFF7FEFF 		bl	memset
  69 007e 0123     		movs	r3, #1
  70 0080 41F22C40 		movw	r0, #5164
  71 0084 B0EE490A 		vmov.f32	s0, s18
  72 0088 6B61     		str	r3, [r5, #20]
  73 008a 2044     		add	r0, r0, r4
  74 008c 2E61     		str	r6, [r5, #16]
  75 008e FFF7FEFF 		bl	_ZN7daisysp4Tone4InitEf
  76 0092 41F24840 		movw	r0, #5192
  77 0096 97ED000A 		vldr.32	s0, [r7]
  78 009a 2044     		add	r0, r0, r4
  79 009c 04F5A354 		add	r4, r4, #5216
  80 00a0 FFF7FEFF 		bl	_ZN7daisysp7DcBlock4InitEf
  81 00a4 05F25C43 		addw	r3, r5, #1116
  82 00a8 D7ED007A 		vldr.32	s15, [r7]
  83 00ac F7EE005A 		vmov.f32	s11, #1.0e+0
  84 00b0 83ED008A 		vstr.32	s16, [r3]
  85 00b4 05F26C43 		addw	r3, r5, #1132
  86 00b8 84ED008A 		vstr.32	s16, [r4]
  87 00bc CAEE276A 		vdiv.f32	s13, s20, s15
  88 00c0 83ED008A 		vstr.32	s16, [r3]
  89 00c4 05F58D63 		add	r3, r5, #1128
  90              		.syntax unified
  91              	@ 36 "Source/Utility/dsp.h" 1
  92 00c8 C6FE886A 		vmaxnm.f32 s13, s13, s16
  93              	@ 0 "" 2
  94              		.thumb
  95              		.syntax unified
  96 00cc 83ED008A 		vstr.32	s16, [r3]
  97 00d0 05F26443 		addw	r3, r5, #1124
  98              		.syntax unified
  99              	@ 47 "Source/Utility/dsp.h" 1
 100 00d4 C6FEE96A 		vminnm.f32 s13, s13, s19
 101              	@ 0 "" 2
 102              		.thumb
 103              		.syntax unified
 104 00d8 83ED008A 		vstr.32	s16, [r3]
 105 00dc 05F25443 		addw	r3, r5, #1108
 106 00e0 CBED006A 		vstr.32	s13, [fp]
 107              		.syntax unified
 108              	@ 36 "Source/Utility/dsp.h" 1
 109 00e4 88FE886A 		vmaxnm.f32 s12, s17, s16
 110              	@ 0 "" 2
 111              		.thumb
 112              		.syntax unified
 113 00e8 9FED0F7A 		vldr.32	s14, .L4+8
 114 00ec DFED0F7A 		vldr.32	s15, .L4+12
 115              		.syntax unified
ARM GAS  C:\Users\pedro\AppData\Local\Temp\cc4tiZ6h.s 			page 3


 116              	@ 36 "Source/Utility/dsp.h" 1
 117 00f0 87FE087A 		vmaxnm.f32 s14, s14, s16
 118              	@ 0 "" 2
 119              	@ 36 "Source/Utility/dsp.h" 1
 120 00f4 C7FE887A 		vmaxnm.f32 s15, s15, s16
 121              	@ 0 "" 2
 122              	@ 47 "Source/Utility/dsp.h" 1
 123 00f8 87FE657A 		vminnm.f32 s14, s14, s11
 124              	@ 0 "" 2
 125              	@ 47 "Source/Utility/dsp.h" 1
 126 00fc C7FEE57A 		vminnm.f32 s15, s15, s11
 127              	@ 0 "" 2
 128              		.thumb
 129              		.syntax unified
 130 0100 8AED007A 		vstr.32	s14, [r10]
 131              		.syntax unified
 132              	@ 47 "Source/Utility/dsp.h" 1
 133 0104 86FE656A 		vminnm.f32 s12, s12, s11
 134              	@ 0 "" 2
 135              		.thumb
 136              		.syntax unified
 137 0108 C9ED007A 		vstr.32	s15, [r9]
 138 010c 88ED006A 		vstr.32	s12, [r8]
 139 0110 C3ED008A 		vstr.32	s17, [r3]
 140 0114 85F85864 		strb	r6, [r5, #1112]
 141 0118 BDEC068B 		vldm	sp!, {d8-d10}
 142 011c BDE8F88F 		pop	{r3, r4, r5, r6, r7, r8, r9, r10, fp, pc}
 143              	.L5:
 144              		.align	2
 145              	.L4:
 146 0120 0000DC43 		.word	1138491392
 147 0124 00000000 		.word	0
 148 0128 CDCC4C3F 		.word	1061997773
 149 012c CDCCCC3D 		.word	1036831949
 151              		.section	.text._ZN7daisysp6String5ResetEv,"ax",%progbits
 152              		.align	1
 153              		.p2align 2,,3
 154              		.global	_ZN7daisysp6String5ResetEv
 155              		.syntax unified
 156              		.thumb
 157              		.thumb_func
 158              		.fpu fpv5-d16
 160              	_ZN7daisysp6String5ResetEv:
 161              		@ args = 0, pretend = 0, frame = 0
 162              		@ frame_needed = 0, uses_anonymous_args = 0
 163 0000 0021     		movs	r1, #0
 164 0002 4FF48052 		mov	r2, #4096
 165 0006 2DE9F041 		push	{r4, r5, r6, r7, r8, lr}
 166 000a 0446     		mov	r4, r0
 167 000c 0C30     		adds	r0, r0, #12
 168 000e 0E46     		mov	r6, r1
 169 0010 4FF00108 		mov	r8, #1
 170 0014 FFF7FEFF 		bl	memset
 171 0018 41F21800 		movw	r0, #4120
 172 001c 04F58055 		add	r5, r4, #4096
 173 0020 4FF48062 		mov	r2, #1024
 174 0024 3146     		mov	r1, r6
ARM GAS  C:\Users\pedro\AppData\Local\Temp\cc4tiZ6h.s 			page 4


 175 0026 2044     		add	r0, r0, r4
 176 0028 05F58567 		add	r7, r5, #1064
 177 002c C4E90168 		strd	r6, r8, [r4, #4]
 178 0030 FFF7FEFF 		bl	memset
 179 0034 41F22C40 		movw	r0, #5164
 180 0038 97ED000A 		vldr.32	s0, [r7]
 181 003c 2044     		add	r0, r0, r4
 182 003e 2E61     		str	r6, [r5, #16]
 183 0040 C5F81480 		str	r8, [r5, #20]
 184 0044 FFF7FEFF 		bl	_ZN7daisysp4Tone4InitEf
 185 0048 41F24840 		movw	r0, #5192
 186 004c 97ED000A 		vldr.32	s0, [r7]
 187 0050 2044     		add	r0, r0, r4
 188 0052 04F5A354 		add	r4, r4, #5216
 189 0056 FFF7FEFF 		bl	_ZN7daisysp7DcBlock4InitEf
 190 005a 0023     		movs	r3, #0
 191 005c 05F25C42 		addw	r2, r5, #1116
 192 0060 05F26C41 		addw	r1, r5, #1132
 193 0064 1360     		str	r3, [r2]	@ float
 194 0066 05F58D62 		add	r2, r5, #1128
 195 006a 05F26445 		addw	r5, r5, #1124
 196 006e 2360     		str	r3, [r4]	@ float
 197 0070 0B60     		str	r3, [r1]	@ float
 198 0072 1360     		str	r3, [r2]	@ float
 199 0074 2B60     		str	r3, [r5]	@ float
 200 0076 BDE8F081 		pop	{r4, r5, r6, r7, r8, pc}
 202              		.section	.text._ZN7daisysp6String7SetFreqEf,"ax",%progbits
 203              		.align	1
 204              		.p2align 2,,3
 205              		.global	_ZN7daisysp6String7SetFreqEf
 206              		.syntax unified
 207              		.thumb
 208              		.thumb_func
 209              		.fpu fpv5-d16
 211              	_ZN7daisysp6String7SetFreqEf:
 212              		@ args = 0, pretend = 0, frame = 0
 213              		@ frame_needed = 0, uses_anonymous_args = 0
 214              		@ link register save eliminated.
 215 0000 00F58050 		add	r0, r0, #4096
 216 0004 B5EE007A 		vmov.f32	s14, #2.5e-1
 217 0008 DFED086A 		vldr.32	s13, .L9
 218 000c 00F58563 		add	r3, r0, #1064
 219 0010 00F58360 		add	r0, r0, #1048
 220 0014 93ED006A 		vldr.32	s12, [r3]
 221 0018 C0EE067A 		vdiv.f32	s15, s0, s12
 222              		.syntax unified
 223              	@ 36 "Source/Utility/dsp.h" 1
 224 001c C7FEA67A 		vmaxnm.f32 s15, s15, s13
 225              	@ 0 "" 2
 226              	@ 47 "Source/Utility/dsp.h" 1
 227 0020 C7FEC77A 		vminnm.f32 s15, s15, s14
 228              	@ 0 "" 2
 229              		.thumb
 230              		.syntax unified
 231 0024 C0ED007A 		vstr.32	s15, [r0]
 232 0028 7047     		bx	lr
 233              	.L10:
ARM GAS  C:\Users\pedro\AppData\Local\Temp\cc4tiZ6h.s 			page 5


 234 002a 00BF     		.align	2
 235              	.L9:
 236 002c 00000000 		.word	0
 238              		.section	.text._ZN7daisysp6String15SetNonLinearityEf,"ax",%progbits
 239              		.align	1
 240              		.p2align 2,,3
 241              		.global	_ZN7daisysp6String15SetNonLinearityEf
 242              		.syntax unified
 243              		.thumb
 244              		.thumb_func
 245              		.fpu fpv5-d16
 247              	_ZN7daisysp6String15SetNonLinearityEf:
 248              		@ args = 0, pretend = 0, frame = 0
 249              		@ frame_needed = 0, uses_anonymous_args = 0
 250              		@ link register save eliminated.
 251 0000 41F21C43 		movw	r3, #5148
 252 0004 F7EE007A 		vmov.f32	s15, #1.0e+0
 253 0008 9FED047A 		vldr.32	s14, .L12
 254 000c 0344     		add	r3, r3, r0
 255              		.syntax unified
 256              	@ 36 "Source/Utility/dsp.h" 1
 257 000e 80FE070A 		vmaxnm.f32 s0, s0, s14
 258              	@ 0 "" 2
 259              	@ 47 "Source/Utility/dsp.h" 1
 260 0012 80FE670A 		vminnm.f32 s0, s0, s15
 261              	@ 0 "" 2
 262              		.thumb
 263              		.syntax unified
 264 0016 83ED000A 		vstr.32	s0, [r3]
 265 001a 7047     		bx	lr
 266              	.L13:
 267              		.align	2
 268              	.L12:
 269 001c 00000000 		.word	0
 271              		.section	.text._ZN7daisysp6String13SetBrightnessEf,"ax",%progbits
 272              		.align	1
 273              		.p2align 2,,3
 274              		.global	_ZN7daisysp6String13SetBrightnessEf
 275              		.syntax unified
 276              		.thumb
 277              		.thumb_func
 278              		.fpu fpv5-d16
 280              	_ZN7daisysp6String13SetBrightnessEf:
 281              		@ args = 0, pretend = 0, frame = 0
 282              		@ frame_needed = 0, uses_anonymous_args = 0
 283              		@ link register save eliminated.
 284 0000 00F5A150 		add	r0, r0, #5152
 285 0004 F7EE007A 		vmov.f32	s15, #1.0e+0
 286 0008 9FED047A 		vldr.32	s14, .L15
 287              		.syntax unified
 288              	@ 36 "Source/Utility/dsp.h" 1
 289 000c 80FE070A 		vmaxnm.f32 s0, s0, s14
 290              	@ 0 "" 2
 291              	@ 47 "Source/Utility/dsp.h" 1
 292 0010 80FE670A 		vminnm.f32 s0, s0, s15
 293              	@ 0 "" 2
 294              		.thumb
ARM GAS  C:\Users\pedro\AppData\Local\Temp\cc4tiZ6h.s 			page 6


 295              		.syntax unified
 296 0014 80ED000A 		vstr.32	s0, [r0]
 297 0018 7047     		bx	lr
 298              	.L16:
 299 001a 00BF     		.align	2
 300              	.L15:
 301 001c 00000000 		.word	0
 303              		.section	.text._ZN7daisysp6String10SetDampingEf,"ax",%progbits
 304              		.align	1
 305              		.p2align 2,,3
 306              		.global	_ZN7daisysp6String10SetDampingEf
 307              		.syntax unified
 308              		.thumb
 309              		.thumb_func
 310              		.fpu fpv5-d16
 312              	_ZN7daisysp6String10SetDampingEf:
 313              		@ args = 0, pretend = 0, frame = 0
 314              		@ frame_needed = 0, uses_anonymous_args = 0
 315              		@ link register save eliminated.
 316 0000 41F22443 		movw	r3, #5156
 317 0004 F7EE007A 		vmov.f32	s15, #1.0e+0
 318 0008 9FED047A 		vldr.32	s14, .L18
 319 000c 0344     		add	r3, r3, r0
 320              		.syntax unified
 321              	@ 36 "Source/Utility/dsp.h" 1
 322 000e 80FE070A 		vmaxnm.f32 s0, s0, s14
 323              	@ 0 "" 2
 324              	@ 47 "Source/Utility/dsp.h" 1
 325 0012 80FE670A 		vminnm.f32 s0, s0, s15
 326              	@ 0 "" 2
 327              		.thumb
 328              		.syntax unified
 329 0016 83ED000A 		vstr.32	s0, [r3]
 330 001a 7047     		bx	lr
 331              	.L19:
 332              		.align	2
 333              	.L18:
 334 001c 00000000 		.word	0
 336              		.section	.text._ZN7daisysp6String15ProcessInternalILNS0_18StringNonLinearityE0EEEff,"axG",%progbit
 337              		.align	1
 338              		.p2align 2,,3
 339              		.weak	_ZN7daisysp6String15ProcessInternalILNS0_18StringNonLinearityE0EEEff
 340              		.syntax unified
 341              		.thumb
 342              		.thumb_func
 343              		.fpu fpv5-d16
 345              	_ZN7daisysp6String15ProcessInternalILNS0_18StringNonLinearityE0EEEff:
 346              		@ args = 0, pretend = 0, frame = 8
 347              		@ frame_needed = 0, uses_anonymous_args = 0
 348 0000 F0B5     		push	{r4, r5, r6, r7, lr}
 349 0002 00F58055 		add	r5, r0, #4096
 350 0006 F7EE007A 		vmov.f32	s15, #1.0e+0
 351 000a F1EE005A 		vmov.f32	s11, #4.0e+0
 352 000e DFEDA46A 		vldr.32	s13, .L33
 353 0012 05F58363 		add	r3, r5, #1048
 354 0016 9FEDA37A 		vldr.32	s14, .L33+4
 355 001a 00F5A152 		add	r2, r0, #5152
ARM GAS  C:\Users\pedro\AppData\Local\Temp\cc4tiZ6h.s 			page 7


 356 001e 0446     		mov	r4, r0
 357 0020 2DED068B 		vpush.64	{d8, d9, d10}
 358 0024 D3ED008A 		vldr.32	s17, [r3]
 359 0028 F0EE409A 		vmov.f32	s19, s0
 360 002c 83B0     		sub	sp, sp, #12
 361 002e 92ED006A 		vldr.32	s12, [r2]
 362 0032 87EEA8AA 		vdiv.f32	s20, s15, s17
 363              		.syntax unified
 364              	@ 36 "Source/Utility/dsp.h" 1
 365 0036 8AFE25AA 		vmaxnm.f32 s20, s20, s11
 366              	@ 0 "" 2
 367              	@ 47 "Source/Utility/dsp.h" 1
 368 003a 8AFE66AA 		vminnm.f32 s20, s20, s13
 369              	@ 0 "" 2
 370              		.thumb
 371              		.syntax unified
 372 003e 28EE8A9A 		vmul.f32	s18, s17, s20
 373 0042 B4EEC79A 		vcmpe.f32	s18, s14
 374 0046 F1EE10FA 		vmrs	APSR_nzcv, FPSCR
 375 004a 05DB     		blt	.L21
 376 004c B0EE679A 		vmov.f32	s18, s15
 377 0050 05F26443 		addw	r3, r5, #1124
 378 0054 C3ED007A 		vstr.32	s15, [r3]
 379              	.L21:
 380 0058 05F22446 		addw	r6, r5, #1060
 381 005c B2EE088A 		vmov.f32	s16, #1.2e+1
 382 0060 DFED915A 		vldr.32	s11, .L33+8
 383 0064 F3EE086A 		vmov.f32	s13, #2.4e+1
 384 0068 D6ED007A 		vldr.32	s15, [r6]
 385 006c B0EE000A 		vmov.f32	s0, #2.0e+0
 386 0070 DFED8E0A 		vldr.32	s1, .L33+12
 387 0074 67EEA77A 		vmul.f32	s15, s15, s15
 388 0078 9FED8D7A 		vldr.32	s14, .L33+16
 389 007c A7EEA58A 		vfma.f32	s16, s15, s11
 390 0080 A6EE268A 		vfma.f32	s16, s12, s13
 391              		.syntax unified
 392              	@ 47 "Source/Utility/dsp.h" 1
 393 0084 88FE478A 		vminnm.f32 s16, s16, s14
 394              	@ 0 "" 2
 395              		.thumb
 396              		.syntax unified
 397 0088 68EE200A 		vmul.f32	s1, s16, s1
 398 008c FFF7FEFF 		bl	powf
 399 0090 D6ED007A 		vldr.32	s15, [r6]
 400 0094 9FED877A 		vldr.32	s14, .L33+20
 401 0098 68EE808A 		vmul.f32	s17, s17, s0
 402 009c 9FED860A 		vldr.32	s0, .L33+24
 403 00a0 F4EEC77A 		vcmpe.f32	s15, s14
 404              		.syntax unified
 405              	@ 47 "Source/Utility/dsp.h" 1
 406 00a4 C8FEC08A 		vminnm.f32 s17, s17, s0
 407              	@ 0 "" 2
 408              		.thumb
 409              		.syntax unified
 410 00a8 F1EE10FA 		vmrs	APSR_nzcv, FPSCR
 411 00ac 11DB     		blt	.L23
 412 00ae 77EEC77A 		vsub.f32	s15, s15, s14
ARM GAS  C:\Users\pedro\AppData\Local\Temp\cc4tiZ6h.s 			page 8


 413 00b2 DFED826A 		vldr.32	s13, .L33+28
 414 00b6 B3EE046A 		vmov.f32	s12, #2.0e+1
 415 00ba 9FED817A 		vldr.32	s14, .L33+32
 416 00be 76EEE86A 		vsub.f32	s13, s13, s17
 417 00c2 37EE487A 		vsub.f32	s14, s14, s16
 418 00c6 67EE867A 		vmul.f32	s15, s15, s12
 419 00ca E6EEA78A 		vfma.f32	s17, s13, s15
 420 00ce A7EE278A 		vfma.f32	s16, s14, s15
 421              	.L23:
 422 00d2 05F58563 		add	r3, r5, #1064
 423 00d6 41F22C46 		movw	r6, #5164
 424 00da 05F22C42 		addw	r2, r5, #1068
 425 00de 05F26447 		addw	r7, r5, #1124
 426 00e2 93ED000A 		vldr.32	s0, [r3]
 427 00e6 2644     		add	r6, r6, r4
 428 00e8 F7EE00AA 		vmov.f32	s21, #1.0e+0
 429 00ec 60EE288A 		vmul.f32	s17, s0, s17
 430 00f0 3046     		mov	r0, r6
 431 00f2 C2ED038A 		vstr.32	s17, [r2, #12]
 432 00f6 FFF7FEFF 		bl	_ZN7daisysp4Tone21CalculateCoefficientsEv
 433 00fa DFED6C0A 		vldr.32	s1, .L33+12
 434 00fe B0EE000A 		vmov.f32	s0, #2.0e+0
 435 0102 68EE200A 		vmul.f32	s1, s16, s1
 436 0106 FFF7FEFF 		bl	powf
 437 010a D7ED007A 		vldr.32	s15, [r7]
 438 010e 79EE277A 		vadd.f32	s15, s18, s15
 439 0112 F4EEEA7A 		vcmpe.f32	s15, s21
 440 0116 F1EE10FA 		vmrs	APSR_nzcv, FPSCR
 441 011a 40F3BE80 		ble	.L32
 442 011e 77EEEA7A 		vsub.f32	s15, s15, s21
 443 0122 05F21C43 		addw	r3, r5, #1052
 444 0126 8AEE800A 		vdiv.f32	s0, s21, s0
 445 012a 93ED008A 		vldr.32	s16, [r3]
 446 012e C7ED007A 		vstr.32	s15, [r7]
 447 0132 FFF7FEFF 		bl	atanf
 448 0136 DFED637A 		vldr.32	s15, .L33+36
 449 013a 9FED637A 		vldr.32	s14, .L33+40
 450 013e 04F5A351 		add	r1, r4, #5216
 451 0142 30EE000A 		vadd.f32	s0, s0, s0
 452 0146 6368     		ldr	r3, [r4, #4]
 453 0148 28EE088A 		vmul.f32	s16, s16, s16
 454 014c D1ED006A 		vldr.32	s13, [r1]
 455 0150 F6EE005A 		vmov.f32	s11, #5.0e-1
 456 0154 DFED5D4A 		vldr.32	s9, .L33+44
 457 0158 BFEE086A 		vmov.f32	s12, #-1.5e+0
 458 015c 41F24840 		movw	r0, #5192
 459 0160 28EE078A 		vmul.f32	s16, s16, s14
 460 0164 80EE277A 		vdiv.f32	s14, s0, s15
 461 0168 2044     		add	r0, r0, r4
 462 016a F0EE6A7A 		vmov.f32	s15, s21
 463 016e BBEE044A 		vmov.f32	s8, #-2.0e+1
 464 0172 F3EE043A 		vmov.f32	s7, #2.0e+1
 465 0176 E6EEC87A 		vfms.f32	s15, s13, s16
 466 017a 3AEEC77A 		vsub.f32	s14, s21, s14
 467 017e 27EE0AAA 		vmul.f32	s20, s14, s20
 468 0182 27EE8AAA 		vmul.f32	s20, s15, s20
 469 0186 FDEECA7A 		vcvt.s32.f32	s15, s20
ARM GAS  C:\Users\pedro\AppData\Local\Temp\cc4tiZ6h.s 			page 9


 470 018a 17EE902A 		vmov	r2, s15	@ int
 471 018e B8EEE77A 		vcvt.f32.s32	s14, s15
 472 0192 1A44     		add	r2, r2, r3
 473 0194 3AEE47AA 		vsub.f32	s20, s20, s14
 474 0198 1346     		mov	r3, r2
 475 019a 02F20142 		addw	r2, r2, #1025
 476 019e C2F30902 		ubfx	r2, r2, #0, #10
 477 01a2 04EB8202 		add	r2, r4, r2, lsl #2
 478 01a6 92ED037A 		vldr.32	s14, [r2, #12]
 479 01aa 03F2FF32 		addw	r2, r3, #1023
 480 01ae C2F30902 		ubfx	r2, r2, #0, #10
 481 01b2 04EB8202 		add	r2, r4, r2, lsl #2
 482 01b6 D2ED036A 		vldr.32	s13, [r2, #12]
 483 01ba C3F30902 		ubfx	r2, r3, #0, #10
 484 01be 03F20243 		addw	r3, r3, #1026
 485 01c2 04EB8202 		add	r2, r4, r2, lsl #2
 486 01c6 77EE666A 		vsub.f32	s13, s14, s13
 487 01ca C3F30903 		ubfx	r3, r3, #0, #10
 488 01ce 92ED030A 		vldr.32	s0, [r2, #12]
 489 01d2 04EB8303 		add	r3, r4, r3, lsl #2
 490 01d6 30EE477A 		vsub.f32	s14, s0, s14
 491 01da 93ED035A 		vldr.32	s10, [r3, #12]
 492 01de F0EE477A 		vmov.f32	s15, s14
 493 01e2 35EE405A 		vsub.f32	s10, s10, s0
 494 01e6 E6EEA57A 		vfma.f32	s15, s13, s11
 495 01ea 37EE277A 		vadd.f32	s14, s14, s15
 496 01ee A5EE257A 		vfma.f32	s14, s10, s11
 497 01f2 77EE877A 		vadd.f32	s15, s15, s14
 498 01f6 DAEE077A 		vfnms.f32	s15, s20, s14
 499 01fa 6AEE277A 		vmul.f32	s15, s20, s15
 500 01fe E6EEA57A 		vfma.f32	s15, s13, s11
 501 0202 AAEE270A 		vfma.f32	s0, s20, s15
 502 0206 F0EEC07A 		vabs.f32	s15, s0
 503 020a B5EEC00A 		vcmpe.f32	s0, #0
 504 020e 39EE800A 		vadd.f32	s0, s19, s0
 505 0212 37EEE47A 		vsub.f32	s14, s15, s9
 506 0216 F1EE10FA 		vmrs	APSR_nzcv, FPSCR
 507              		.syntax unified
 508              	@ 36 "Source/Utility/dsp.h" 1
 509 021a 80FE040A 		vmaxnm.f32 s0, s0, s8
 510              	@ 0 "" 2
 511              		.thumb
 512              		.syntax unified
 513 021e F0EEC77A 		vabs.f32	s15, s14
 514 0222 7AFE86AA 		vselgt.f32	s21, s21, s12
 515              		.syntax unified
 516              	@ 47 "Source/Utility/dsp.h" 1
 517 0226 80FE630A 		vminnm.f32 s0, s0, s7
 518              	@ 0 "" 2
 519              		.thumb
 520              		.syntax unified
 521 022a 77EE877A 		vadd.f32	s15, s15, s14
 522 022e 8DED010A 		vstr.32	s0, [sp, #4]
 523 0232 67EEAAAA 		vmul.f32	s21, s15, s21
 524 0236 C1ED00AA 		vstr.32	s21, [r1]
 525 023a FFF7FEFF 		bl	_ZN7daisysp7DcBlock7ProcessEf
 526 023e 01A9     		add	r1, sp, #4
ARM GAS  C:\Users\pedro\AppData\Local\Temp\cc4tiZ6h.s 			page 10


 527 0240 3046     		mov	r0, r6
 528 0242 8DED010A 		vstr.32	s0, [sp, #4]
 529 0246 FFF7FEFF 		bl	_ZN7daisysp4Tone7ProcessERf
 530 024a 6368     		ldr	r3, [r4, #4]
 531 024c 05F58D61 		add	r1, r5, #1128
 532 0250 D7ED007A 		vldr.32	s15, [r7]
 533 0254 03F2FF32 		addw	r2, r3, #1023
 534 0258 04EB8303 		add	r3, r4, r3, lsl #2
 535 025c C2F30902 		ubfx	r2, r2, #0, #10
 536 0260 83ED030A 		vstr.32	s0, [r3, #12]
 537 0264 05F26C43 		addw	r3, r5, #1132
 538 0268 6260     		str	r2, [r4, #4]
 539 026a 0A68     		ldr	r2, [r1]	@ float
 540 026c 1A60     		str	r2, [r3]	@ float
 541 026e 81ED000A 		vstr.32	s0, [r1]
 542              	.L26:
 543 0272 41F26842 		movw	r2, #5224
 544 0276 41F26C41 		movw	r1, #5228
 545 027a 41F25440 		movw	r0, #5204
 546 027e 05F25445 		addw	r5, r5, #1108
 547 0282 2244     		add	r2, r2, r4
 548 0284 2144     		add	r1, r1, r4
 549 0286 2044     		add	r0, r0, r4
 550 0288 C5ED007A 		vstr.32	s15, [r5]
 551 028c 03B0     		add	sp, sp, #12
 552              		@ sp needed
 553 028e BDEC068B 		vldm	sp!, {d8-d10}
 554 0292 BDE8F040 		pop	{r4, r5, r6, r7, lr}
 555 0296 FFF7FEBF 		b	_ZN7daisysp9CrossFade7ProcessERfS1_
 556              	.L32:
 557 029a C7ED007A 		vstr.32	s15, [r7]
 558 029e E8E7     		b	.L26
 559              	.L34:
 560              		.align	2
 561              	.L33:
 562 02a0 00007F44 		.word	1149173760
 563 02a4 72F97F3F 		.word	1065351538
 564 02a8 00007042 		.word	1114636288
 565 02ac ABAAAA3D 		.word	1034594987
 566 02b0 0000A842 		.word	1118306304
 567 02b4 3333733F 		.word	1064514355
 568 02b8 EE7CFF3E 		.word	1056931054
 569 02bc E5F2FF3E 		.word	1056961253
 570 02c0 00000043 		.word	1124073472
 571 02c4 DB0FC940 		.word	1086918619
 572 02c8 0AD7233C 		.word	1008981770
 573 02cc CDCCCC3C 		.word	1020054733
 575              		.section	.text._ZN7daisysp6String15ProcessInternalILNS0_18StringNonLinearityE1EEEff,"axG",%progbit
 576              		.align	1
 577              		.p2align 2,,3
 578              		.weak	_ZN7daisysp6String15ProcessInternalILNS0_18StringNonLinearityE1EEEff
 579              		.syntax unified
 580              		.thumb
 581              		.thumb_func
 582              		.fpu fpv5-d16
 584              	_ZN7daisysp6String15ProcessInternalILNS0_18StringNonLinearityE1EEEff:
 585              		@ args = 0, pretend = 0, frame = 8
ARM GAS  C:\Users\pedro\AppData\Local\Temp\cc4tiZ6h.s 			page 11


 586              		@ frame_needed = 0, uses_anonymous_args = 0
 587 0000 F0B5     		push	{r4, r5, r6, r7, lr}
 588 0002 00F58054 		add	r4, r0, #4096
 589 0006 F7EE007A 		vmov.f32	s15, #1.0e+0
 590 000a F1EE006A 		vmov.f32	s13, #4.0e+0
 591 000e 9FEDEC7A 		vldr.32	s14, .L57
 592 0012 04F58363 		add	r3, r4, #1048
 593 0016 00F5A152 		add	r2, r0, #5152
 594 001a 0546     		mov	r5, r0
 595 001c 2DED088B 		vpush.64	{d8, d9, d10, d11}
 596 0020 D3ED008A 		vldr.32	s17, [r3]
 597 0024 F0EE409A 		vmov.f32	s19, s0
 598 0028 9FEDE68A 		vldr.32	s16, .L57+4
 599 002c 83B0     		sub	sp, sp, #12
 600 002e 87EEA8AA 		vdiv.f32	s20, s15, s17
 601 0032 D2ED00AA 		vldr.32	s21, [r2]
 602              		.syntax unified
 603              	@ 36 "Source/Utility/dsp.h" 1
 604 0036 8AFE26AA 		vmaxnm.f32 s20, s20, s13
 605              	@ 0 "" 2
 606              	@ 47 "Source/Utility/dsp.h" 1
 607 003a 8AFE48AA 		vminnm.f32 s20, s20, s16
 608              	@ 0 "" 2
 609              		.thumb
 610              		.syntax unified
 611 003e 28EE8A9A 		vmul.f32	s18, s17, s20
 612 0042 B4EEC79A 		vcmpe.f32	s18, s14
 613 0046 F1EE10FA 		vmrs	APSR_nzcv, FPSCR
 614 004a 05DB     		blt	.L36
 615 004c B0EE679A 		vmov.f32	s18, s15
 616 0050 04F26443 		addw	r3, r4, #1124
 617 0054 C3ED007A 		vstr.32	s15, [r3]
 618              	.L36:
 619 0058 04F22446 		addw	r6, r4, #1060
 620 005c B2EE088A 		vmov.f32	s16, #1.2e+1
 621 0060 9FEDD96A 		vldr.32	s12, .L57+8
 622 0064 F3EE086A 		vmov.f32	s13, #2.4e+1
 623 0068 D6ED007A 		vldr.32	s15, [r6]
 624 006c B0EE000A 		vmov.f32	s0, #2.0e+0
 625 0070 DFEDD60A 		vldr.32	s1, .L57+12
 626 0074 67EEA77A 		vmul.f32	s15, s15, s15
 627 0078 9FEDD57A 		vldr.32	s14, .L57+16
 628 007c A7EE868A 		vfma.f32	s16, s15, s12
 629 0080 AAEEA68A 		vfma.f32	s16, s21, s13
 630              		.syntax unified
 631              	@ 47 "Source/Utility/dsp.h" 1
 632 0084 88FE478A 		vminnm.f32 s16, s16, s14
 633              	@ 0 "" 2
 634              		.thumb
 635              		.syntax unified
 636 0088 68EE200A 		vmul.f32	s1, s16, s1
 637 008c FFF7FEFF 		bl	powf
 638 0090 D6ED007A 		vldr.32	s15, [r6]
 639 0094 9FEDCF7A 		vldr.32	s14, .L57+20
 640 0098 68EE808A 		vmul.f32	s17, s17, s0
 641 009c 9FEDCE0A 		vldr.32	s0, .L57+24
 642 00a0 F4EEC77A 		vcmpe.f32	s15, s14
ARM GAS  C:\Users\pedro\AppData\Local\Temp\cc4tiZ6h.s 			page 12


 643              		.syntax unified
 644              	@ 47 "Source/Utility/dsp.h" 1
 645 00a4 C8FEC08A 		vminnm.f32 s17, s17, s0
 646              	@ 0 "" 2
 647              		.thumb
 648              		.syntax unified
 649 00a8 F1EE10FA 		vmrs	APSR_nzcv, FPSCR
 650 00ac 17DB     		blt	.L38
 651 00ae 77EEC77A 		vsub.f32	s15, s15, s14
 652 00b2 9FEDCA6A 		vldr.32	s12, .L57+28
 653 00b6 F3EE045A 		vmov.f32	s11, #2.0e+1
 654 00ba 9FEDC97A 		vldr.32	s14, .L57+32
 655 00be F7EE006A 		vmov.f32	s13, #1.0e+0
 656 00c2 36EE686A 		vsub.f32	s12, s12, s17
 657 00c6 67EEA57A 		vmul.f32	s15, s15, s11
 658 00ca 76EEEA6A 		vsub.f32	s13, s13, s21
 659 00ce 37EE487A 		vsub.f32	s14, s14, s16
 660 00d2 E6EE278A 		vfma.f32	s17, s12, s15
 661 00d6 E6EEA7AA 		vfma.f32	s21, s13, s15
 662 00da A7EE278A 		vfma.f32	s16, s14, s15
 663              	.L38:
 664 00de 04F58567 		add	r7, r4, #1064
 665 00e2 41F22C46 		movw	r6, #5164
 666 00e6 04F22C43 		addw	r3, r4, #1068
 667 00ea 9FEDBEBA 		vldr.32	s22, .L57+36
 668 00ee 97ED000A 		vldr.32	s0, [r7]
 669 00f2 2E44     		add	r6, r6, r5
 670 00f4 60EE288A 		vmul.f32	s17, s0, s17
 671 00f8 3046     		mov	r0, r6
 672 00fa C3ED038A 		vstr.32	s17, [r3, #12]
 673 00fe FFF7FEFF 		bl	_ZN7daisysp4Tone21CalculateCoefficientsEv
 674 0102 DFEDB20A 		vldr.32	s1, .L57+12
 675 0106 B0EE000A 		vmov.f32	s0, #2.0e+0
 676 010a 68EE200A 		vmul.f32	s1, s16, s1
 677 010e FFF7FEFF 		bl	powf
 678 0112 DFEDB55A 		vldr.32	s11, .L57+40
 679 0116 97ED006A 		vldr.32	s12, [r7]
 680 011a 04F21C43 		addw	r3, r4, #1052
 681 011e F6EE087A 		vmov.f32	s15, #7.5e-1
 682 0122 85EE867A 		vdiv.f32	s14, s11, s12
 683 0126 D3ED00BA 		vldr.32	s23, [r3]
 684 012a F4EEE7BA 		vcmpe.f32	s23, s15
 685 012e F7EE006A 		vmov.f32	s13, #1.0e+0
 686 0132 F1EE10FA 		vmrs	APSR_nzcv, FPSCR
 687 0136 27EE0A7A 		vmul.f32	s14, s14, s20
 688              		.syntax unified
 689              	@ 36 "Source/Utility/dsp.h" 1
 690 013a 87FE267A 		vmaxnm.f32 s14, s14, s13
 691              	@ 0 "" 2
 692              	@ 47 "Source/Utility/dsp.h" 1
 693 013e 87FE4BBA 		vminnm.f32 s22, s14, s22
 694              	@ 0 "" 2
 695              		.thumb
 696              		.syntax unified
 697 0142 2EDD     		ble	.L54
 698 0144 7BEEE77A 		vsub.f32	s15, s23, s15
 699 0148 DFEDA88A 		vldr.32	s17, .L57+44
ARM GAS  C:\Users\pedro\AppData\Local\Temp\cc4tiZ6h.s 			page 13


 700 014c B1EE007A 		vmov.f32	s14, #4.0e+0
 701 0150 67EE877A 		vmul.f32	s15, s15, s14
 702 0154 67EEA77A 		vmul.f32	s15, s15, s15
 703 0158 67EEA88A 		vmul.f32	s17, s15, s17
 704              	.L40:
 705 015c 04F26443 		addw	r3, r4, #1124
 706 0160 B7EE008A 		vmov.f32	s16, #1.0e+0
 707 0164 D3ED007A 		vldr.32	s15, [r3]
 708 0168 79EE277A 		vadd.f32	s15, s18, s15
 709 016c F4EEC87A 		vcmpe.f32	s15, s16
 710 0170 F1EE10FA 		vmrs	APSR_nzcv, FPSCR
 711 0174 18DC     		bgt	.L42
 712 0176 C3ED007A 		vstr.32	s15, [r3]
 713              	.L43:
 714 017a 41F26842 		movw	r2, #5224
 715 017e 41F26C41 		movw	r1, #5228
 716 0182 41F25440 		movw	r0, #5204
 717 0186 04F25444 		addw	r4, r4, #1108
 718 018a 2A44     		add	r2, r2, r5
 719 018c 2944     		add	r1, r1, r5
 720 018e 2844     		add	r0, r0, r5
 721 0190 C4ED007A 		vstr.32	s15, [r4]
 722 0194 03B0     		add	sp, sp, #12
 723              		@ sp needed
 724 0196 BDEC088B 		vldm	sp!, {d8-d11}
 725 019a BDE8F040 		pop	{r4, r5, r6, r7, lr}
 726 019e FFF7FEBF 		b	_ZN7daisysp9CrossFade7ProcessERfS1_
 727              	.L54:
 728 01a2 DFED938A 		vldr.32	s17, .L57+48
 729 01a6 D9E7     		b	.L40
 730              	.L42:
 731 01a8 B0EE007A 		vmov.f32	s14, #2.0e+0
 732 01ac DFED916A 		vldr.32	s13, .L57+52
 733 01b0 77EEC87A 		vsub.f32	s15, s15, s16
 734 01b4 88EE000A 		vdiv.f32	s0, s16, s0
 735 01b8 C3ED007A 		vstr.32	s15, [r3]
 736 01bc 37EE6B9A 		vsub.f32	s18, s14, s23
 737 01c0 29EE2B9A 		vmul.f32	s18, s18, s23
 738 01c4 29EE269A 		vmul.f32	s18, s18, s13
 739 01c8 FFF7FEFF 		bl	atanf
 740 01cc 30EE000A 		vadd.f32	s0, s0, s0
 741 01d0 9FED897A 		vldr.32	s14, .L57+56
 742 01d4 0023     		movs	r3, #0
 743 01d6 C0EE077A 		vdiv.f32	s15, s0, s14
 744 01da 0193     		str	r3, [sp, #4]	@ float
 745 01dc 78EE677A 		vsub.f32	s15, s16, s15
 746 01e0 27EE8AAA 		vmul.f32	s20, s15, s20
 747 01e4 FFF7FEFF 		bl	rand
 748 01e8 06EE900A 		vmov	s13, r0	@ int
 749 01ec FEEE007A 		vmov.f32	s15, #-5.0e-1
 750 01f0 9FED825A 		vldr.32	s10, .L57+60
 751 01f4 04F25C43 		addw	r3, r4, #1116
 752 01f8 F8EEE65A 		vcvt.f32.s32	s11, s13
 753 01fc 9FED807A 		vldr.32	s14, .L57+64
 754 0200 DFED806A 		vldr.32	s13, .L57+68
 755 0204 2AEE876A 		vmul.f32	s12, s21, s14
 756 0208 E5EE857A 		vfma.f32	s15, s11, s10
ARM GAS  C:\Users\pedro\AppData\Local\Temp\cc4tiZ6h.s 			page 14


 757 020c E6EE2A6A 		vfma.f32	s13, s12, s21
 758 0210 B1EE006A 		vmov.f32	s12, #4.0e+0
 759 0214 B0EE677A 		vmov.f32	s14, s15
 760 0218 D3ED007A 		vldr.32	s15, [r3]
 761 021c 37EE677A 		vsub.f32	s14, s14, s15
 762 0220 E6EE877A 		vfma.f32	s15, s13, s14
 763 0224 A7EEA88A 		vfma.f32	s16, s15, s17
 764 0228 C3ED007A 		vstr.32	s15, [r3]
 765 022c 28EE0A8A 		vmul.f32	s16, s16, s20
 766 0230 69EE087A 		vmul.f32	s15, s18, s16
 767 0234 F4EEC67A 		vcmpe.f32	s15, s12
 768 0238 F1EE10FA 		vmrs	APSR_nzcv, FPSCR
 769 023c 10DB     		blt	.L44
 770 023e DFED726A 		vldr.32	s13, .L57+72
 771 0242 9FED727A 		vldr.32	s14, .L57+76
 772 0246 A9EE667A 		vfms.f32	s14, s18, s13
 773 024a F0EE486A 		vmov.f32	s13, s16
 774 024e 27EEC77A 		vnmul.f32	s14, s15, s14
 775 0252 E7EE0B6A 		vfma.f32	s13, s14, s22
 776 0256 F4EEC66A 		vcmpe.f32	s13, s12
 777 025a F1EE10FA 		vmrs	APSR_nzcv, FPSCR
 778 025e 6FDA     		bge	.L56
 779              	.L44:
 780 0260 FDEEC87A 		vcvt.s32.f32	s15, s16
 781 0264 6A68     		ldr	r2, [r5, #4]
 782 0266 B6EE006A 		vmov.f32	s12, #5.0e-1
 783 026a 17EE903A 		vmov	r3, s15	@ int
 784 026e F8EEE77A 		vcvt.f32.s32	s15, s15
 785 0272 1344     		add	r3, r3, r2
 786 0274 38EE678A 		vsub.f32	s16, s16, s15
 787 0278 C3F30902 		ubfx	r2, r3, #0, #10
 788 027c 05EB8202 		add	r2, r5, r2, lsl #2
 789 0280 92ED030A 		vldr.32	s0, [r2, #12]
 790 0284 03F20142 		addw	r2, r3, #1025
 791 0288 C2F30902 		ubfx	r2, r2, #0, #10
 792 028c 05EB8202 		add	r2, r5, r2, lsl #2
 793 0290 D2ED036A 		vldr.32	s13, [r2, #12]
 794 0294 03F20242 		addw	r2, r3, #1026
 795 0298 03F2FF33 		addw	r3, r3, #1023
 796 029c 30EE667A 		vsub.f32	s14, s0, s13
 797 02a0 C2F30902 		ubfx	r2, r2, #0, #10
 798 02a4 C3F30903 		ubfx	r3, r3, #0, #10
 799 02a8 05EB8202 		add	r2, r5, r2, lsl #2
 800 02ac 05EB8303 		add	r3, r5, r3, lsl #2
 801 02b0 D2ED035A 		vldr.32	s11, [r2, #12]
 802 02b4 D3ED037A 		vldr.32	s15, [r3, #12]
 803 02b8 75EEC05A 		vsub.f32	s11, s11, s0
 804 02bc 76EEE76A 		vsub.f32	s13, s13, s15
 805 02c0 F0EE477A 		vmov.f32	s15, s14
 806 02c4 E6EE867A 		vfma.f32	s15, s13, s12
 807 02c8 37EE277A 		vadd.f32	s14, s14, s15
 808 02cc A5EE867A 		vfma.f32	s14, s11, s12
 809 02d0 77EE877A 		vadd.f32	s15, s15, s14
 810 02d4 D8EE077A 		vfnms.f32	s15, s16, s14
 811 02d8 68EE277A 		vmul.f32	s15, s16, s15
 812 02dc E6EE867A 		vfma.f32	s15, s13, s12
 813 02e0 A8EE270A 		vfma.f32	s0, s16, s15
ARM GAS  C:\Users\pedro\AppData\Local\Temp\cc4tiZ6h.s 			page 15


 814              	.L47:
 815 02e4 41F24840 		movw	r0, #5192
 816 02e8 F3EE047A 		vmov.f32	s15, #2.0e+1
 817 02ec 39EE800A 		vadd.f32	s0, s19, s0
 818 02f0 2844     		add	r0, r0, r5
 819 02f2 FBEE049A 		vmov.f32	s19, #-2.0e+1
 820              		.syntax unified
 821              	@ 36 "Source/Utility/dsp.h" 1
 822 02f6 80FE290A 		vmaxnm.f32 s0, s0, s19
 823              	@ 0 "" 2
 824              	@ 47 "Source/Utility/dsp.h" 1
 825 02fa 80FE670A 		vminnm.f32 s0, s0, s15
 826              	@ 0 "" 2
 827              		.thumb
 828              		.syntax unified
 829 02fe 8DED010A 		vstr.32	s0, [sp, #4]
 830 0302 FFF7FEFF 		bl	_ZN7daisysp7DcBlock7ProcessEf
 831 0306 01A9     		add	r1, sp, #4
 832 0308 3046     		mov	r0, r6
 833 030a 8DED010A 		vstr.32	s0, [sp, #4]
 834 030e FFF7FEFF 		bl	_ZN7daisysp4Tone7ProcessERf
 835 0312 6B68     		ldr	r3, [r5, #4]
 836 0314 04F58D61 		add	r1, r4, #1128
 837 0318 04F26C42 		addw	r2, r4, #1132
 838 031c 05EB8300 		add	r0, r5, r3, lsl #2
 839 0320 03F2FF33 		addw	r3, r3, #1023
 840 0324 C3F30903 		ubfx	r3, r3, #0, #10
 841 0328 80ED030A 		vstr.32	s0, [r0, #12]
 842 032c 0868     		ldr	r0, [r1]	@ float
 843 032e 6B60     		str	r3, [r5, #4]
 844 0330 04F26443 		addw	r3, r4, #1124
 845 0334 1060     		str	r0, [r2]	@ float
 846 0336 D3ED007A 		vldr.32	s15, [r3]
 847 033a 81ED000A 		vstr.32	s0, [r1]
 848 033e 1CE7     		b	.L43
 849              	.L56:
 850 0340 BDEEE67A 		vcvt.s32.f32	s14, s13
 851 0344 6B68     		ldr	r3, [r5, #4]
 852 0346 B0EEEB6A 		vabs.f32	s12, s23
 853 034a DFED315A 		vldr.32	s11, .L57+80
 854 034e 9FED315A 		vldr.32	s10, .L57+84
 855 0352 FCEEE77A 		vcvt.u32.f32	s15, s15
 856 0356 17EE102A 		vmov	r2, s14	@ int
 857 035a B8EEC77A 		vcvt.f32.s32	s14, s14
 858 035e 36EE256A 		vadd.f32	s12, s12, s11
 859 0362 1344     		add	r3, r3, r2
 860 0364 6BEE85BA 		vmul.f32	s23, s23, s10
 861 0368 76EEC76A 		vsub.f32	s13, s13, s14
 862 036c 5A1C     		adds	r2, r3, #1
 863 036e C3F30903 		ubfx	r3, r3, #0, #10
 864 0372 CBEE865A 		vdiv.f32	s11, s23, s12
 865 0376 C2F30902 		ubfx	r2, r2, #0, #10
 866 037a 05EB8303 		add	r3, r5, r3, lsl #2
 867 037e 05EB8202 		add	r2, r5, r2, lsl #2
 868 0382 93ED037A 		vldr.32	s14, [r3, #12]
 869 0386 17EE903A 		vmov	r3, s15	@ int
 870 038a 92ED036A 		vldr.32	s12, [r2, #12]
ARM GAS  C:\Users\pedro\AppData\Local\Temp\cc4tiZ6h.s 			page 16


 871 038e F0EE477A 		vmov.f32	s15, s14
 872 0392 2269     		ldr	r2, [r4, #16]
 873 0394 36EE476A 		vsub.f32	s12, s12, s14
 874 0398 1344     		add	r3, r3, r2
 875 039a E6EE867A 		vfma.f32	s15, s13, s12
 876 039e DBB2     		uxtb	r3, r3
 877 03a0 04EB8303 		add	r3, r4, r3, lsl #2
 878 03a4 93ED060A 		vldr.32	s0, [r3, #24]
 879 03a8 04EB8203 		add	r3, r4, r2, lsl #2
 880 03ac FF32     		adds	r2, r2, #255
 881 03ae E5EE807A 		vfma.f32	s15, s11, s0
 882 03b2 D2B2     		uxtb	r2, r2
 883 03b4 C3ED067A 		vstr.32	s15, [r3, #24]
 884 03b8 A7EEE50A 		vfms.f32	s0, s15, s11
 885 03bc 2261     		str	r2, [r4, #16]
 886 03be 91E7     		b	.L47
 887              	.L58:
 888              		.align	2
 889              	.L57:
 890 03c0 72F97F3F 		.word	1065351538
 891 03c4 00007F44 		.word	1149173760
 892 03c8 00007042 		.word	1114636288
 893 03cc ABAAAA3D 		.word	1034594987
 894 03d0 0000A842 		.word	1118306304
 895 03d4 3333733F 		.word	1064514355
 896 03d8 EE7CFF3E 		.word	1056931054
 897 03dc E5F2FF3E 		.word	1056961253
 898 03e0 00000043 		.word	1124073472
 899 03e4 66660640 		.word	1074161254
 900 03e8 00002043 		.word	1126170624
 901 03ec CDCCCC3D 		.word	1036831949
 902 03f0 00000000 		.word	0
 903 03f4 6666663E 		.word	1046898278
 904 03f8 DB0FC940 		.word	1086918619
 905 03fc 00000030 		.word	805306368
 906 0400 D7A3703F 		.word	1064346583
 907 0404 8FC2753D 		.word	1031127695
 908 0408 2DB29D3E 		.word	1050522157
 909 040c 60E5D03E 		.word	1053877600
 910 0410 9A99193E 		.word	1041865114
 911 0414 3F351EBF 		.word	-1088539329
 913              		.section	.text._ZN7daisysp6String7ProcessEf,"ax",%progbits
 914              		.align	1
 915              		.p2align 2,,3
 916              		.global	_ZN7daisysp6String7ProcessEf
 917              		.syntax unified
 918              		.thumb
 919              		.thumb_func
 920              		.fpu fpv5-d16
 922              	_ZN7daisysp6String7ProcessEf:
 923              		@ args = 0, pretend = 0, frame = 0
 924              		@ frame_needed = 0, uses_anonymous_args = 0
 925 0000 10B5     		push	{r4, lr}
 926 0002 41F21C44 		movw	r4, #5148
 927 0006 0444     		add	r4, r4, r0
 928 0008 D4ED007A 		vldr.32	s15, [r4]
 929 000c F5EEC07A 		vcmpe.f32	s15, #0
ARM GAS  C:\Users\pedro\AppData\Local\Temp\cc4tiZ6h.s 			page 17


 930 0010 F1EE10FA 		vmrs	APSR_nzcv, FPSCR
 931 0014 02D9     		bls	.L66
 932 0016 FFF7FEFF 		bl	_ZN7daisysp6String15ProcessInternalILNS0_18StringNonLinearityE1EEEff
 933 001a 10BD     		pop	{r4, pc}
 934              	.L66:
 935 001c F1EE677A 		vneg.f32	s15, s15
 936 0020 C4ED007A 		vstr.32	s15, [r4]
 937 0024 FFF7FEFF 		bl	_ZN7daisysp6String15ProcessInternalILNS0_18StringNonLinearityE0EEEff
 938 0028 D4ED007A 		vldr.32	s15, [r4]
 939 002c F1EE677A 		vneg.f32	s15, s15
 940 0030 C4ED007A 		vstr.32	s15, [r4]
 941 0034 10BD     		pop	{r4, pc}
 943 0036 00BF     		.ident	"GCC: (GNU Arm Embedded Toolchain 10-2020-q4-major) 10.2.1 20201103 (release)"
ARM GAS  C:\Users\pedro\AppData\Local\Temp\cc4tiZ6h.s 			page 18

