ARM GAS  C:\Users\pedro\AppData\Local\Temp\cc6qDVvb.s 			page 1


   1              		.cpu cortex-m7
   2              		.eabi_attribute 28, 1
   3              		.eabi_attribute 20, 1
   4              		.eabi_attribute 21, 1
   5              		.eabi_attribute 23, 3
   6              		.eabi_attribute 24, 1
   7              		.eabi_attribute 25, 1
   8              		.eabi_attribute 26, 1
   9              		.eabi_attribute 30, 2
  10              		.eabi_attribute 34, 1
  11              		.eabi_attribute 18, 4
  12              		.file	"line.cpp"
  13              		.text
  14              		.section	.text._ZN7daisysp4Line4InitEf,"ax",%progbits
  15              		.align	1
  16              		.p2align 2,,3
  17              		.global	_ZN7daisysp4Line4InitEf
  18              		.arch armv7e-m
  19              		.syntax unified
  20              		.thumb
  21              		.thumb_func
  22              		.fpu fpv5-d16
  24              	_ZN7daisysp4Line4InitEf:
  25              		@ args = 0, pretend = 0, frame = 0
  26              		@ frame_needed = 0, uses_anonymous_args = 0
  27              		@ link register save eliminated.
  28 0000 4FF07E53 		mov	r3, #1065353216
  29 0004 4FF07C51 		mov	r1, #1056964608
  30 0008 0022     		movs	r2, #0
  31 000a 80ED050A 		vstr.32	s0, [r0, #20]
  32 000e 8160     		str	r1, [r0, #8]	@ float
  33 0010 4260     		str	r2, [r0, #4]	@ float
  34 0012 0360     		str	r3, [r0]	@ float
  35 0014 0361     		str	r3, [r0, #16]	@ float
  36 0016 7047     		bx	lr
  38              		.section	.text._ZN7daisysp4Line5StartEfff,"ax",%progbits
  39              		.align	1
  40              		.p2align 2,,3
  41              		.global	_ZN7daisysp4Line5StartEfff
  42              		.syntax unified
  43              		.thumb
  44              		.thumb_func
  45              		.fpu fpv5-d16
  47              	_ZN7daisysp4Line5StartEfff:
  48              		@ args = 0, pretend = 0, frame = 0
  49              		@ frame_needed = 0, uses_anonymous_args = 0
  50              		@ link register save eliminated.
  51 0000 D0ED057A 		vldr.32	s15, [r0, #20]
  52 0004 70EEC06A 		vsub.f32	s13, s1, s0
  53 0008 0023     		movs	r3, #0
  54 000a 80ED000A 		vstr.32	s0, [r0]
  55 000e 61EE277A 		vmul.f32	s15, s2, s15
  56 0012 C0ED010A 		vstr.32	s1, [r0, #4]
  57 0016 80ED021A 		vstr.32	s2, [r0, #8]
  58 001a 80ED040A 		vstr.32	s0, [r0, #16]
  59 001e 86EEA77A 		vdiv.f32	s14, s13, s15
  60 0022 0376     		strb	r3, [r0, #24]
ARM GAS  C:\Users\pedro\AppData\Local\Temp\cc6qDVvb.s 			page 2


  61 0024 80ED037A 		vstr.32	s14, [r0, #12]
  62 0028 7047     		bx	lr
  64              		.section	.text._ZN7daisysp4Line7ProcessEPh,"ax",%progbits
  65              		.align	1
  66              		.p2align 2,,3
  67              		.global	_ZN7daisysp4Line7ProcessEPh
  68              		.syntax unified
  69              		.thumb
  70              		.thumb_func
  71              		.fpu fpv5-d16
  73              	_ZN7daisysp4Line7ProcessEPh:
  74              		@ args = 0, pretend = 0, frame = 0
  75              		@ frame_needed = 0, uses_anonymous_args = 0
  76              		@ link register save eliminated.
  77 0000 D0ED017A 		vldr.32	s15, [r0, #4]
  78 0004 90ED007A 		vldr.32	s14, [r0]
  79 0008 90ED040A 		vldr.32	s0, [r0, #16]
  80 000c F4EEC77A 		vcmpe.f32	s15, s14
  81 0010 F1EE10FA 		vmrs	APSR_nzcv, FPSCR
  82 0014 0DDD     		ble	.L5
  83 0016 F4EEC07A 		vcmpe.f32	s15, s0
  84 001a F1EE10FA 		vmrs	APSR_nzcv, FPSCR
  85 001e 08D8     		bhi	.L5
  86 0020 0122     		movs	r2, #1
  87 0022 B0EE670A 		vmov.f32	s0, s15
  88 0026 1346     		mov	r3, r2
  89 0028 0276     		strb	r2, [r0, #24]
  90              	.L15:
  91 002a C0ED047A 		vstr.32	s15, [r0, #16]
  92 002e 0B70     		strb	r3, [r1]
  93 0030 7047     		bx	lr
  94              	.L5:
  95 0032 F4EEC77A 		vcmpe.f32	s15, s14
  96 0036 F1EE10FA 		vmrs	APSR_nzcv, FPSCR
  97 003a 08D4     		bmi	.L14
  98              	.L8:
  99 003c D0ED037A 		vldr.32	s15, [r0, #12]
 100 0040 037E     		ldrb	r3, [r0, #24]	@ zero_extendqisi2
 101 0042 70EE277A 		vadd.f32	s15, s0, s15
 102 0046 C0ED047A 		vstr.32	s15, [r0, #16]
 103 004a 0B70     		strb	r3, [r1]
 104 004c 7047     		bx	lr
 105              	.L14:
 106 004e F4EEC07A 		vcmpe.f32	s15, s0
 107 0052 F1EE10FA 		vmrs	APSR_nzcv, FPSCR
 108 0056 F1DB     		blt	.L8
 109 0058 0122     		movs	r2, #1
 110 005a B0EE670A 		vmov.f32	s0, s15
 111 005e 1346     		mov	r3, r2
 112 0060 0276     		strb	r2, [r0, #24]
 113 0062 E2E7     		b	.L15
 115              		.ident	"GCC: (GNU Arm Embedded Toolchain 10-2020-q4-major) 10.2.1 20201103 (release)"
ARM GAS  C:\Users\pedro\AppData\Local\Temp\cc6qDVvb.s 			page 3

