ARM GAS  C:\Users\pedro\AppData\Local\Temp\ccaDU6Lx.s 			page 1


   1              		.cpu cortex-m7
   2              		.eabi_attribute 28, 1
   3              		.eabi_attribute 20, 1
   4              		.eabi_attribute 21, 1
   5              		.eabi_attribute 23, 3
   6              		.eabi_attribute 24, 1
   7              		.eabi_attribute 25, 1
   8              		.eabi_attribute 26, 1
   9              		.eabi_attribute 30, 2
  10              		.eabi_attribute 34, 1
  11              		.eabi_attribute 18, 4
  12              		.file	"modalvoice.cpp"
  13              		.text
  14              		.section	.text._ZN7daisysp10ModalVoice4InitEf,"ax",%progbits
  15              		.align	1
  16              		.p2align 2,,3
  17              		.global	_ZN7daisysp10ModalVoice4InitEf
  18              		.arch armv7e-m
  19              		.syntax unified
  20              		.thumb
  21              		.thumb_func
  22              		.fpu fpv5-d16
  24              	_ZN7daisysp10ModalVoice4InitEf:
  25              		@ args = 0, pretend = 0, frame = 8
  26              		@ frame_needed = 0, uses_anonymous_args = 0
  27 0000 F0EE400A 		vmov.f32	s1, s0
  28 0004 1821     		movs	r1, #24
  29 0006 9FED2F0A 		vldr.32	s0, .L4
  30 000a 10B5     		push	{r4, lr}
  31 000c 0446     		mov	r4, r0
  32 000e 2C30     		adds	r0, r0, #44
  33 0010 2DED068B 		vpush.64	{d8, d9, d10}
  34 0014 9FED2C8A 		vldr.32	s16, .L4+4
  35 0018 82B0     		sub	sp, sp, #8
  36 001a 9FED2C9A 		vldr.32	s18, .L4+8
  37 001e F7EE009A 		vmov.f32	s19, #1.0e+0
  38 0022 C4ED000A 		vstr.32	s1, [r4]
  39 0026 84ED088A 		vstr.32	s16, [r4, #32]
  40 002a 84ED0A8A 		vstr.32	s16, [r4, #40]
  41 002e 84ED098A 		vstr.32	s16, [r4, #36]
  42 0032 0190     		str	r0, [sp, #4]
  43 0034 FFF7FEFF 		bl	_ZN7daisysp9Resonator4InitEfif
  44 0038 F6EE007A 		vmov.f32	s15, #5.0e-1
  45 003c 0023     		movs	r3, #0
  46              		.syntax unified
  47              	@ 36 "Source/Utility/dsp.h" 1
  48 003e C7FE887A 		vmaxnm.f32 s15, s15, s16
  49              	@ 0 "" 2
  50              	@ 47 "Source/Utility/dsp.h" 1
  51 0042 C7FEE97A 		vminnm.f32 s15, s15, s19
  52              	@ 0 "" 2
  53              		.thumb
  54              		.syntax unified
  55 0046 67EE897A 		vmul.f32	s15, s15, s18
  56 004a 9FED21AA 		vldr.32	s20, .L4+12
  57 004e 0198     		ldr	r0, [sp, #4]
  58 0050 B0EE4A0A 		vmov.f32	s0, s20
ARM GAS  C:\Users\pedro\AppData\Local\Temp\ccaDU6Lx.s 			page 2


  59 0054 2371     		strb	r3, [r4, #4]
  60 0056 C4ED597A 		vstr.32	s15, [r4, #356]
  61 005a 84ED0A8A 		vstr.32	s16, [r4, #40]
  62 005e 84ED098A 		vstr.32	s16, [r4, #36]
  63 0062 FFF7FEFF 		bl	_ZN7daisysp9Resonator7SetFreqEf
  64 0066 DFED1B8A 		vldr.32	s17, .L4+16
  65 006a 94ED007A 		vldr.32	s14, [r4]
  66 006e B0EE680A 		vmov.f32	s0, s17
  67 0072 0198     		ldr	r0, [sp, #4]
  68 0074 CAEE077A 		vdiv.f32	s15, s20, s14
  69              		.syntax unified
  70              	@ 36 "Source/Utility/dsp.h" 1
  71 0078 89FE089A 		vmaxnm.f32 s18, s18, s16
  72              	@ 0 "" 2
  73              	@ 36 "Source/Utility/dsp.h" 1
  74 007c C7FE887A 		vmaxnm.f32 s15, s15, s16
  75              	@ 0 "" 2
  76              	@ 47 "Source/Utility/dsp.h" 1
  77 0080 89FE699A 		vminnm.f32 s18, s18, s19
  78              	@ 0 "" 2
  79              		.thumb
  80              		.syntax unified
  81 0084 84ED079A 		vstr.32	s18, [r4, #28]
  82 0088 B5EE007A 		vmov.f32	s14, #2.5e-1
  83              		.syntax unified
  84              	@ 47 "Source/Utility/dsp.h" 1
  85 008c C7FEC77A 		vminnm.f32 s15, s15, s14
  86              	@ 0 "" 2
  87              		.thumb
  88              		.syntax unified
  89 0090 C4ED027A 		vstr.32	s15, [r4, #8]
  90 0094 FFF7FEFF 		bl	_ZN7daisysp9Resonator12SetStructureEf
  91 0098 DFED0F7A 		vldr.32	s15, .L4+20
  92              		.syntax unified
  93              	@ 36 "Source/Utility/dsp.h" 1
  94 009c C7FE887A 		vmaxnm.f32 s15, s15, s16
  95              	@ 0 "" 2
  96              	@ 47 "Source/Utility/dsp.h" 1
  97 00a0 C7FEE97A 		vminnm.f32 s15, s15, s19
  98              	@ 0 "" 2
  99              		.thumb
 100              		.syntax unified
 101 00a4 27EEA77A 		vmul.f32	s14, s15, s15
 102 00a8 C4ED047A 		vstr.32	s15, [r4, #16]
 103              		.syntax unified
 104              	@ 36 "Source/Utility/dsp.h" 1
 105 00ac C8FE888A 		vmaxnm.f32 s17, s17, s16
 106              	@ 0 "" 2
 107              	@ 47 "Source/Utility/dsp.h" 1
 108 00b0 C8FEE98A 		vminnm.f32 s17, s17, s19
 109              	@ 0 "" 2
 110              		.thumb
 111              		.syntax unified
 112 00b4 84ED067A 		vstr.32	s14, [r4, #24]
 113 00b8 C4ED058A 		vstr.32	s17, [r4, #20]
 114 00bc 02B0     		add	sp, sp, #8
 115              		@ sp needed
ARM GAS  C:\Users\pedro\AppData\Local\Temp\ccaDU6Lx.s 			page 3


 116 00be BDEC068B 		vldm	sp!, {d8-d10}
 117 00c2 10BD     		pop	{r4, pc}
 118              	.L5:
 119              		.align	2
 120              	.L4:
 121 00c4 8FC2753C 		.word	1014350479
 122 00c8 00000000 		.word	0
 123 00cc 9A99993E 		.word	1050253722
 124 00d0 0000DC43 		.word	1138491392
 125 00d4 9A99193F 		.word	1058642330
 126 00d8 CDCC4C3F 		.word	1061997773
 128              		.section	.text._ZN7daisysp10ModalVoice10SetSustainEb,"ax",%progbits
 129              		.align	1
 130              		.p2align 2,,3
 131              		.global	_ZN7daisysp10ModalVoice10SetSustainEb
 132              		.syntax unified
 133              		.thumb
 134              		.thumb_func
 135              		.fpu fpv5-d16
 137              	_ZN7daisysp10ModalVoice10SetSustainEb:
 138              		@ args = 0, pretend = 0, frame = 0
 139              		@ frame_needed = 0, uses_anonymous_args = 0
 140              		@ link register save eliminated.
 141 0000 0171     		strb	r1, [r0, #4]
 142 0002 7047     		bx	lr
 144              		.section	.text._ZN7daisysp10ModalVoice4TrigEv,"ax",%progbits
 145              		.align	1
 146              		.p2align 2,,3
 147              		.global	_ZN7daisysp10ModalVoice4TrigEv
 148              		.syntax unified
 149              		.thumb
 150              		.thumb_func
 151              		.fpu fpv5-d16
 153              	_ZN7daisysp10ModalVoice4TrigEv:
 154              		@ args = 0, pretend = 0, frame = 0
 155              		@ frame_needed = 0, uses_anonymous_args = 0
 156              		@ link register save eliminated.
 157 0000 0123     		movs	r3, #1
 158 0002 4371     		strb	r3, [r0, #5]
 159 0004 7047     		bx	lr
 161 0006 00BF     		.section	.text._ZN7daisysp10ModalVoice7SetFreqEf,"ax",%progbits
 162              		.align	1
 163              		.p2align 2,,3
 164              		.global	_ZN7daisysp10ModalVoice7SetFreqEf
 165              		.syntax unified
 166              		.thumb
 167              		.thumb_func
 168              		.fpu fpv5-d16
 170              	_ZN7daisysp10ModalVoice7SetFreqEf:
 171              		@ args = 0, pretend = 0, frame = 0
 172              		@ frame_needed = 0, uses_anonymous_args = 0
 173 0000 10B5     		push	{r4, lr}
 174 0002 0446     		mov	r4, r0
 175 0004 2C30     		adds	r0, r0, #44
 176 0006 2DED028B 		vpush.64	{d8}
 177 000a B0EE408A 		vmov.f32	s16, s0
 178 000e FFF7FEFF 		bl	_ZN7daisysp9Resonator7SetFreqEf
ARM GAS  C:\Users\pedro\AppData\Local\Temp\ccaDU6Lx.s 			page 4


 179 0012 94ED006A 		vldr.32	s12, [r4]
 180 0016 B5EE007A 		vmov.f32	s14, #2.5e-1
 181 001a DFED066A 		vldr.32	s13, .L10
 182 001e C8EE067A 		vdiv.f32	s15, s16, s12
 183              		.syntax unified
 184              	@ 36 "Source/Utility/dsp.h" 1
 185 0022 C7FEA67A 		vmaxnm.f32 s15, s15, s13
 186              	@ 0 "" 2
 187              	@ 47 "Source/Utility/dsp.h" 1
 188 0026 C7FEC77A 		vminnm.f32 s15, s15, s14
 189              	@ 0 "" 2
 190              		.thumb
 191              		.syntax unified
 192 002a C4ED027A 		vstr.32	s15, [r4, #8]
 193 002e BDEC028B 		vldm	sp!, {d8}
 194 0032 10BD     		pop	{r4, pc}
 195              	.L11:
 196              		.align	2
 197              	.L10:
 198 0034 00000000 		.word	0
 200              		.section	.text._ZN7daisysp10ModalVoice9SetAccentEf,"ax",%progbits
 201              		.align	1
 202              		.p2align 2,,3
 203              		.global	_ZN7daisysp10ModalVoice9SetAccentEf
 204              		.syntax unified
 205              		.thumb
 206              		.thumb_func
 207              		.fpu fpv5-d16
 209              	_ZN7daisysp10ModalVoice9SetAccentEf:
 210              		@ args = 0, pretend = 0, frame = 0
 211              		@ frame_needed = 0, uses_anonymous_args = 0
 212              		@ link register save eliminated.
 213 0000 F7EE007A 		vmov.f32	s15, #1.0e+0
 214 0004 9FED047A 		vldr.32	s14, .L13
 215              		.syntax unified
 216              	@ 36 "Source/Utility/dsp.h" 1
 217 0008 80FE070A 		vmaxnm.f32 s0, s0, s14
 218              	@ 0 "" 2
 219              	@ 47 "Source/Utility/dsp.h" 1
 220 000c 80FE670A 		vminnm.f32 s0, s0, s15
 221              	@ 0 "" 2
 222              		.thumb
 223              		.syntax unified
 224 0010 80ED070A 		vstr.32	s0, [r0, #28]
 225 0014 7047     		bx	lr
 226              	.L14:
 227 0016 00BF     		.align	2
 228              	.L13:
 229 0018 00000000 		.word	0
 231              		.section	.text._ZN7daisysp10ModalVoice12SetStructureEf,"ax",%progbits
 232              		.align	1
 233              		.p2align 2,,3
 234              		.global	_ZN7daisysp10ModalVoice12SetStructureEf
 235              		.syntax unified
 236              		.thumb
 237              		.thumb_func
 238              		.fpu fpv5-d16
ARM GAS  C:\Users\pedro\AppData\Local\Temp\ccaDU6Lx.s 			page 5


 240              	_ZN7daisysp10ModalVoice12SetStructureEf:
 241              		@ args = 0, pretend = 0, frame = 0
 242              		@ frame_needed = 0, uses_anonymous_args = 0
 243              		@ link register save eliminated.
 244 0000 2C30     		adds	r0, r0, #44
 245 0002 FFF7FEBF 		b	_ZN7daisysp9Resonator12SetStructureEf
 247 0006 00BF     		.section	.text._ZN7daisysp10ModalVoice13SetBrightnessEf,"ax",%progbits
 248              		.align	1
 249              		.p2align 2,,3
 250              		.global	_ZN7daisysp10ModalVoice13SetBrightnessEf
 251              		.syntax unified
 252              		.thumb
 253              		.thumb_func
 254              		.fpu fpv5-d16
 256              	_ZN7daisysp10ModalVoice13SetBrightnessEf:
 257              		@ args = 0, pretend = 0, frame = 0
 258              		@ frame_needed = 0, uses_anonymous_args = 0
 259              		@ link register save eliminated.
 260 0000 F7EE007A 		vmov.f32	s15, #1.0e+0
 261 0004 9FED067A 		vldr.32	s14, .L17
 262              		.syntax unified
 263              	@ 36 "Source/Utility/dsp.h" 1
 264 0008 80FE070A 		vmaxnm.f32 s0, s0, s14
 265              	@ 0 "" 2
 266              	@ 47 "Source/Utility/dsp.h" 1
 267 000c 80FE670A 		vminnm.f32 s0, s0, s15
 268              	@ 0 "" 2
 269              		.thumb
 270              		.syntax unified
 271 0010 60EE007A 		vmul.f32	s15, s0, s0
 272 0014 80ED040A 		vstr.32	s0, [r0, #16]
 273 0018 C0ED067A 		vstr.32	s15, [r0, #24]
 274 001c 7047     		bx	lr
 275              	.L18:
 276 001e 00BF     		.align	2
 277              	.L17:
 278 0020 00000000 		.word	0
 280              		.section	.text._ZN7daisysp10ModalVoice10SetDampingEf,"ax",%progbits
 281              		.align	1
 282              		.p2align 2,,3
 283              		.global	_ZN7daisysp10ModalVoice10SetDampingEf
 284              		.syntax unified
 285              		.thumb
 286              		.thumb_func
 287              		.fpu fpv5-d16
 289              	_ZN7daisysp10ModalVoice10SetDampingEf:
 290              		@ args = 0, pretend = 0, frame = 0
 291              		@ frame_needed = 0, uses_anonymous_args = 0
 292              		@ link register save eliminated.
 293 0000 F7EE007A 		vmov.f32	s15, #1.0e+0
 294 0004 9FED047A 		vldr.32	s14, .L20
 295              		.syntax unified
 296              	@ 36 "Source/Utility/dsp.h" 1
 297 0008 80FE070A 		vmaxnm.f32 s0, s0, s14
 298              	@ 0 "" 2
 299              	@ 47 "Source/Utility/dsp.h" 1
 300 000c 80FE670A 		vminnm.f32 s0, s0, s15
ARM GAS  C:\Users\pedro\AppData\Local\Temp\ccaDU6Lx.s 			page 6


 301              	@ 0 "" 2
 302              		.thumb
 303              		.syntax unified
 304 0010 80ED050A 		vstr.32	s0, [r0, #20]
 305 0014 7047     		bx	lr
 306              	.L21:
 307 0016 00BF     		.align	2
 308              	.L20:
 309 0018 00000000 		.word	0
 311              		.section	.text._ZN7daisysp10ModalVoice6GetAuxEv,"ax",%progbits
 312              		.align	1
 313              		.p2align 2,,3
 314              		.global	_ZN7daisysp10ModalVoice6GetAuxEv
 315              		.syntax unified
 316              		.thumb
 317              		.thumb_func
 318              		.fpu fpv5-d16
 320              	_ZN7daisysp10ModalVoice6GetAuxEv:
 321              		@ args = 0, pretend = 0, frame = 0
 322              		@ frame_needed = 0, uses_anonymous_args = 0
 323              		@ link register save eliminated.
 324 0000 90ED080A 		vldr.32	s0, [r0, #32]
 325 0004 7047     		bx	lr
 327 0006 00BF     		.section	.text._ZN7daisysp10ModalVoice7ProcessEb,"ax",%progbits
 328              		.align	1
 329              		.p2align 2,,3
 330              		.global	_ZN7daisysp10ModalVoice7ProcessEb
 331              		.syntax unified
 332              		.thumb
 333              		.thumb_func
 334              		.fpu fpv5-d16
 336              	_ZN7daisysp10ModalVoice7ProcessEb:
 337              		@ args = 0, pretend = 0, frame = 8
 338              		@ frame_needed = 0, uses_anonymous_args = 0
 339 0000 F7EE007A 		vmov.f32	s15, #1.0e+0
 340 0004 90ED077A 		vldr.32	s14, [r0, #28]
 341 0008 B5EE006A 		vmov.f32	s12, #2.5e-1
 342 000c 0379     		ldrb	r3, [r0, #4]	@ zero_extendqisi2
 343 000e 30B5     		push	{r4, r5, lr}
 344 0010 2DED088B 		vpush.64	{d8, d9, d10, d11}
 345 0014 D0ED049A 		vldr.32	s19, [r0, #16]
 346 0018 27EE067A 		vmul.f32	s14, s14, s12
 347 001c 90ED059A 		vldr.32	s18, [r0, #20]
 348 0020 83B0     		sub	sp, sp, #12
 349 0022 77EEE96A 		vsub.f32	s13, s15, s19
 350 0026 0446     		mov	r4, r0
 351 0028 77EEC97A 		vsub.f32	s15, s15, s18
 352 002c 0D46     		mov	r5, r1
 353 002e E7EE269A 		vfma.f32	s19, s14, s13
 354 0032 A7EE279A 		vfma.f32	s18, s14, s15
 355 0036 002B     		cmp	r3, #0
 356 0038 00F0B480 		beq	.L38
 357 003c F1EE008A 		vmov.f32	s17, #4.0e+0
 358 0040 90ED028A 		vldr.32	s16, [r0, #8]
 359 0044 DFED717A 		vldr.32	s15, .L40
 360 0048 28EE288A 		vmul.f32	s16, s16, s17
 361              	.L33:
ARM GAS  C:\Users\pedro\AppData\Local\Temp\ccaDU6Lx.s 			page 7


 362 004c B0EE000A 		vmov.f32	s0, #2.0e+0
 363 0050 DFED6F0A 		vldr.32	s1, .L40+4
 364 0054 BEEE007A 		vmov.f32	s14, #-5.0e-1
 365 0058 70EE696A 		vsub.f32	s13, s0, s19
 366 005c A6EEA97A 		vfma.f32	s14, s13, s19
 367 0060 27EE277A 		vmul.f32	s14, s14, s15
 368 0064 67EE200A 		vmul.f32	s1, s14, s1
 369 0068 FFF7FEFF 		bl	powf
 370 006c 2379     		ldrb	r3, [r4, #4]	@ zero_extendqisi2
 371 006e 20EE080A 		vmul.f32	s0, s0, s16
 372 0072 DFED687A 		vldr.32	s15, .L40+8
 373              		.syntax unified
 374              	@ 47 "Source/Utility/dsp.h" 1
 375 0076 C0FE678A 		vminnm.f32 s17, s0, s15
 376              	@ 0 "" 2
 377              		.thumb
 378              		.syntax unified
 379 007a C3B3     		cbz	r3, .L39
 380 007c 94ED067A 		vldr.32	s14, [r4, #24]
 381 0080 B7EE00BA 		vmov.f32	s22, #1.0e+0
 382 0084 DFED647A 		vldr.32	s15, .L40+12
 383 0088 DFED646A 		vldr.32	s13, .L40+16
 384 008c 67EE277A 		vmul.f32	s15, s14, s15
 385 0090 DFED63AA 		vldr.32	s21, .L40+20
 386 0094 9FED63AA 		vldr.32	s20, .L40+24
 387 0098 E7EE27AA 		vfma.f32	s21, s14, s15
 388              		.syntax unified
 389              	@ 36 "Source/Utility/dsp.h" 1
 390 009c 8AFE8A8A 		vmaxnm.f32 s16, s21, s20
 391              	@ 0 "" 2
 392              	@ 47 "Source/Utility/dsp.h" 1
 393 00a0 88FE4B8A 		vminnm.f32 s16, s16, s22
 394              	@ 0 "" 2
 395              		.thumb
 396              		.syntax unified
 397 00a4 28EE268A 		vmul.f32	s16, s16, s13
 398 00a8 84ED598A 		vstr.32	s16, [r4, #356]
 399 00ac FFF7FEFF 		bl	rand
 400 00b0 07EE900A 		vmov	s15, r0	@ int
 401 00b4 94ED597A 		vldr.32	s14, [r4, #356]
 402 00b8 FAEEE07A 		vcvt.f32.s32	s15, s15, #31
 403 00bc F4EEC77A 		vcmpe.f32	s15, s14
 404 00c0 F1EE10FA 		vmrs	APSR_nzcv, FPSCR
 405 00c4 00F19C80 		bmi	.L30
 406 00c8 F0EE4A7A 		vmov.f32	s15, s20
 407              	.L31:
 408 00cc F0EE085A 		vmov.f32	s11, #3.0e+0
 409 00d0 D4ED076A 		vldr.32	s13, [r4, #28]
 410 00d4 B1EE007A 		vmov.f32	s14, #4.0e+0
 411 00d8 9FED536A 		vldr.32	s12, .L40+28
 412 00dc 28EEA8AA 		vmul.f32	s20, s17, s17
 413 00e0 AAEEE57A 		vfms.f32	s14, s21, s11
 414 00e4 27EE277A 		vmul.f32	s14, s14, s15
 415 00e8 27EE267A 		vmul.f32	s14, s14, s13
 416 00ec 0AE0     		b	.L28
 417              	.L39:
 418 00ee 002D     		cmp	r5, #0
ARM GAS  C:\Users\pedro\AppData\Local\Temp\ccaDU6Lx.s 			page 8


 419 00f0 5FD1     		bne	.L29
 420 00f2 6379     		ldrb	r3, [r4, #5]	@ zero_extendqisi2
 421 00f4 002B     		cmp	r3, #0
 422 00f6 5CD1     		bne	.L29
 423 00f8 28EEA8AA 		vmul.f32	s20, s17, s17
 424 00fc 9FED4B6A 		vldr.32	s12, .L40+32
 425 0100 9FED487A 		vldr.32	s14, .L40+24
 426              	.L28:
 427 0104 DFED4A6A 		vldr.32	s13, .L40+36
 428 0108 B7EE005A 		vmov.f32	s10, #1.0e+0
 429 010c DFED495A 		vldr.32	s11, .L40+40
 430 0110 04F12C00 		add	r0, r4, #44
 431 0114 DFED487A 		vldr.32	s15, .L40+44
 432 0118 B0EE690A 		vmov.f32	s0, s19
 433 011c EAEE265A 		vfma.f32	s11, s20, s13
 434 0120 D4ED096A 		vldr.32	s13, [r4, #36]
 435 0124 94ED0A8A 		vldr.32	s16, [r4, #40]
 436 0128 DFED3E4A 		vldr.32	s9, .L40+24
 437 012c 0190     		str	r0, [sp, #4]
 438 012e EAEE257A 		vfma.f32	s15, s20, s11
 439 0132 F0EE455A 		vmov.f32	s11, s10
 440 0136 68EEA77A 		vmul.f32	s15, s17, s15
 441 013a E6EE275A 		vfma.f32	s11, s12, s15
 442 013e 36EE276A 		vadd.f32	s12, s12, s15
 443 0142 A6EE667A 		vfms.f32	s14, s12, s13
 444 0146 B0EE656A 		vmov.f32	s12, s11
 445 014a A7EEA76A 		vfma.f32	s12, s15, s15
 446 014e 37EE487A 		vsub.f32	s14, s14, s16
 447 0152 C5EE065A 		vdiv.f32	s11, s10, s12
 448 0156 27EE257A 		vmul.f32	s14, s14, s11
 449 015a E7EE276A 		vfma.f32	s13, s14, s15
 450 015e A6EEA78A 		vfma.f32	s16, s13, s15
 451 0162 B0EE666A 		vmov.f32	s12, s13
 452 0166 A7EE276A 		vfma.f32	s12, s14, s15
 453 016a B0EE487A 		vmov.f32	s14, s16
 454 016e 38EE248A 		vadd.f32	s16, s16, s9
 455 0172 A6EEA77A 		vfma.f32	s14, s13, s15
 456 0176 84ED096A 		vstr.32	s12, [r4, #36]
 457 017a 84ED088A 		vstr.32	s16, [r4, #32]
 458 017e 84ED0A7A 		vstr.32	s14, [r4, #40]
 459 0182 FFF7FEFF 		bl	_ZN7daisysp9Resonator13SetBrightnessEf
 460 0186 B0EE490A 		vmov.f32	s0, s18
 461 018a 0198     		ldr	r0, [sp, #4]
 462 018c FFF7FEFF 		bl	_ZN7daisysp9Resonator10SetDampingEf
 463 0190 B0EE480A 		vmov.f32	s0, s16
 464 0194 0198     		ldr	r0, [sp, #4]
 465 0196 03B0     		add	sp, sp, #12
 466              		@ sp needed
 467 0198 BDEC088B 		vldm	sp!, {d8-d11}
 468 019c BDE83040 		pop	{r4, r5, lr}
 469 01a0 FFF7FEBF 		b	_ZN7daisysp9Resonator7ProcessEf
 470              	.L38:
 471 01a4 90ED028A 		vldr.32	s16, [r0, #8]
 472 01a8 DFED247A 		vldr.32	s15, .L40+48
 473 01ac 38EE088A 		vadd.f32	s16, s16, s16
 474 01b0 4CE7     		b	.L33
 475              	.L29:
ARM GAS  C:\Users\pedro\AppData\Local\Temp\ccaDU6Lx.s 			page 9


 476 01b2 B6EE006A 		vmov.f32	s12, #5.0e-1
 477 01b6 9FED227A 		vldr.32	s14, .L40+52
 478 01ba F7EE00AA 		vmov.f32	s21, #1.0e+0
 479 01be D4ED076A 		vldr.32	s13, [r4, #28]
 480 01c2 9FED208A 		vldr.32	s16, .L40+56
 481 01c6 28EEA8AA 		vmul.f32	s20, s17, s17
 482 01ca F3EE087A 		vmov.f32	s15, #2.4e+1
 483 01ce DFED100A 		vldr.32	s1, .L40+4
 484 01d2 E9EE46AA 		vfms.f32	s21, s18, s12
 485 01d6 A6EE878A 		vfma.f32	s16, s13, s14
 486 01da 6AEE277A 		vmul.f32	s15, s20, s15
 487 01de B0EE000A 		vmov.f32	s0, #2.0e+0
 488 01e2 67EEA00A 		vmul.f32	s1, s15, s1
 489 01e6 FFF7FEFF 		bl	powf
 490 01ea 0023     		movs	r3, #0
 491 01ec 28EE2A8A 		vmul.f32	s16, s16, s21
 492 01f0 9FED0E6A 		vldr.32	s12, .L40+32
 493 01f4 6371     		strb	r3, [r4, #5]
 494 01f6 28EE008A 		vmul.f32	s16, s16, s0
 495 01fa 88EE287A 		vdiv.f32	s14, s16, s17
 496 01fe 81E7     		b	.L28
 497              	.L30:
 498 0200 CBEE086A 		vdiv.f32	s13, s22, s16
 499 0204 66EEA77A 		vmul.f32	s15, s13, s15
 500 0208 60E7     		b	.L31
 501              	.L41:
 502 020a 00BF     		.align	2
 503              	.L40:
 504 020c 00001042 		.word	1108344832
 505 0210 ABAAAA3D 		.word	1034594987
 506 0214 EE7CFF3E 		.word	1056931054
 507 0218 B9FC7F3F 		.word	1065352377
 508 021c 9A99993E 		.word	1050253722
 509 0220 17B75138 		.word	944879383
 510 0224 00000000 		.word	0
 511 0228 6EDBB63F 		.word	1068948334
 512 022c ABAA2A3F 		.word	1059760811
 513 0230 4C265F42 		.word	1113531980
 514 0234 8FBA2141 		.word	1092729487
 515 0238 DB0F4940 		.word	1078530011
 516 023c 00007042 		.word	1114636288
 517 0240 0AD7A33D 		.word	1034147594
 518 0244 8FC2F53D 		.word	1039516303
 520              		.ident	"GCC: (GNU Arm Embedded Toolchain 10-2020-q4-major) 10.2.1 20201103 (release)"
ARM GAS  C:\Users\pedro\AppData\Local\Temp\ccaDU6Lx.s 			page 10

