ARM GAS  C:\Users\pedro\AppData\Local\Temp\ccRwOjju.s 			page 1


   1              		.cpu cortex-m7
   2              		.eabi_attribute 28, 1
   3              		.eabi_attribute 20, 1
   4              		.eabi_attribute 21, 1
   5              		.eabi_attribute 23, 3
   6              		.eabi_attribute 24, 1
   7              		.eabi_attribute 25, 1
   8              		.eabi_attribute 26, 1
   9              		.eabi_attribute 30, 2
  10              		.eabi_attribute 34, 1
  11              		.eabi_attribute 18, 4
  12              		.file	"moogladder.cpp"
  13              		.text
  14              		.section	.text._ZN7daisysp10MoogLadder7my_tanhEf,"ax",%progbits
  15              		.align	1
  16              		.p2align 2,,3
  17              		.global	_ZN7daisysp10MoogLadder7my_tanhEf
  18              		.arch armv7e-m
  19              		.syntax unified
  20              		.thumb
  21              		.thumb_func
  22              		.fpu fpv5-d16
  24              	_ZN7daisysp10MoogLadder7my_tanhEf:
  25              		@ args = 0, pretend = 0, frame = 0
  26              		@ frame_needed = 0, uses_anonymous_args = 0
  27              		@ link register save eliminated.
  28 0000 B5EEC00A 		vcmpe.f32	s0, #0
  29 0004 F0EE407A 		vmov.f32	s15, s0
  30 0008 F1EE10FA 		vmrs	APSR_nzcv, FPSCR
  31 000c 12D4     		bmi	.L5
  32 000e B1EE007A 		vmov.f32	s14, #4.0e+0
  33 0012 B4EEC70A 		vcmpe.f32	s0, s14
  34 0016 F1EE10FA 		vmrs	APSR_nzcv, FPSCR
  35 001a 08DA     		bge	.L4
  36 001c B6EE007A 		vmov.f32	s14, #5.0e-1
  37 0020 B4EEC70A 		vcmpe.f32	s0, s14
  38 0024 F1EE10FA 		vmrs	APSR_nzcv, FPSCR
  39 0028 04D4     		bmi	.L5
  40 002a FFF7FEBF 		b	tanhf
  41              	.L4:
  42 002e B7EE000A 		vmov.f32	s0, #1.0e+0
  43 0032 7047     		bx	lr
  44              	.L5:
  45 0034 B0EE670A 		vmov.f32	s0, s15
  46 0038 7047     		bx	lr
  48 003a 00BF     		.section	.text._ZN7daisysp10MoogLadder4InitEf,"ax",%progbits
  49              		.align	1
  50              		.p2align 2,,3
  51              		.global	_ZN7daisysp10MoogLadder4InitEf
  52              		.syntax unified
  53              		.thumb
  54              		.thumb_func
  55              		.fpu fpv5-d16
  57              	_ZN7daisysp10MoogLadder4InitEf:
  58              		@ args = 0, pretend = 0, frame = 0
  59              		@ frame_needed = 0, uses_anonymous_args = 0
  60              		@ link register save eliminated.
ARM GAS  C:\Users\pedro\AppData\Local\Temp\ccRwOjju.s 			page 2


  61 0000 0A49     		ldr	r1, .L8
  62 0002 0023     		movs	r3, #0
  63 0004 0A4A     		ldr	r2, .L8+4
  64 0006 4160     		str	r1, [r0, #4]	@ float
  65 0008 0A49     		ldr	r1, .L8+8
  66 000a 80ED0E0A 		vstr.32	s0, [r0, #56]
  67 000e 0360     		str	r3, [r0]	@ float
  68 0010 C360     		str	r3, [r0, #12]	@ float
  69 0012 4362     		str	r3, [r0, #36]	@ float
  70 0014 8160     		str	r1, [r0, #8]	@ float
  71 0016 0361     		str	r3, [r0, #16]	@ float
  72 0018 8362     		str	r3, [r0, #40]	@ float
  73 001a 4361     		str	r3, [r0, #20]	@ float
  74 001c C362     		str	r3, [r0, #44]	@ float
  75 001e 8361     		str	r3, [r0, #24]	@ float
  76 0020 C361     		str	r3, [r0, #28]	@ float
  77 0022 0362     		str	r3, [r0, #32]	@ float
  78 0024 0363     		str	r3, [r0, #48]	@ float
  79 0026 4263     		str	r2, [r0, #52]	@ float
  80 0028 7047     		bx	lr
  81              	.L9:
  82 002a 00BF     		.align	2
  83              	.L8:
  84 002c CDCCCC3E 		.word	1053609165
  85 0030 000080BF 		.word	-1082130432
  86 0034 00007A44 		.word	1148846080
  88              		.section	.text._ZN7daisysp10MoogLadder7ProcessEf,"ax",%progbits
  89              		.align	1
  90              		.p2align 2,,3
  91              		.global	_ZN7daisysp10MoogLadder7ProcessEf
  92              		.syntax unified
  93              		.thumb
  94              		.thumb_func
  95              		.fpu fpv5-d16
  97              	_ZN7daisysp10MoogLadder7ProcessEf:
  98              		@ args = 0, pretend = 0, frame = 0
  99              		@ frame_needed = 0, uses_anonymous_args = 0
 100 0000 10B5     		push	{r4, lr}
 101 0002 2DED0E8B 		vpush.64	{d8, d9, d10, d11, d12, d13, d14}
 102 0006 D0ED018A 		vldr.32	s17, [r0, #4]
 103 000a B0EE408A 		vmov.f32	s16, s0
 104 000e D0ED026A 		vldr.32	s13, [r0, #8]
 105 0012 0446     		mov	r4, r0
 106 0014 F5EEC08A 		vcmpe.f32	s17, #0
 107 0018 D0ED0C7A 		vldr.32	s15, [r0, #48]
 108 001c F1EE10FA 		vmrs	APSR_nzcv, FPSCR
 109 0020 F4EE667A 		vcmp.f32	s15, s13
 110 0024 48BF     		it	mi
 111 0026 DFEDE28A 		vldrmi.32	s17, .L38
 112 002a F1EE10FA 		vmrs	APSR_nzcv, FPSCR
 113 002e 07D1     		bne	.L13
 114 0030 D0ED0D7A 		vldr.32	s15, [r0, #52]
 115 0034 F4EE687A 		vcmp.f32	s15, s17
 116 0038 F1EE10FA 		vmrs	APSR_nzcv, FPSCR
 117 003c 00F0CC81 		beq	.L14
 118              	.L13:
 119 0040 94ED0E6A 		vldr.32	s12, [r4, #56]
ARM GAS  C:\Users\pedro\AppData\Local\Temp\ccRwOjju.s 			page 3


 120 0044 B6EE000A 		vmov.f32	s0, #5.0e-1
 121 0048 C4ED0C6A 		vstr.32	s13, [r4, #48]
 122 004c 86EE867A 		vdiv.f32	s14, s13, s12
 123 0050 DFEDD87A 		vldr.32	s15, .L38+4
 124 0054 DFEDD84A 		vldr.32	s9, .L38+8
 125 0058 DFEDD85A 		vldr.32	s11, .L38+12
 126 005c 9FEDD89A 		vldr.32	s18, .L38+16
 127 0060 9FEDD83A 		vldr.32	s6, .L38+20
 128 0064 DFEDD83A 		vldr.32	s7, .L38+24
 129 0068 9FEDD86A 		vldr.32	s12, .L38+28
 130 006c 9FEDD85A 		vldr.32	s10, .L38+32
 131 0070 67EE076A 		vmul.f32	s13, s14, s14
 132 0074 27EE099A 		vmul.f32	s18, s14, s18
 133 0078 27EE000A 		vmul.f32	s0, s14, s0
 134 007c 26EEA64A 		vmul.f32	s8, s13, s13
 135 0080 66EEA77A 		vmul.f32	s15, s13, s15
 136 0084 A6EE839A 		vfma.f32	s18, s13, s6
 137 0088 20EE230A 		vmul.f32	s0, s0, s7
 138 008c E4EE247A 		vfma.f32	s15, s8, s9
 139 0090 39EE05DA 		vadd.f32	s26, s18, s10
 140 0094 E7EE657A 		vfms.f32	s15, s14, s11
 141 0098 77EE867A 		vadd.f32	s15, s15, s12
 142 009c 27EEC00A 		vnmul.f32	s0, s15, s0
 143 00a0 FFF7FEFF 		bl	expf
 144 00a4 F7EE007A 		vmov.f32	s15, #1.0e+0
 145 00a8 9FEDCA7A 		vldr.32	s14, .L38+36
 146 00ac C4ED0D8A 		vstr.32	s17, [r4, #52]
 147 00b0 37EEC00A 		vsub.f32	s0, s15, s0
 148 00b4 84ED0FDA 		vstr.32	s26, [r4, #60]
 149 00b8 80EE07AA 		vdiv.f32	s20, s0, s14
 150 00bc 84ED10AA 		vstr.32	s20, [r4, #64]
 151              	.L15:
 152 00c0 F1EE007A 		vmov.f32	s15, #4.0e+0
 153 00c4 94ED087A 		vldr.32	s14, [r4, #32]
 154 00c8 9FEDC20A 		vldr.32	s0, .L38+36
 155 00cc D4ED03DA 		vldr.32	s27, [r4, #12]
 156 00d0 68EEA78A 		vmul.f32	s17, s17, s15
 157 00d4 D4ED099A 		vldr.32	s19, [r4, #36]
 158 00d8 D4ED04CA 		vldr.32	s25, [r4, #16]
 159 00dc 94ED0ACA 		vldr.32	s24, [r4, #40]
 160 00e0 2DEE68DA 		vnmul.f32	s26, s26, s17
 161 00e4 D4ED05AA 		vldr.32	s21, [r4, #20]
 162 00e8 D4ED0BBA 		vldr.32	s23, [r4, #44]
 163 00ec 94ED06EA 		vldr.32	s28, [r4, #24]
 164 00f0 ADEE078A 		vfma.f32	s16, s26, s14
 165 00f4 94ED07BA 		vldr.32	s22, [r4, #28]
 166 00f8 28EE000A 		vmul.f32	s0, s16, s0
 167 00fc B5EEC00A 		vcmpe.f32	s0, #0
 168 0100 F1EE10FA 		vmrs	APSR_nzcv, FPSCR
 169 0104 0ED4     		bmi	.L16
 170 0106 B4EEE70A 		vcmpe.f32	s0, s15
 171 010a F1EE10FA 		vmrs	APSR_nzcv, FPSCR
 172 010e 80F27681 		bge	.L26
 173 0112 F6EE007A 		vmov.f32	s15, #5.0e-1
 174 0116 B4EEE70A 		vcmpe.f32	s0, s15
 175 011a F1EE10FA 		vmrs	APSR_nzcv, FPSCR
 176 011e 01D4     		bmi	.L16
ARM GAS  C:\Users\pedro\AppData\Local\Temp\ccRwOjju.s 			page 4


 177 0120 FFF7FEFF 		bl	tanhf
 178              	.L16:
 179 0124 30EE690A 		vsub.f32	s0, s0, s19
 180 0128 DFEDAA9A 		vldr.32	s19, .L38+36
 181 012c E0EE0ADA 		vfma.f32	s27, s0, s20
 182 0130 6DEEA99A 		vmul.f32	s19, s27, s19
 183 0134 F5EEC09A 		vcmpe.f32	s19, #0
 184 0138 F1EE10FA 		vmrs	APSR_nzcv, FPSCR
 185 013c 14D4     		bmi	.L17
 186 013e F1EE007A 		vmov.f32	s15, #4.0e+0
 187 0142 F4EEE79A 		vcmpe.f32	s19, s15
 188 0146 F1EE10FA 		vmrs	APSR_nzcv, FPSCR
 189 014a 80F25581 		bge	.L27
 190 014e F6EE007A 		vmov.f32	s15, #5.0e-1
 191 0152 F4EEE79A 		vcmpe.f32	s19, s15
 192 0156 F1EE10FA 		vmrs	APSR_nzcv, FPSCR
 193 015a 05D4     		bmi	.L17
 194 015c B0EE690A 		vmov.f32	s0, s19
 195 0160 FFF7FEFF 		bl	tanhf
 196 0164 F0EE409A 		vmov.f32	s19, s0
 197              	.L17:
 198 0168 39EECCCA 		vsub.f32	s24, s19, s24
 199 016c 9FED990A 		vldr.32	s0, .L38+36
 200 0170 EAEE0CCA 		vfma.f32	s25, s20, s24
 201 0174 2CEE809A 		vmul.f32	s18, s25, s0
 202 0178 B5EEC09A 		vcmpe.f32	s18, #0
 203 017c F1EE10FA 		vmrs	APSR_nzcv, FPSCR
 204 0180 14D4     		bmi	.L18
 205 0182 F1EE007A 		vmov.f32	s15, #4.0e+0
 206 0186 B4EEE79A 		vcmpe.f32	s18, s15
 207 018a F1EE10FA 		vmrs	APSR_nzcv, FPSCR
 208 018e 80F23F81 		bge	.L28
 209 0192 F6EE007A 		vmov.f32	s15, #5.0e-1
 210 0196 B4EEE79A 		vcmpe.f32	s18, s15
 211 019a F1EE10FA 		vmrs	APSR_nzcv, FPSCR
 212 019e 05D4     		bmi	.L18
 213 01a0 B0EE490A 		vmov.f32	s0, s18
 214 01a4 FFF7FEFF 		bl	tanhf
 215 01a8 B0EE409A 		vmov.f32	s18, s0
 216              	.L18:
 217 01ac 79EE6BBA 		vsub.f32	s23, s18, s23
 218 01b0 DFED888A 		vldr.32	s17, .L38+36
 219 01b4 EAEE2BAA 		vfma.f32	s21, s20, s23
 220 01b8 6AEEA88A 		vmul.f32	s17, s21, s17
 221 01bc F5EEC08A 		vcmpe.f32	s17, #0
 222 01c0 F1EE10FA 		vmrs	APSR_nzcv, FPSCR
 223 01c4 14D4     		bmi	.L19
 224 01c6 F1EE007A 		vmov.f32	s15, #4.0e+0
 225 01ca F4EEE78A 		vcmpe.f32	s17, s15
 226 01ce F1EE10FA 		vmrs	APSR_nzcv, FPSCR
 227 01d2 80F21A81 		bge	.L29
 228 01d6 F6EE007A 		vmov.f32	s15, #5.0e-1
 229 01da F4EEE78A 		vcmpe.f32	s17, s15
 230 01de F1EE10FA 		vmrs	APSR_nzcv, FPSCR
 231 01e2 05D4     		bmi	.L19
 232 01e4 B0EE680A 		vmov.f32	s0, s17
 233 01e8 FFF7FEFF 		bl	tanhf
ARM GAS  C:\Users\pedro\AppData\Local\Temp\ccRwOjju.s 			page 5


 234 01ec F0EE408A 		vmov.f32	s17, s0
 235              	.L19:
 236 01f0 9FED780A 		vldr.32	s0, .L38+36
 237 01f4 2EEE000A 		vmul.f32	s0, s28, s0
 238 01f8 B5EEC00A 		vcmpe.f32	s0, #0
 239 01fc F1EE10FA 		vmrs	APSR_nzcv, FPSCR
 240 0200 10D4     		bmi	.L20
 241 0202 F1EE007A 		vmov.f32	s15, #4.0e+0
 242 0206 B4EEE70A 		vcmpe.f32	s0, s15
 243 020a F1EE10FA 		vmrs	APSR_nzcv, FPSCR
 244 020e 80F20281 		bge	.L30
 245 0212 F6EE007A 		vmov.f32	s15, #5.0e-1
 246 0216 B4EEE70A 		vcmpe.f32	s0, s15
 247 021a F1EE10FA 		vmrs	APSR_nzcv, FPSCR
 248 021e 01D4     		bmi	.L20
 249 0220 FFF7FEFF 		bl	tanhf
 250              	.L20:
 251 0224 38EEC00A 		vsub.f32	s0, s17, s0
 252 0228 9FED6A6A 		vldr.32	s12, .L38+36
 253 022c F6EE006A 		vmov.f32	s13, #5.0e-1
 254 0230 F0EE6A7A 		vmov.f32	s15, s21
 255 0234 AAEE00EA 		vfma.f32	s28, s20, s0
 256 0238 3BEE0E7A 		vadd.f32	s14, s22, s28
 257 023c 27EE267A 		vmul.f32	s14, s14, s13
 258 0240 EDEE077A 		vfma.f32	s15, s26, s14
 259 0244 27EE860A 		vmul.f32	s0, s15, s12
 260 0248 B5EEC00A 		vcmpe.f32	s0, #0
 261 024c F1EE10FA 		vmrs	APSR_nzcv, FPSCR
 262 0250 0ED4     		bmi	.L21
 263 0252 F1EE007A 		vmov.f32	s15, #4.0e+0
 264 0256 B4EEE70A 		vcmpe.f32	s0, s15
 265 025a F1EE10FA 		vmrs	APSR_nzcv, FPSCR
 266 025e 80F2C880 		bge	.L31
 267 0262 B4EEE60A 		vcmpe.f32	s0, s13
 268 0266 F1EE10FA 		vmrs	APSR_nzcv, FPSCR
 269 026a 01D4     		bmi	.L21
 270 026c FFF7FEFF 		bl	tanhf
 271              	.L21:
 272 0270 30EE690A 		vsub.f32	s0, s0, s19
 273 0274 DFED579A 		vldr.32	s19, .L38+36
 274 0278 E0EE0ADA 		vfma.f32	s27, s0, s20
 275 027c 6DEEA99A 		vmul.f32	s19, s27, s19
 276 0280 F5EEC09A 		vcmpe.f32	s19, #0
 277 0284 F1EE10FA 		vmrs	APSR_nzcv, FPSCR
 278 0288 14D4     		bmi	.L22
 279 028a F1EE007A 		vmov.f32	s15, #4.0e+0
 280 028e F4EEE79A 		vcmpe.f32	s19, s15
 281 0292 F1EE10FA 		vmrs	APSR_nzcv, FPSCR
 282 0296 80F2B580 		bge	.L32
 283 029a F6EE007A 		vmov.f32	s15, #5.0e-1
 284 029e F4EEE79A 		vcmpe.f32	s19, s15
 285 02a2 F1EE10FA 		vmrs	APSR_nzcv, FPSCR
 286 02a6 05D4     		bmi	.L22
 287 02a8 B0EE690A 		vmov.f32	s0, s19
 288 02ac FFF7FEFF 		bl	tanhf
 289 02b0 F0EE409A 		vmov.f32	s19, s0
 290              	.L22:
ARM GAS  C:\Users\pedro\AppData\Local\Temp\ccRwOjju.s 			page 6


 291 02b4 39EEC99A 		vsub.f32	s18, s19, s18
 292 02b8 DFED467A 		vldr.32	s15, .L38+36
 293 02bc EAEE09CA 		vfma.f32	s25, s20, s18
 294 02c0 2CEEA79A 		vmul.f32	s18, s25, s15
 295 02c4 B5EEC09A 		vcmpe.f32	s18, #0
 296 02c8 F1EE10FA 		vmrs	APSR_nzcv, FPSCR
 297 02cc 14D4     		bmi	.L23
 298 02ce F1EE007A 		vmov.f32	s15, #4.0e+0
 299 02d2 B4EEE79A 		vcmpe.f32	s18, s15
 300 02d6 F1EE10FA 		vmrs	APSR_nzcv, FPSCR
 301 02da 80F28780 		bge	.L33
 302 02de F6EE007A 		vmov.f32	s15, #5.0e-1
 303 02e2 B4EEE79A 		vcmpe.f32	s18, s15
 304 02e6 F1EE10FA 		vmrs	APSR_nzcv, FPSCR
 305 02ea 05D4     		bmi	.L23
 306 02ec B0EE490A 		vmov.f32	s0, s18
 307 02f0 FFF7FEFF 		bl	tanhf
 308 02f4 B0EE409A 		vmov.f32	s18, s0
 309              	.L23:
 310 02f8 79EE688A 		vsub.f32	s17, s18, s17
 311 02fc DFED357A 		vldr.32	s15, .L38+36
 312 0300 EAEE28AA 		vfma.f32	s21, s20, s17
 313 0304 6AEEA78A 		vmul.f32	s17, s21, s15
 314 0308 F5EEC08A 		vcmpe.f32	s17, #0
 315 030c F1EE10FA 		vmrs	APSR_nzcv, FPSCR
 316 0310 13D4     		bmi	.L24
 317 0312 F1EE007A 		vmov.f32	s15, #4.0e+0
 318 0316 F4EEE78A 		vcmpe.f32	s17, s15
 319 031a F1EE10FA 		vmrs	APSR_nzcv, FPSCR
 320 031e 62DA     		bge	.L34
 321 0320 F6EE007A 		vmov.f32	s15, #5.0e-1
 322 0324 F4EEE78A 		vcmpe.f32	s17, s15
 323 0328 F1EE10FA 		vmrs	APSR_nzcv, FPSCR
 324 032c 05D4     		bmi	.L24
 325 032e B0EE680A 		vmov.f32	s0, s17
 326 0332 FFF7FEFF 		bl	tanhf
 327 0336 F0EE408A 		vmov.f32	s17, s0
 328              	.L24:
 329 033a 9FED260A 		vldr.32	s0, .L38+36
 330 033e 2EEE000A 		vmul.f32	s0, s28, s0
 331 0342 B5EEC00A 		vcmpe.f32	s0, #0
 332 0346 F1EE10FA 		vmrs	APSR_nzcv, FPSCR
 333 034a 0FD4     		bmi	.L25
 334 034c F1EE007A 		vmov.f32	s15, #4.0e+0
 335 0350 B4EEE70A 		vcmpe.f32	s0, s15
 336 0354 F1EE10FA 		vmrs	APSR_nzcv, FPSCR
 337 0358 60DA     		bge	.L35
 338 035a F6EE007A 		vmov.f32	s15, #5.0e-1
 339 035e B4EEE70A 		vcmpe.f32	s0, s15
 340 0362 F1EE10FA 		vmrs	APSR_nzcv, FPSCR
 341 0366 01D4     		bmi	.L25
 342 0368 FFF7FEFF 		bl	tanhf
 343              	.L25:
 344 036c 38EEC00A 		vsub.f32	s0, s17, s0
 345 0370 C4ED03DA 		vstr.32	s27, [r4, #12]
 346 0374 F0EE4E7A 		vmov.f32	s15, s28
 347 0378 C4ED099A 		vstr.32	s19, [r4, #36]
ARM GAS  C:\Users\pedro\AppData\Local\Temp\ccRwOjju.s 			page 7


 348 037c B6EE007A 		vmov.f32	s14, #5.0e-1
 349 0380 C4ED04CA 		vstr.32	s25, [r4, #16]
 350 0384 84ED0A9A 		vstr.32	s18, [r4, #40]
 351 0388 E0EE0A7A 		vfma.f32	s15, s0, s20
 352 038c C4ED05AA 		vstr.32	s21, [r4, #20]
 353 0390 C4ED0B8A 		vstr.32	s17, [r4, #44]
 354 0394 37EE8E8A 		vadd.f32	s16, s15, s28
 355 0398 C4ED067A 		vstr.32	s15, [r4, #24]
 356 039c C4ED077A 		vstr.32	s15, [r4, #28]
 357 03a0 28EE070A 		vmul.f32	s0, s16, s14
 358 03a4 BDEC0E8B 		vldm	sp!, {d8-d14}
 359 03a8 84ED080A 		vstr.32	s0, [r4, #32]
 360 03ac 10BD     		pop	{r4, pc}
 361              	.L39:
 362 03ae 00BF     		.align	2
 363              	.L38:
 364 03b0 00000000 		.word	0
 365 03b4 2DB2FD3E 		.word	1056813613
 366 03b8 77BEEF3F 		.word	1072676471
 367 03bc DD24263F 		.word	1059464413
 368 03c0 9CA2EB3F 		.word	1072407196
 369 03c4 FAED7BC0 		.word	-1065619974
 370 03c8 DB0FC940 		.word	1086918619
 371 03cc 5BB17F3F 		.word	1065333083
 372 03d0 492E7F3F 		.word	1065299529
 373 03d4 17B7D137 		.word	936490775
 374              	.L14:
 375 03d8 F0EE678A 		vmov.f32	s17, s15
 376 03dc 90ED0FDA 		vldr.32	s26, [r0, #60]
 377 03e0 90ED10AA 		vldr.32	s20, [r0, #64]
 378 03e4 6CE6     		b	.L15
 379              	.L34:
 380 03e6 F7EE008A 		vmov.f32	s17, #1.0e+0
 381 03ea A6E7     		b	.L24
 382              	.L33:
 383 03ec B7EE009A 		vmov.f32	s18, #1.0e+0
 384 03f0 82E7     		b	.L23
 385              	.L31:
 386 03f2 B7EE000A 		vmov.f32	s0, #1.0e+0
 387 03f6 3BE7     		b	.L21
 388              	.L27:
 389 03f8 F7EE009A 		vmov.f32	s19, #1.0e+0
 390 03fc B4E6     		b	.L17
 391              	.L26:
 392 03fe B7EE000A 		vmov.f32	s0, #1.0e+0
 393 0402 8FE6     		b	.L16
 394              	.L32:
 395 0404 F7EE009A 		vmov.f32	s19, #1.0e+0
 396 0408 54E7     		b	.L22
 397              	.L29:
 398 040a F7EE008A 		vmov.f32	s17, #1.0e+0
 399 040e EFE6     		b	.L19
 400              	.L28:
 401 0410 B7EE009A 		vmov.f32	s18, #1.0e+0
 402 0414 CAE6     		b	.L18
 403              	.L30:
 404 0416 B7EE000A 		vmov.f32	s0, #1.0e+0
ARM GAS  C:\Users\pedro\AppData\Local\Temp\ccRwOjju.s 			page 8


 405 041a 03E7     		b	.L20
 406              	.L35:
 407 041c B7EE000A 		vmov.f32	s0, #1.0e+0
 408 0420 A4E7     		b	.L25
 410 0422 00BF     		.ident	"GCC: (GNU Arm Embedded Toolchain 10-2020-q4-major) 10.2.1 20201103 (release)"
ARM GAS  C:\Users\pedro\AppData\Local\Temp\ccRwOjju.s 			page 9

