ARM GAS  C:\Users\pedro\AppData\Local\Temp\cc7wDx4b.s 			page 1


   1              		.cpu cortex-m7
   2              		.eabi_attribute 28, 1
   3              		.eabi_attribute 20, 1
   4              		.eabi_attribute 21, 1
   5              		.eabi_attribute 23, 3
   6              		.eabi_attribute 24, 1
   7              		.eabi_attribute 25, 1
   8              		.eabi_attribute 26, 1
   9              		.eabi_attribute 30, 2
  10              		.eabi_attribute 34, 1
  11              		.eabi_attribute 18, 4
  12              		.file	"overdrive.cpp"
  13              		.text
  14              		.section	.text._ZN7daisysp9Overdrive4InitEv,"ax",%progbits
  15              		.align	1
  16              		.p2align 2,,3
  17              		.global	_ZN7daisysp9Overdrive4InitEv
  18              		.arch armv7e-m
  19              		.syntax unified
  20              		.thumb
  21              		.thumb_func
  22              		.fpu fpv5-d16
  24              	_ZN7daisysp9Overdrive4InitEv:
  25              		@ args = 0, pretend = 0, frame = 0
  26              		@ frame_needed = 0, uses_anonymous_args = 0
  27              		@ link register save eliminated.
  28 0000 B6EE005A 		vmov.f32	s10, #5.0e-1
  29 0004 DFED2C7A 		vldr.32	s15, .L6
  30 0008 F7EE004A 		vmov.f32	s9, #1.0e+0
  31 000c DFED2B6A 		vldr.32	s13, .L6+4
  32              		.syntax unified
  33              	@ 36 "Source/Utility/dsp.h" 1
  34 0010 C5FE277A 		vmaxnm.f32 s15, s10, s15
  35              	@ 0 "" 2
  36              	@ 47 "Source/Utility/dsp.h" 1
  37 0014 C7FEE47A 		vminnm.f32 s15, s15, s9
  38              	@ 0 "" 2
  39              		.thumb
  40              		.syntax unified
  41 0018 77EEA77A 		vadd.f32	s15, s15, s15
  42 001c F3EE083A 		vmov.f32	s7, #2.4e+1
  43 0020 F0EE005A 		vmov.f32	s11, #2.0e+0
  44 0024 27EEA77A 		vmul.f32	s14, s15, s15
  45 0028 C0ED007A 		vstr.32	s15, [r0]
  46 002c B8EE084A 		vmov.f32	s8, #-3.0e+0
  47 0030 75EEE75A 		vsub.f32	s11, s11, s15
  48 0034 27EE076A 		vmul.f32	s12, s14, s14
  49 0038 65EEA75A 		vmul.f32	s11, s11, s15
  50 003c 26EE276A 		vmul.f32	s12, s12, s15
  51 0040 26EE236A 		vmul.f32	s12, s12, s7
  52 0044 A7EEC56A 		vfms.f32	s12, s15, s10
  53 0048 27EE067A 		vmul.f32	s14, s14, s12
  54 004c A7EE857A 		vfma.f32	s14, s15, s10
  55 0050 F0EE667A 		vmov.f32	s15, s13
  56 0054 37EE666A 		vsub.f32	s12, s14, s13
  57 0058 80ED017A 		vstr.32	s14, [r0, #4]
  58 005c E5EE867A 		vfma.f32	s15, s11, s12
ARM GAS  C:\Users\pedro\AppData\Local\Temp\cc7wDx4b.s 			page 2


  59 0060 F4EEC47A 		vcmpe.f32	s15, s8
  60 0064 F1EE10FA 		vmrs	APSR_nzcv, FPSCR
  61 0068 20D4     		bmi	.L3
  62 006a B0EE087A 		vmov.f32	s14, #3.0e+0
  63 006e F4EEC77A 		vcmpe.f32	s15, s14
  64 0072 F1EE10FA 		vmrs	APSR_nzcv, FPSCR
  65 0076 14DC     		bgt	.L4
  66 0078 B3EE0B7A 		vmov.f32	s14, #2.7e+1
  67 007c F2EE026A 		vmov.f32	s13, #9.0e+0
  68 0080 B0EE476A 		vmov.f32	s12, s14
  69 0084 67EEA66A 		vmul.f32	s13, s15, s13
  70 0088 A7EEA76A 		vfma.f32	s12, s15, s15
  71 008c A7EEA67A 		vfma.f32	s14, s15, s13
  72 0090 67EE867A 		vmul.f32	s15, s15, s12
  73 0094 C7EE876A 		vdiv.f32	s13, s15, s14
  74 0098 C4EEA67A 		vdiv.f32	s15, s9, s13
  75 009c C0ED027A 		vstr.32	s15, [r0, #8]
  76 00a0 7047     		bx	lr
  77              	.L4:
  78 00a2 F0EE647A 		vmov.f32	s15, s9
  79 00a6 C0ED027A 		vstr.32	s15, [r0, #8]
  80 00aa 7047     		bx	lr
  81              	.L3:
  82 00ac FFEE007A 		vmov.f32	s15, #-1.0e+0
  83 00b0 C0ED027A 		vstr.32	s15, [r0, #8]
  84 00b4 7047     		bx	lr
  85              	.L7:
  86 00b6 00BF     		.align	2
  87              	.L6:
  88 00b8 00000000 		.word	0
  89 00bc C3F5A83E 		.word	1051260355
  91              		.section	.text._ZN7daisysp9Overdrive7ProcessEf,"ax",%progbits
  92              		.align	1
  93              		.p2align 2,,3
  94              		.global	_ZN7daisysp9Overdrive7ProcessEf
  95              		.syntax unified
  96              		.thumb
  97              		.thumb_func
  98              		.fpu fpv5-d16
 100              	_ZN7daisysp9Overdrive7ProcessEf:
 101              		@ args = 0, pretend = 0, frame = 0
 102              		@ frame_needed = 0, uses_anonymous_args = 0
 103              		@ link register save eliminated.
 104 0000 90ED017A 		vldr.32	s14, [r0, #4]
 105 0004 F8EE087A 		vmov.f32	s15, #-3.0e+0
 106 0008 20EE070A 		vmul.f32	s0, s0, s14
 107 000c B4EEE70A 		vcmpe.f32	s0, s15
 108 0010 F1EE10FA 		vmrs	APSR_nzcv, FPSCR
 109 0014 22D4     		bmi	.L10
 110 0016 F0EE087A 		vmov.f32	s15, #3.0e+0
 111 001a B4EEE70A 		vcmpe.f32	s0, s15
 112 001e F1EE10FA 		vmrs	APSR_nzcv, FPSCR
 113 0022 14DC     		bgt	.L11
 114 0024 B3EE0B7A 		vmov.f32	s14, #2.7e+1
 115 0028 F2EE026A 		vmov.f32	s13, #9.0e+0
 116 002c F0EE477A 		vmov.f32	s15, s14
 117 0030 60EE266A 		vmul.f32	s13, s0, s13
ARM GAS  C:\Users\pedro\AppData\Local\Temp\cc7wDx4b.s 			page 3


 118 0034 E0EE007A 		vfma.f32	s15, s0, s0
 119 0038 A0EE267A 		vfma.f32	s14, s0, s13
 120 003c 60EE277A 		vmul.f32	s15, s0, s15
 121 0040 87EE870A 		vdiv.f32	s0, s15, s14
 122 0044 D0ED027A 		vldr.32	s15, [r0, #8]
 123 0048 20EE270A 		vmul.f32	s0, s0, s15
 124 004c 7047     		bx	lr
 125              	.L11:
 126 004e B7EE000A 		vmov.f32	s0, #1.0e+0
 127 0052 D0ED027A 		vldr.32	s15, [r0, #8]
 128 0056 20EE270A 		vmul.f32	s0, s0, s15
 129 005a 7047     		bx	lr
 130              	.L10:
 131 005c BFEE000A 		vmov.f32	s0, #-1.0e+0
 132 0060 D0ED027A 		vldr.32	s15, [r0, #8]
 133 0064 20EE270A 		vmul.f32	s0, s0, s15
 134 0068 7047     		bx	lr
 136 006a 00BF     		.section	.text._ZN7daisysp9Overdrive8SetDriveEf,"ax",%progbits
 137              		.align	1
 138              		.p2align 2,,3
 139              		.global	_ZN7daisysp9Overdrive8SetDriveEf
 140              		.syntax unified
 141              		.thumb
 142              		.thumb_func
 143              		.fpu fpv5-d16
 145              	_ZN7daisysp9Overdrive8SetDriveEf:
 146              		@ args = 0, pretend = 0, frame = 0
 147              		@ frame_needed = 0, uses_anonymous_args = 0
 148              		@ link register save eliminated.
 149 0000 DFED2D7A 		vldr.32	s15, .L16
 150 0004 B7EE005A 		vmov.f32	s10, #1.0e+0
 151              		.syntax unified
 152              	@ 36 "Source/Utility/dsp.h" 1
 153 0008 80FE270A 		vmaxnm.f32 s0, s0, s15
 154              	@ 0 "" 2
 155              	@ 47 "Source/Utility/dsp.h" 1
 156 000c 80FE450A 		vminnm.f32 s0, s0, s10
 157              	@ 0 "" 2
 158              		.thumb
 159              		.syntax unified
 160 0010 30EE000A 		vadd.f32	s0, s0, s0
 161 0014 9FED297A 		vldr.32	s14, .L16+4
 162 0018 B3EE084A 		vmov.f32	s8, #2.4e+1
 163 001c F6EE005A 		vmov.f32	s11, #5.0e-1
 164 0020 20EE006A 		vmul.f32	s12, s0, s0
 165 0024 80ED000A 		vstr.32	s0, [r0]
 166 0028 F0EE006A 		vmov.f32	s13, #2.0e+0
 167 002c F8EE084A 		vmov.f32	s9, #-3.0e+0
 168 0030 66EE067A 		vmul.f32	s15, s12, s12
 169 0034 76EEC06A 		vsub.f32	s13, s13, s0
 170 0038 67EE807A 		vmul.f32	s15, s15, s0
 171 003c 66EE806A 		vmul.f32	s13, s13, s0
 172 0040 67EE847A 		vmul.f32	s15, s15, s8
 173 0044 E0EE657A 		vfms.f32	s15, s0, s11
 174 0048 67EE867A 		vmul.f32	s15, s15, s12
 175 004c E0EE257A 		vfma.f32	s15, s0, s11
 176 0050 37EEC76A 		vsub.f32	s12, s15, s14
ARM GAS  C:\Users\pedro\AppData\Local\Temp\cc7wDx4b.s 			page 4


 177 0054 C0ED017A 		vstr.32	s15, [r0, #4]
 178 0058 F0EE477A 		vmov.f32	s15, s14
 179 005c E6EE267A 		vfma.f32	s15, s12, s13
 180 0060 F4EEE47A 		vcmpe.f32	s15, s9
 181 0064 F1EE10FA 		vmrs	APSR_nzcv, FPSCR
 182 0068 20D4     		bmi	.L14
 183 006a B0EE087A 		vmov.f32	s14, #3.0e+0
 184 006e F4EEC77A 		vcmpe.f32	s15, s14
 185 0072 F1EE10FA 		vmrs	APSR_nzcv, FPSCR
 186 0076 14DC     		bgt	.L15
 187 0078 B3EE0B7A 		vmov.f32	s14, #2.7e+1
 188 007c F2EE026A 		vmov.f32	s13, #9.0e+0
 189 0080 B0EE476A 		vmov.f32	s12, s14
 190 0084 67EEA66A 		vmul.f32	s13, s15, s13
 191 0088 A7EEA76A 		vfma.f32	s12, s15, s15
 192 008c A7EEA67A 		vfma.f32	s14, s15, s13
 193 0090 67EE867A 		vmul.f32	s15, s15, s12
 194 0094 C7EE876A 		vdiv.f32	s13, s15, s14
 195 0098 C5EE267A 		vdiv.f32	s15, s10, s13
 196 009c C0ED027A 		vstr.32	s15, [r0, #8]
 197 00a0 7047     		bx	lr
 198              	.L15:
 199 00a2 F0EE457A 		vmov.f32	s15, s10
 200 00a6 C0ED027A 		vstr.32	s15, [r0, #8]
 201 00aa 7047     		bx	lr
 202              	.L14:
 203 00ac FFEE007A 		vmov.f32	s15, #-1.0e+0
 204 00b0 C0ED027A 		vstr.32	s15, [r0, #8]
 205 00b4 7047     		bx	lr
 206              	.L17:
 207 00b6 00BF     		.align	2
 208              	.L16:
 209 00b8 00000000 		.word	0
 210 00bc C3F5A83E 		.word	1051260355
 212              		.ident	"GCC: (GNU Arm Embedded Toolchain 10-2020-q4-major) 10.2.1 20201103 (release)"
ARM GAS  C:\Users\pedro\AppData\Local\Temp\cc7wDx4b.s 			page 5

