ARM GAS  C:\Users\pedro\AppData\Local\Temp\ccygTeXw.s 			page 1


   1              		.cpu cortex-m7
   2              		.eabi_attribute 28, 1
   3              		.eabi_attribute 20, 1
   4              		.eabi_attribute 21, 1
   5              		.eabi_attribute 23, 3
   6              		.eabi_attribute 24, 1
   7              		.eabi_attribute 25, 1
   8              		.eabi_attribute 26, 1
   9              		.eabi_attribute 30, 2
  10              		.eabi_attribute 34, 1
  11              		.eabi_attribute 18, 4
  12              		.file	"phaser.cpp"
  13              		.text
  14              		.section	.text._ZN7daisysp12PhaserEngine4InitEf,"ax",%progbits
  15              		.align	1
  16              		.p2align 2,,3
  17              		.global	_ZN7daisysp12PhaserEngine4InitEf
  18              		.arch armv7e-m
  19              		.syntax unified
  20              		.thumb
  21              		.thumb_func
  22              		.fpu fpv5-d16
  24              	_ZN7daisysp12PhaserEngine4InitEf:
  25              		@ args = 0, pretend = 0, frame = 0
  26              		@ frame_needed = 0, uses_anonymous_args = 0
  27 0000 10B5     		push	{r4, lr}
  28 0002 0446     		mov	r4, r0
  29 0004 4FF41652 		mov	r2, #9600
  30 0008 0021     		movs	r1, #0
  31 000a 3030     		adds	r0, r0, #48
  32 000c 2DED028B 		vpush.64	{d8}
  33 0010 B0EE408A 		vmov.f32	s16, s0
  34 0014 84ED000A 		vstr.32	s0, [r4]
  35 0018 FFF7FEFF 		bl	memset
  36 001c DFED207A 		vldr.32	s15, .L7
  37 0020 9FED206A 		vldr.32	s12, .L7+4
  38 0024 0023     		movs	r3, #0
  39 0026 9FED207A 		vldr.32	s14, .L7+8
  40 002a C4ED097A 		vstr.32	s15, [r4, #36]
  41              		.syntax unified
  42              	@ 36 "Source/Utility/dsp.h" 1
  43 002e 87FE277A 		vmaxnm.f32 s14, s14, s15
  44              	@ 0 "" 2
  45              		.thumb
  46              		.syntax unified
  47 0032 C4ED077A 		vstr.32	s15, [r4, #28]
  48 0036 C4ED087A 		vstr.32	s15, [r4, #32]
  49 003a C4ED017A 		vstr.32	s15, [r4, #4]
  50 003e C6EE087A 		vdiv.f32	s15, s12, s16
  51 0042 D4ED026A 		vldr.32	s13, [r4, #8]
  52 0046 194A     		ldr	r2, .L7+12
  53 0048 1949     		ldr	r1, .L7+16
  54 004a DFED1A5A 		vldr.32	s11, .L7+20
  55 004e F5EEC06A 		vcmpe.f32	s13, #0
  56 0052 A362     		str	r3, [r4, #40]
  57 0054 DFED126A 		vldr.32	s13, .L7
  58 0058 B5EE006A 		vmov.f32	s12, #2.5e-1
ARM GAS  C:\Users\pedro\AppData\Local\Temp\ccygTeXw.s 			page 2


  59              		.syntax unified
  60              	@ 47 "Source/Utility/dsp.h" 1
  61 005c 87FE657A 		vminnm.f32 s14, s14, s11
  62              	@ 0 "" 2
  63              		.thumb
  64              		.syntax unified
  65 0060 F1EE10FA 		vmrs	APSR_nzcv, FPSCR
  66 0064 84ED067A 		vstr.32	s14, [r4, #24]
  67 0068 6161     		str	r1, [r4, #20]	@ float
  68 006a BDEE007A 		vmov.f32	s14, #-2.5e-1
  69 006e E362     		str	r3, [r4, #44]
  70 0070 2261     		str	r2, [r4, #16]	@ float
  71 0072 BDEC028B 		vldm	sp!, {d8}
  72 0076 48BF     		it	mi
  73 0078 F1EE677A 		vnegmi.f32	s15, s15
  74              		.syntax unified
  75              	@ 36 "Source/Utility/dsp.h" 1
  76 007c C7FE877A 		vmaxnm.f32 s15, s15, s14
  77              	@ 0 "" 2
  78              		.thumb
  79              		.syntax unified
  80 0080 9FED0D7A 		vldr.32	s14, .L7+24
  81              		.syntax unified
  82              	@ 47 "Source/Utility/dsp.h" 1
  83 0084 C7FEC67A 		vminnm.f32 s15, s15, s12
  84              	@ 0 "" 2
  85              	@ 36 "Source/Utility/dsp.h" 1
  86 0088 87FE267A 		vmaxnm.f32 s14, s14, s13
  87              	@ 0 "" 2
  88              		.thumb
  89              		.syntax unified
  90 008c C4ED027A 		vstr.32	s15, [r4, #8]
  91 0090 F7EE006A 		vmov.f32	s13, #1.0e+0
  92              		.syntax unified
  93              	@ 47 "Source/Utility/dsp.h" 1
  94 0094 C7FE667A 		vminnm.f32 s15, s14, s13
  95              	@ 0 "" 2
  96              		.thumb
  97              		.syntax unified
  98 0098 C4ED037A 		vstr.32	s15, [r4, #12]
  99 009c 10BD     		pop	{r4, pc}
 100              	.L8:
 101 009e 00BF     		.align	2
 102              	.L7:
 103 00a0 00000000 		.word	0
 104 00a4 9A99993F 		.word	1067030938
 105 00a8 00004843 		.word	1128792064
 106 00ac 0000F041 		.word	1106247680
 107 00b0 CDCC4C3E 		.word	1045220557
 108 00b4 00409C46 		.word	1184645120
 109 00b8 6666663F 		.word	1063675494
 111              		.section	.text._ZN7daisysp12PhaserEngine7ProcessEf,"ax",%progbits
 112              		.align	1
 113              		.p2align 2,,3
 114              		.global	_ZN7daisysp12PhaserEngine7ProcessEf
 115              		.syntax unified
 116              		.thumb
ARM GAS  C:\Users\pedro\AppData\Local\Temp\ccygTeXw.s 			page 3


 117              		.thumb_func
 118              		.fpu fpv5-d16
 120              	_ZN7daisysp12PhaserEngine7ProcessEf:
 121              		@ args = 0, pretend = 0, frame = 0
 122              		@ frame_needed = 0, uses_anonymous_args = 0
 123 0000 90ED027A 		vldr.32	s14, [r0, #8]
 124 0004 F7EE006A 		vmov.f32	s13, #1.0e+0
 125 0008 D0ED017A 		vldr.32	s15, [r0, #4]
 126 000c 77EE277A 		vadd.f32	s15, s14, s15
 127 0010 30B5     		push	{r4, r5, lr}
 128 0012 F4EEE67A 		vcmpe.f32	s15, s13
 129 0016 F1EE10FA 		vmrs	APSR_nzcv, FPSCR
 130 001a 5CDD     		ble	.L15
 131 001c 77EEE67A 		vsub.f32	s15, s15, s13
 132 0020 B1EE477A 		vneg.f32	s14, s14
 133 0024 76EEE77A 		vsub.f32	s15, s13, s15
 134 0028 80ED027A 		vstr.32	s14, [r0, #8]
 135 002c C0ED017A 		vstr.32	s15, [r0, #4]
 136              	.L12:
 137 0030 D0ED036A 		vldr.32	s13, [r0, #12]
 138 0034 B0EE406A 		vmov.f32	s12, s0
 139 0038 90ED067A 		vldr.32	s14, [r0, #24]
 140 003c 4FF4166E 		mov	lr, #2400
 141 0040 67EEA67A 		vmul.f32	s15, s15, s13
 142 0044 D0ED043A 		vldr.32	s7, [r0, #16]
 143 0048 90ED085A 		vldr.32	s10, [r0, #32]
 144 004c 90ED004A 		vldr.32	s8, [r0]
 145 0050 A7EE877A 		vfma.f32	s14, s15, s14
 146 0054 D0ED057A 		vldr.32	s15, [r0, #20]
 147 0058 D0ED076A 		vldr.32	s13, [r0, #28]
 148 005c A7EE856A 		vfma.f32	s12, s15, s10
 149 0060 DFED264A 		vldr.32	s9, .L18
 150 0064 816A     		ldr	r1, [r0, #40]
 151 0066 B6EE005A 		vmov.f32	s10, #5.0e-1
 152 006a 254A     		ldr	r2, .L18+4
 153 006c 01F65F1C 		addw	ip, r1, #2399
 154 0070 DFED245A 		vldr.32	s11, .L18+8
 155 0074 37EE237A 		vadd.f32	s14, s14, s7
 156 0078 A2FB0C54 		umull	r5, r4, r2, ip
 157 007c C4EE077A 		vdiv.f32	s15, s8, s14
 158 0080 240A     		lsrs	r4, r4, #8
 159 0082 0EFB14C4 		mls	r4, lr, r4, ip
 160 0086 37EEE67A 		vsub.f32	s14, s15, s13
 161 008a F0EE667A 		vmov.f32	s15, s13
 162 008e E7EE247A 		vfma.f32	s15, s14, s9
 163 0092 BCEEE77A 		vcvt.u32.f32	s14, s15
 164 0096 C0ED077A 		vstr.32	s15, [r0, #28]
 165 009a 17EE103A 		vmov	r3, s14	@ int
 166 009e B0EE467A 		vmov.f32	s14, s12
 167 00a2 0B44     		add	r3, r3, r1
 168 00a4 00EB8101 		add	r1, r0, r1, lsl #2
 169 00a8 A2FB0352 		umull	r5, r2, r2, r3
 170 00ac 120A     		lsrs	r2, r2, #8
 171 00ae 0EFB1233 		mls	r3, lr, r2, r3
 172 00b2 00EB8303 		add	r3, r0, r3, lsl #2
 173 00b6 D3ED0C7A 		vldr.32	s15, [r3, #48]
 174 00ba A7EEA57A 		vfma.f32	s14, s15, s11
ARM GAS  C:\Users\pedro\AppData\Local\Temp\ccygTeXw.s 			page 4


 175 00be E7EE657A 		vfms.f32	s15, s14, s11
 176 00c2 81ED0C7A 		vstr.32	s14, [r1, #48]
 177 00c6 8462     		str	r4, [r0, #40]
 178 00c8 30EE270A 		vadd.f32	s0, s0, s15
 179 00cc C0ED087A 		vstr.32	s15, [r0, #32]
 180 00d0 20EE050A 		vmul.f32	s0, s0, s10
 181 00d4 30BD     		pop	{r4, r5, pc}
 182              	.L15:
 183 00d6 BFEE006A 		vmov.f32	s12, #-1.0e+0
 184 00da F4EEC67A 		vcmpe.f32	s15, s12
 185 00de F1EE10FA 		vmrs	APSR_nzcv, FPSCR
 186 00e2 07D5     		bpl	.L17
 187 00e4 77EEA67A 		vadd.f32	s15, s15, s13
 188 00e8 B1EE477A 		vneg.f32	s14, s14
 189 00ec 76EE677A 		vsub.f32	s15, s12, s15
 190 00f0 80ED027A 		vstr.32	s14, [r0, #8]
 191              	.L17:
 192 00f4 C0ED017A 		vstr.32	s15, [r0, #4]
 193 00f8 9AE7     		b	.L12
 194              	.L19:
 195 00fa 00BF     		.align	2
 196              	.L18:
 197 00fc 17B7D138 		.word	953267991
 198 0100 B5814E1B 		.word	458129845
 199 0104 9A99993E 		.word	1050253722
 201              		.section	.text._ZN7daisysp12PhaserEngine11SetLfoDepthEf,"ax",%progbits
 202              		.align	1
 203              		.p2align 2,,3
 204              		.global	_ZN7daisysp12PhaserEngine11SetLfoDepthEf
 205              		.syntax unified
 206              		.thumb
 207              		.thumb_func
 208              		.fpu fpv5-d16
 210              	_ZN7daisysp12PhaserEngine11SetLfoDepthEf:
 211              		@ args = 0, pretend = 0, frame = 0
 212              		@ frame_needed = 0, uses_anonymous_args = 0
 213              		@ link register save eliminated.
 214 0000 F7EE007A 		vmov.f32	s15, #1.0e+0
 215 0004 9FED047A 		vldr.32	s14, .L21
 216              		.syntax unified
 217              	@ 36 "Source/Utility/dsp.h" 1
 218 0008 80FE070A 		vmaxnm.f32 s0, s0, s14
 219              	@ 0 "" 2
 220              	@ 47 "Source/Utility/dsp.h" 1
 221 000c 80FE670A 		vminnm.f32 s0, s0, s15
 222              	@ 0 "" 2
 223              		.thumb
 224              		.syntax unified
 225 0010 80ED030A 		vstr.32	s0, [r0, #12]
 226 0014 7047     		bx	lr
 227              	.L22:
 228 0016 00BF     		.align	2
 229              	.L21:
 230 0018 00000000 		.word	0
 232              		.section	.text._ZN7daisysp12PhaserEngine10SetLfoFreqEf,"ax",%progbits
 233              		.align	1
 234              		.p2align 2,,3
ARM GAS  C:\Users\pedro\AppData\Local\Temp\ccygTeXw.s 			page 5


 235              		.global	_ZN7daisysp12PhaserEngine10SetLfoFreqEf
 236              		.syntax unified
 237              		.thumb
 238              		.thumb_func
 239              		.fpu fpv5-d16
 241              	_ZN7daisysp12PhaserEngine10SetLfoFreqEf:
 242              		@ args = 0, pretend = 0, frame = 0
 243              		@ frame_needed = 0, uses_anonymous_args = 0
 244              		@ link register save eliminated.
 245 0000 F1EE007A 		vmov.f32	s15, #4.0e+0
 246 0004 D0ED006A 		vldr.32	s13, [r0]
 247 0008 90ED027A 		vldr.32	s14, [r0, #8]
 248 000c 20EE270A 		vmul.f32	s0, s0, s15
 249 0010 B5EEC07A 		vcmpe.f32	s14, #0
 250 0014 B5EE007A 		vmov.f32	s14, #2.5e-1
 251 0018 C0EE267A 		vdiv.f32	s15, s0, s13
 252 001c F1EE10FA 		vmrs	APSR_nzcv, FPSCR
 253 0020 FDEE006A 		vmov.f32	s13, #-2.5e-1
 254 0024 48BF     		it	mi
 255 0026 F1EE677A 		vnegmi.f32	s15, s15
 256              		.syntax unified
 257              	@ 36 "Source/Utility/dsp.h" 1
 258 002a C7FEA67A 		vmaxnm.f32 s15, s15, s13
 259              	@ 0 "" 2
 260              	@ 47 "Source/Utility/dsp.h" 1
 261 002e C7FEC77A 		vminnm.f32 s15, s15, s14
 262              	@ 0 "" 2
 263              		.thumb
 264              		.syntax unified
 265 0032 C0ED027A 		vstr.32	s15, [r0, #8]
 266 0036 7047     		bx	lr
 268              		.section	.text._ZN7daisysp12PhaserEngine7SetFreqEf,"ax",%progbits
 269              		.align	1
 270              		.p2align 2,,3
 271              		.global	_ZN7daisysp12PhaserEngine7SetFreqEf
 272              		.syntax unified
 273              		.thumb
 274              		.thumb_func
 275              		.fpu fpv5-d16
 277              	_ZN7daisysp12PhaserEngine7SetFreqEf:
 278              		@ args = 0, pretend = 0, frame = 0
 279              		@ frame_needed = 0, uses_anonymous_args = 0
 280              		@ link register save eliminated.
 281 0000 9FED057A 		vldr.32	s14, .L28
 282 0004 DFED057A 		vldr.32	s15, .L28+4
 283              		.syntax unified
 284              	@ 36 "Source/Utility/dsp.h" 1
 285 0008 80FE070A 		vmaxnm.f32 s0, s0, s14
 286              	@ 0 "" 2
 287              	@ 47 "Source/Utility/dsp.h" 1
 288 000c 80FE670A 		vminnm.f32 s0, s0, s15
 289              	@ 0 "" 2
 290              		.thumb
 291              		.syntax unified
 292 0010 80ED060A 		vstr.32	s0, [r0, #24]
 293 0014 7047     		bx	lr
 294              	.L29:
ARM GAS  C:\Users\pedro\AppData\Local\Temp\ccygTeXw.s 			page 6


 295 0016 00BF     		.align	2
 296              	.L28:
 297 0018 00000000 		.word	0
 298 001c 00409C46 		.word	1184645120
 300              		.section	.text._ZN7daisysp12PhaserEngine11SetFeedbackEf,"ax",%progbits
 301              		.align	1
 302              		.p2align 2,,3
 303              		.global	_ZN7daisysp12PhaserEngine11SetFeedbackEf
 304              		.syntax unified
 305              		.thumb
 306              		.thumb_func
 307              		.fpu fpv5-d16
 309              	_ZN7daisysp12PhaserEngine11SetFeedbackEf:
 310              		@ args = 0, pretend = 0, frame = 0
 311              		@ frame_needed = 0, uses_anonymous_args = 0
 312              		@ link register save eliminated.
 313 0000 F6EE087A 		vmov.f32	s15, #7.5e-1
 314 0004 9FED047A 		vldr.32	s14, .L31
 315              		.syntax unified
 316              	@ 36 "Source/Utility/dsp.h" 1
 317 0008 80FE070A 		vmaxnm.f32 s0, s0, s14
 318              	@ 0 "" 2
 319              	@ 47 "Source/Utility/dsp.h" 1
 320 000c 80FE670A 		vminnm.f32 s0, s0, s15
 321              	@ 0 "" 2
 322              		.thumb
 323              		.syntax unified
 324 0010 80ED050A 		vstr.32	s0, [r0, #20]
 325 0014 7047     		bx	lr
 326              	.L32:
 327 0016 00BF     		.align	2
 328              	.L31:
 329 0018 00000000 		.word	0
 331              		.section	.text._ZN7daisysp12PhaserEngine10ProcessLfoEv,"ax",%progbits
 332              		.align	1
 333              		.p2align 2,,3
 334              		.global	_ZN7daisysp12PhaserEngine10ProcessLfoEv
 335              		.syntax unified
 336              		.thumb
 337              		.thumb_func
 338              		.fpu fpv5-d16
 340              	_ZN7daisysp12PhaserEngine10ProcessLfoEv:
 341              		@ args = 0, pretend = 0, frame = 0
 342              		@ frame_needed = 0, uses_anonymous_args = 0
 343              		@ link register save eliminated.
 344 0000 90ED027A 		vldr.32	s14, [r0, #8]
 345 0004 B7EE000A 		vmov.f32	s0, #1.0e+0
 346 0008 D0ED017A 		vldr.32	s15, [r0, #4]
 347 000c 77EE277A 		vadd.f32	s15, s14, s15
 348 0010 F4EEC07A 		vcmpe.f32	s15, s0
 349 0014 F1EE10FA 		vmrs	APSR_nzcv, FPSCR
 350 0018 12DD     		ble	.L39
 351 001a 77EEC07A 		vsub.f32	s15, s15, s0
 352 001e B1EE477A 		vneg.f32	s14, s14
 353 0022 70EE677A 		vsub.f32	s15, s0, s15
 354 0026 80ED027A 		vstr.32	s14, [r0, #8]
 355 002a C0ED017A 		vstr.32	s15, [r0, #4]
ARM GAS  C:\Users\pedro\AppData\Local\Temp\ccygTeXw.s 			page 7


 356              	.L36:
 357 002e 90ED037A 		vldr.32	s14, [r0, #12]
 358 0032 90ED060A 		vldr.32	s0, [r0, #24]
 359 0036 67EE877A 		vmul.f32	s15, s15, s14
 360 003a 27EE800A 		vmul.f32	s0, s15, s0
 361 003e 7047     		bx	lr
 362              	.L39:
 363 0040 FFEE006A 		vmov.f32	s13, #-1.0e+0
 364 0044 F4EEE67A 		vcmpe.f32	s15, s13
 365 0048 F1EE10FA 		vmrs	APSR_nzcv, FPSCR
 366 004c 07D5     		bpl	.L40
 367 004e 77EE807A 		vadd.f32	s15, s15, s0
 368 0052 B1EE477A 		vneg.f32	s14, s14
 369 0056 76EEE77A 		vsub.f32	s15, s13, s15
 370 005a 80ED027A 		vstr.32	s14, [r0, #8]
 371              	.L40:
 372 005e C0ED017A 		vstr.32	s15, [r0, #4]
 373 0062 E4E7     		b	.L36
 375              		.section	.text._ZN7daisysp6Phaser4InitEf,"ax",%progbits
 376              		.align	1
 377              		.p2align 2,,3
 378              		.global	_ZN7daisysp6Phaser4InitEf
 379              		.syntax unified
 380              		.thumb
 381              		.thumb_func
 382              		.fpu fpv5-d16
 384              	_ZN7daisysp6Phaser4InitEf:
 385              		@ args = 0, pretend = 0, frame = 0
 386              		@ frame_needed = 0, uses_anonymous_args = 0
 387 0000 F8B5     		push	{r3, r4, r5, r6, r7, lr}
 388 0002 324D     		ldr	r5, .L50
 389 0004 0024     		movs	r4, #0
 390 0006 DFED327A 		vldr.32	s15, .L50+4
 391 000a 0746     		mov	r7, r0
 392 000c 314E     		ldr	r6, .L50+8
 393 000e 00F13003 		add	r3, r0, #48
 394 0012 0544     		add	r5, r5, r0
 395 0014 9FED307A 		vldr.32	s14, .L50+12
 396 0018 2DED068B 		vpush.64	{d8, d9, d10}
 397 001c B0EE40AA 		vmov.f32	s20, s0
 398 0020 9FED2E8A 		vldr.32	s16, .L50+16
 399 0024 C7EE809A 		vdiv.f32	s19, s15, s0
 400 0028 9FED2D9A 		vldr.32	s18, .L50+20
 401 002c DFED2D8A 		vldr.32	s17, .L50+24
 402              		.syntax unified
 403              	@ 36 "Source/Utility/dsp.h" 1
 404 0030 89FE089A 		vmaxnm.f32 s18, s18, s16
 405              	@ 0 "" 2
 406              	@ 36 "Source/Utility/dsp.h" 1
 407 0034 C8FE888A 		vmaxnm.f32 s17, s17, s16
 408              	@ 0 "" 2
 409              	@ 47 "Source/Utility/dsp.h" 1
 410 0038 89FE479A 		vminnm.f32 s18, s18, s14
 411              	@ 0 "" 2
 412              		.thumb
 413              		.syntax unified
 414 003c F7EE007A 		vmov.f32	s15, #1.0e+0
ARM GAS  C:\Users\pedro\AppData\Local\Temp\ccygTeXw.s 			page 8


 415              		.syntax unified
 416              	@ 47 "Source/Utility/dsp.h" 1
 417 0040 C8FEE78A 		vminnm.f32 s17, s17, s15
 418              	@ 0 "" 2
 419              		.thumb
 420              		.syntax unified
 421              	.L44:
 422 0044 1846     		mov	r0, r3
 423 0046 4FF41652 		mov	r2, #9600
 424 004a 03ED0CAA 		vstr.32	s20, [r3, #-48]
 425 004e 0021     		movs	r1, #0
 426 0050 FFF7FEFF 		bl	memset
 427 0054 50ED0A7A 		vldr.32	s15, [r0, #-40]
 428 0058 00F51653 		add	r3, r0, #9600
 429 005c 224A     		ldr	r2, .L50+28
 430 005e F5EEC07A 		vcmpe.f32	s15, #0
 431 0062 40F8084C 		str	r4, [r0, #-8]
 432 0066 3033     		adds	r3, r3, #48
 433 0068 F0EE697A 		vmov.f32	s15, s19
 434 006c FDEE006A 		vmov.f32	s13, #-2.5e-1
 435 0070 40F81C6C 		str	r6, [r0, #-28]	@ float
 436 0074 F1EE10FA 		vmrs	APSR_nzcv, FPSCR
 437 0078 00ED069A 		vstr.32	s18, [r0, #-24]
 438 007c B5EE007A 		vmov.f32	s14, #2.5e-1
 439 0080 00ED038A 		vstr.32	s16, [r0, #-12]
 440 0084 40F8044C 		str	r4, [r0, #-4]
 441 0088 48BF     		it	mi
 442 008a F1EE697A 		vnegmi.f32	s15, s19
 443 008e AB42     		cmp	r3, r5
 444              		.syntax unified
 445              	@ 36 "Source/Utility/dsp.h" 1
 446 0090 C7FEA67A 		vmaxnm.f32 s15, s15, s13
 447              	@ 0 "" 2
 448              		.thumb
 449              		.syntax unified
 450 0094 40F8202C 		str	r2, [r0, #-32]	@ float
 451              		.syntax unified
 452              	@ 47 "Source/Utility/dsp.h" 1
 453 0098 C7FEC77A 		vminnm.f32 s15, s15, s14
 454              	@ 0 "" 2
 455              		.thumb
 456              		.syntax unified
 457 009c 00ED058A 		vstr.32	s16, [r0, #-20]
 458 00a0 00ED048A 		vstr.32	s16, [r0, #-16]
 459 00a4 00ED0B8A 		vstr.32	s16, [r0, #-44]
 460 00a8 40ED098A 		vstr.32	s17, [r0, #-36]
 461 00ac 40ED0A7A 		vstr.32	s15, [r0, #-40]
 462 00b0 C8D1     		bne	.L44
 463 00b2 07F59037 		add	r7, r7, #73728
 464 00b6 4FF07C52 		mov	r2, #1056964608
 465 00ba 0421     		movs	r1, #4
 466 00bc 07F55863 		add	r3, r7, #3456
 467 00c0 C7F8841D 		str	r1, [r7, #3460]
 468 00c4 1A60     		str	r2, [r3]	@ float
 469 00c6 BDEC068B 		vldm	sp!, {d8-d10}
 470 00ca F8BD     		pop	{r3, r4, r5, r6, r7, pc}
 471              	.L51:
ARM GAS  C:\Users\pedro\AppData\Local\Temp\ccygTeXw.s 			page 9


 472              		.align	2
 473              	.L50:
 474 00cc B02D0100 		.word	77232
 475 00d0 9A99993F 		.word	1067030938
 476 00d4 CDCC4C3E 		.word	1045220557
 477 00d8 00409C46 		.word	1184645120
 478 00dc 00000000 		.word	0
 479 00e0 00004843 		.word	1128792064
 480 00e4 6666663F 		.word	1063675494
 481 00e8 0000F041 		.word	1106247680
 483              		.section	.text._ZN7daisysp6Phaser7ProcessEf,"ax",%progbits
 484              		.align	1
 485              		.p2align 2,,3
 486              		.global	_ZN7daisysp6Phaser7ProcessEf
 487              		.syntax unified
 488              		.thumb
 489              		.thumb_func
 490              		.fpu fpv5-d16
 492              	_ZN7daisysp6Phaser7ProcessEf:
 493              		@ args = 0, pretend = 0, frame = 0
 494              		@ frame_needed = 0, uses_anonymous_args = 0
 495 0000 00F59033 		add	r3, r0, #73728
 496 0004 F0B5     		push	{r4, r5, r6, r7, lr}
 497 0006 D3F8845D 		ldr	r5, [r3, #3460]
 498 000a 002D     		cmp	r5, #0
 499 000c 40F38580 		ble	.L59
 500 0010 42F2B056 		movw	r6, #9648
 501 0014 F7EE005A 		vmov.f32	s11, #1.0e+0
 502 0018 BFEE001A 		vmov.f32	s2, #-1.0e+0
 503 001c 9FED415A 		vldr.32	s10, .L66
 504 0020 F6EE001A 		vmov.f32	s3, #5.0e-1
 505 0024 06FB0505 		mla	r5, r6, r5, r0
 506 0028 9FED3F2A 		vldr.32	s4, .L66+4
 507 002c 4FF4166C 		mov	ip, #2400
 508 0030 3E4C     		ldr	r4, .L66+8
 509 0032 DFED3F4A 		vldr.32	s9, .L66+12
 510 0036 53E0     		b	.L58
 511              	.L65:
 512 0038 77EEE57A 		vsub.f32	s15, s15, s11
 513 003c C0ED026A 		vstr.32	s13, [r0, #8]
 514 0040 75EEE77A 		vsub.f32	s15, s11, s15
 515 0044 C0ED017A 		vstr.32	s15, [r0, #4]
 516              	.L56:
 517 0048 D0ED036A 		vldr.32	s13, [r0, #12]
 518 004c B0EE406A 		vmov.f32	s12, s0
 519 0050 90ED067A 		vldr.32	s14, [r0, #24]
 520 0054 67EEA67A 		vmul.f32	s15, s15, s13
 521 0058 D0ED043A 		vldr.32	s7, [r0, #16]
 522 005c 90ED004A 		vldr.32	s8, [r0]
 523 0060 D0ED076A 		vldr.32	s13, [r0, #28]
 524 0064 A7EE877A 		vfma.f32	s14, s15, s14
 525 0068 816A     		ldr	r1, [r0, #40]
 526 006a 90ED083A 		vldr.32	s6, [r0, #32]
 527 006e 01F65F12 		addw	r2, r1, #2399
 528 0072 D0ED052A 		vldr.32	s5, [r0, #20]
 529 0076 00EB810E 		add	lr, r0, r1, lsl #2
 530 007a A4FB0273 		umull	r7, r3, r4, r2
ARM GAS  C:\Users\pedro\AppData\Local\Temp\ccygTeXw.s 			page 10


 531 007e A2EE836A 		vfma.f32	s12, s5, s6
 532 0082 37EE237A 		vadd.f32	s14, s14, s7
 533 0086 1B0A     		lsrs	r3, r3, #8
 534 0088 0CFB1322 		mls	r2, ip, r3, r2
 535 008c C4EE077A 		vdiv.f32	s15, s8, s14
 536 0090 37EEE67A 		vsub.f32	s14, s15, s13
 537 0094 F0EE667A 		vmov.f32	s15, s13
 538 0098 E7EE027A 		vfma.f32	s15, s14, s4
 539 009c BCEEE77A 		vcvt.u32.f32	s14, s15
 540 00a0 C0ED077A 		vstr.32	s15, [r0, #28]
 541 00a4 17EE103A 		vmov	r3, s14	@ int
 542 00a8 B0EE467A 		vmov.f32	s14, s12
 543 00ac 0B44     		add	r3, r3, r1
 544 00ae A4FB0371 		umull	r7, r1, r4, r3
 545 00b2 090A     		lsrs	r1, r1, #8
 546 00b4 0CFB1133 		mls	r3, ip, r1, r3
 547 00b8 00EB8303 		add	r3, r0, r3, lsl #2
 548 00bc D3ED0C7A 		vldr.32	s15, [r3, #48]
 549 00c0 A7EEA47A 		vfma.f32	s14, s15, s9
 550 00c4 E7EE647A 		vfms.f32	s15, s14, s9
 551 00c8 8EED0C7A 		vstr.32	s14, [lr, #48]
 552 00cc 8262     		str	r2, [r0, #40]
 553 00ce C0ED087A 		vstr.32	s15, [r0, #32]
 554 00d2 3044     		add	r0, r0, r6
 555 00d4 30EE277A 		vadd.f32	s14, s0, s15
 556 00d8 A842     		cmp	r0, r5
 557 00da A7EE215A 		vfma.f32	s10, s14, s3
 558 00de 1ED0     		beq	.L52
 559              	.L58:
 560 00e0 90ED027A 		vldr.32	s14, [r0, #8]
 561 00e4 D0ED017A 		vldr.32	s15, [r0, #4]
 562 00e8 F1EE476A 		vneg.f32	s13, s14
 563 00ec 77EE277A 		vadd.f32	s15, s14, s15
 564 00f0 F4EEE57A 		vcmpe.f32	s15, s11
 565 00f4 F1EE10FA 		vmrs	APSR_nzcv, FPSCR
 566 00f8 9EDC     		bgt	.L65
 567 00fa F4EEC17A 		vcmpe.f32	s15, s2
 568 00fe B1EE477A 		vneg.f32	s14, s14
 569 0102 F1EE10FA 		vmrs	APSR_nzcv, FPSCR
 570 0106 05D5     		bpl	.L64
 571 0108 77EEA57A 		vadd.f32	s15, s15, s11
 572 010c 80ED027A 		vstr.32	s14, [r0, #8]
 573 0110 71EE677A 		vsub.f32	s15, s2, s15
 574              	.L64:
 575 0114 C0ED017A 		vstr.32	s15, [r0, #4]
 576 0118 96E7     		b	.L56
 577              	.L59:
 578 011a 9FED025A 		vldr.32	s10, .L66
 579              	.L52:
 580 011e B0EE450A 		vmov.f32	s0, s10
 581 0122 F0BD     		pop	{r4, r5, r6, r7, pc}
 582              	.L67:
 583              		.align	2
 584              	.L66:
 585 0124 00000000 		.word	0
 586 0128 17B7D138 		.word	953267991
 587 012c B5814E1B 		.word	458129845
ARM GAS  C:\Users\pedro\AppData\Local\Temp\ccygTeXw.s 			page 11


 588 0130 9A99993E 		.word	1050253722
 590              		.section	.text._ZN7daisysp6Phaser8SetPolesEi,"ax",%progbits
 591              		.align	1
 592              		.p2align 2,,3
 593              		.global	_ZN7daisysp6Phaser8SetPolesEi
 594              		.syntax unified
 595              		.thumb
 596              		.thumb_func
 597              		.fpu fpv5-d16
 599              	_ZN7daisysp6Phaser8SetPolesEi:
 600              		@ args = 0, pretend = 0, frame = 0
 601              		@ frame_needed = 0, uses_anonymous_args = 0
 602              		@ link register save eliminated.
 603 0000 0129     		cmp	r1, #1
 604 0002 00F59030 		add	r0, r0, #73728
 605 0006 B8BF     		it	lt
 606 0008 0121     		movlt	r1, #1
 607 000a 0829     		cmp	r1, #8
 608 000c A8BF     		it	ge
 609 000e 0821     		movge	r1, #8
 610 0010 C0F8841D 		str	r1, [r0, #3460]
 611 0014 7047     		bx	lr
 613 0016 00BF     		.section	.text._ZN7daisysp6Phaser11SetLfoDepthEf,"ax",%progbits
 614              		.align	1
 615              		.p2align 2,,3
 616              		.global	_ZN7daisysp6Phaser11SetLfoDepthEf
 617              		.syntax unified
 618              		.thumb
 619              		.thumb_func
 620              		.fpu fpv5-d16
 622              	_ZN7daisysp6Phaser11SetLfoDepthEf:
 623              		@ args = 0, pretend = 0, frame = 0
 624              		@ frame_needed = 0, uses_anonymous_args = 0
 625 0000 00B5     		push	{lr}
 626 0002 44F66C3C 		movw	ip, #19308
 627 0006 42F2BC5E 		movw	lr, #9660
 628 000a 49F2CC61 		movw	r1, #38604
 629 000e 4BF67C42 		movw	r2, #48252
 630 0012 8444     		add	ip, ip, r0
 631 0014 8644     		add	lr, lr, r0
 632 0016 114B     		ldr	r3, .L71
 633 0018 0144     		add	r1, r1, r0
 634 001a DFED117A 		vldr.32	s15, .L71+4
 635 001e 0244     		add	r2, r2, r0
 636 0020 0344     		add	r3, r3, r0
 637              		.syntax unified
 638              	@ 36 "Source/Utility/dsp.h" 1
 639 0022 80FE270A 		vmaxnm.f32 s0, s0, s15
 640              	@ 0 "" 2
 641              		.thumb
 642              		.syntax unified
 643 0026 F7EE007A 		vmov.f32	s15, #1.0e+0
 644              		.syntax unified
 645              	@ 47 "Source/Utility/dsp.h" 1
 646 002a 80FE670A 		vminnm.f32 s0, s0, s15
 647              	@ 0 "" 2
 648              		.thumb
ARM GAS  C:\Users\pedro\AppData\Local\Temp\ccygTeXw.s 			page 12


 649              		.syntax unified
 650 002e 80ED030A 		vstr.32	s0, [r0, #12]
 651 0032 8EED000A 		vstr.32	s0, [lr]
 652 0036 8CED000A 		vstr.32	s0, [ip]
 653 003a 00F5E04C 		add	ip, r0, #28672
 654 003e 00F56040 		add	r0, r0, #57344
 655 0042 8CED470A 		vstr.32	s0, [ip, #284]
 656 0046 81ED000A 		vstr.32	s0, [r1]
 657 004a 82ED000A 		vstr.32	s0, [r2]
 658 004e 80ED8B0A 		vstr.32	s0, [r0, #556]
 659 0052 83ED000A 		vstr.32	s0, [r3]
 660 0056 5DF804FB 		ldr	pc, [sp], #4
 661              	.L72:
 662 005a 00BF     		.align	2
 663              	.L71:
 664 005c DC070100 		.word	67548
 665 0060 00000000 		.word	0
 667              		.section	.text._ZN7daisysp6Phaser10SetLfoFreqEf,"ax",%progbits
 668              		.align	1
 669              		.p2align 2,,3
 670              		.global	_ZN7daisysp6Phaser10SetLfoFreqEf
 671              		.syntax unified
 672              		.thumb
 673              		.thumb_func
 674              		.fpu fpv5-d16
 676              	_ZN7daisysp6Phaser10SetLfoFreqEf:
 677              		@ args = 0, pretend = 0, frame = 0
 678              		@ frame_needed = 0, uses_anonymous_args = 0
 679              		@ link register save eliminated.
 680 0000 F1EE007A 		vmov.f32	s15, #4.0e+0
 681 0004 D0ED006A 		vldr.32	s13, [r0]
 682 0008 90ED027A 		vldr.32	s14, [r0, #8]
 683 000c 00F50052 		add	r2, r0, #8192
 684 0010 20EE270A 		vmul.f32	s0, s0, s15
 685 0014 02F5B661 		add	r1, r2, #1456
 686 0018 B5EEC07A 		vcmpe.f32	s14, #0
 687 001c 02F5B763 		add	r3, r2, #1464
 688 0020 B5EE007A 		vmov.f32	s14, #2.5e-1
 689 0024 02F5B762 		add	r2, r2, #1464
 690 0028 C0EE267A 		vdiv.f32	s15, s0, s13
 691 002c F1EE10FA 		vmrs	APSR_nzcv, FPSCR
 692 0030 FDEE006A 		vmov.f32	s13, #-2.5e-1
 693 0034 48BF     		it	mi
 694 0036 F1EE677A 		vnegmi.f32	s15, s15
 695              		.syntax unified
 696              	@ 36 "Source/Utility/dsp.h" 1
 697 003a C7FEA67A 		vmaxnm.f32 s15, s15, s13
 698              	@ 0 "" 2
 699              	@ 47 "Source/Utility/dsp.h" 1
 700 003e C7FEC77A 		vminnm.f32 s15, s15, s14
 701              	@ 0 "" 2
 702              		.thumb
 703              		.syntax unified
 704 0042 C0ED027A 		vstr.32	s15, [r0, #8]
 705 0046 D1ED006A 		vldr.32	s13, [r1]
 706 004a 93ED007A 		vldr.32	s14, [r3]
 707 004e 00F58043 		add	r3, r0, #16384
ARM GAS  C:\Users\pedro\AppData\Local\Temp\ccygTeXw.s 			page 13


 708 0052 C0EE267A 		vdiv.f32	s15, s0, s13
 709 0056 03F5366C 		add	ip, r3, #2912
 710 005a 03F66831 		addw	r1, r3, #2920
 711 005e 03F66833 		addw	r3, r3, #2920
 712 0062 B5EEC07A 		vcmpe.f32	s14, #0
 713 0066 FDEE006A 		vmov.f32	s13, #-2.5e-1
 714 006a B5EE007A 		vmov.f32	s14, #2.5e-1
 715 006e F1EE10FA 		vmrs	APSR_nzcv, FPSCR
 716 0072 48BF     		it	mi
 717 0074 F1EE677A 		vnegmi.f32	s15, s15
 718              		.syntax unified
 719              	@ 36 "Source/Utility/dsp.h" 1
 720 0078 C7FEA67A 		vmaxnm.f32 s15, s15, s13
 721              	@ 0 "" 2
 722              	@ 47 "Source/Utility/dsp.h" 1
 723 007c C7FEC77A 		vminnm.f32 s15, s15, s14
 724              	@ 0 "" 2
 725              		.thumb
 726              		.syntax unified
 727 0080 C2ED007A 		vstr.32	s15, [r2]
 728 0084 00F51042 		add	r2, r0, #36864
 729 0088 DCED006A 		vldr.32	s13, [ip]
 730 008c 91ED007A 		vldr.32	s14, [r1]
 731 0090 00F5E041 		add	r1, r0, #28672
 732 0094 C0EE267A 		vdiv.f32	s15, s0, s13
 733 0098 02F5D86C 		add	ip, r2, #1728
 734 009c B5EEC07A 		vcmpe.f32	s14, #0
 735 00a0 FDEE006A 		vmov.f32	s13, #-2.5e-1
 736 00a4 B5EE007A 		vmov.f32	s14, #2.5e-1
 737 00a8 F1EE10FA 		vmrs	APSR_nzcv, FPSCR
 738 00ac 48BF     		it	mi
 739 00ae F1EE677A 		vnegmi.f32	s15, s15
 740              		.syntax unified
 741              	@ 36 "Source/Utility/dsp.h" 1
 742 00b2 C7FEA67A 		vmaxnm.f32 s15, s15, s13
 743              	@ 0 "" 2
 744              	@ 47 "Source/Utility/dsp.h" 1
 745 00b6 C7FEC77A 		vminnm.f32 s15, s15, s14
 746              	@ 0 "" 2
 747              		.thumb
 748              		.syntax unified
 749 00ba C3ED007A 		vstr.32	s15, [r3]
 750 00be 02F5D963 		add	r3, r2, #1736
 751 00c2 D1ED446A 		vldr.32	s13, [r1, #272]
 752 00c6 02F5D962 		add	r2, r2, #1736
 753 00ca 91ED467A 		vldr.32	s14, [r1, #280]
 754 00ce C0EE267A 		vdiv.f32	s15, s0, s13
 755 00d2 B5EEC07A 		vcmpe.f32	s14, #0
 756 00d6 FDEE006A 		vmov.f32	s13, #-2.5e-1
 757 00da B5EE007A 		vmov.f32	s14, #2.5e-1
 758 00de F1EE10FA 		vmrs	APSR_nzcv, FPSCR
 759 00e2 48BF     		it	mi
 760 00e4 F1EE677A 		vnegmi.f32	s15, s15
 761              		.syntax unified
 762              	@ 36 "Source/Utility/dsp.h" 1
 763 00e8 C7FEA67A 		vmaxnm.f32 s15, s15, s13
 764              	@ 0 "" 2
ARM GAS  C:\Users\pedro\AppData\Local\Temp\ccygTeXw.s 			page 14


 765              	@ 47 "Source/Utility/dsp.h" 1
 766 00ec C7FEC77A 		vminnm.f32 s15, s15, s14
 767              	@ 0 "" 2
 768              		.thumb
 769              		.syntax unified
 770 00f0 C1ED467A 		vstr.32	s15, [r1, #280]
 771 00f4 DCED006A 		vldr.32	s13, [ip]
 772 00f8 93ED007A 		vldr.32	s14, [r3]
 773 00fc 00F53043 		add	r3, r0, #45056
 774 0100 C0EE267A 		vdiv.f32	s15, s0, s13
 775 0104 03F5476C 		add	ip, r3, #3184
 776 0108 03F67841 		addw	r1, r3, #3192
 777 010c 03F67843 		addw	r3, r3, #3192
 778 0110 B5EEC07A 		vcmpe.f32	s14, #0
 779 0114 FDEE006A 		vmov.f32	s13, #-2.5e-1
 780 0118 B5EE007A 		vmov.f32	s14, #2.5e-1
 781 011c F1EE10FA 		vmrs	APSR_nzcv, FPSCR
 782 0120 48BF     		it	mi
 783 0122 F1EE677A 		vnegmi.f32	s15, s15
 784              		.syntax unified
 785              	@ 36 "Source/Utility/dsp.h" 1
 786 0126 C7FEA67A 		vmaxnm.f32 s15, s15, s13
 787              	@ 0 "" 2
 788              	@ 47 "Source/Utility/dsp.h" 1
 789 012a C7FEC77A 		vminnm.f32 s15, s15, s14
 790              	@ 0 "" 2
 791              		.thumb
 792              		.syntax unified
 793 012e C2ED007A 		vstr.32	s15, [r2]
 794 0132 00F56042 		add	r2, r0, #57344
 795 0136 DCED006A 		vldr.32	s13, [ip]
 796 013a 00F58030 		add	r0, r0, #65536
 797 013e 91ED007A 		vldr.32	s14, [r1]
 798 0142 C0EE267A 		vdiv.f32	s15, s0, s13
 799 0146 00F5FA61 		add	r1, r0, #2000
 800 014a B5EEC07A 		vcmpe.f32	s14, #0
 801 014e FDEE006A 		vmov.f32	s13, #-2.5e-1
 802 0152 B5EE007A 		vmov.f32	s14, #2.5e-1
 803 0156 F1EE10FA 		vmrs	APSR_nzcv, FPSCR
 804 015a 48BF     		it	mi
 805 015c F1EE677A 		vnegmi.f32	s15, s15
 806              		.syntax unified
 807              	@ 36 "Source/Utility/dsp.h" 1
 808 0160 C7FEA67A 		vmaxnm.f32 s15, s15, s13
 809              	@ 0 "" 2
 810              	@ 47 "Source/Utility/dsp.h" 1
 811 0164 C7FEC77A 		vminnm.f32 s15, s15, s14
 812              	@ 0 "" 2
 813              		.thumb
 814              		.syntax unified
 815 0168 C3ED007A 		vstr.32	s15, [r3]
 816 016c 00F5FB63 		add	r3, r0, #2008
 817 0170 D2ED886A 		vldr.32	s13, [r2, #544]
 818 0174 00F5FB60 		add	r0, r0, #2008
 819 0178 92ED8A7A 		vldr.32	s14, [r2, #552]
 820 017c C0EE267A 		vdiv.f32	s15, s0, s13
 821 0180 B5EEC07A 		vcmpe.f32	s14, #0
ARM GAS  C:\Users\pedro\AppData\Local\Temp\ccygTeXw.s 			page 15


 822 0184 FDEE006A 		vmov.f32	s13, #-2.5e-1
 823 0188 B5EE007A 		vmov.f32	s14, #2.5e-1
 824 018c F1EE10FA 		vmrs	APSR_nzcv, FPSCR
 825 0190 48BF     		it	mi
 826 0192 F1EE677A 		vnegmi.f32	s15, s15
 827              		.syntax unified
 828              	@ 36 "Source/Utility/dsp.h" 1
 829 0196 C7FEA67A 		vmaxnm.f32 s15, s15, s13
 830              	@ 0 "" 2
 831              	@ 47 "Source/Utility/dsp.h" 1
 832 019a C7FEC77A 		vminnm.f32 s15, s15, s14
 833              	@ 0 "" 2
 834              		.thumb
 835              		.syntax unified
 836 019e C2ED8A7A 		vstr.32	s15, [r2, #552]
 837 01a2 D1ED006A 		vldr.32	s13, [r1]
 838 01a6 93ED007A 		vldr.32	s14, [r3]
 839 01aa C0EE267A 		vdiv.f32	s15, s0, s13
 840 01ae B5EEC07A 		vcmpe.f32	s14, #0
 841 01b2 FDEE006A 		vmov.f32	s13, #-2.5e-1
 842 01b6 B5EE007A 		vmov.f32	s14, #2.5e-1
 843 01ba F1EE10FA 		vmrs	APSR_nzcv, FPSCR
 844 01be 48BF     		it	mi
 845 01c0 F1EE677A 		vnegmi.f32	s15, s15
 846              		.syntax unified
 847              	@ 36 "Source/Utility/dsp.h" 1
 848 01c4 C7FEA67A 		vmaxnm.f32 s15, s15, s13
 849              	@ 0 "" 2
 850              	@ 47 "Source/Utility/dsp.h" 1
 851 01c8 C7FEC77A 		vminnm.f32 s15, s15, s14
 852              	@ 0 "" 2
 853              		.thumb
 854              		.syntax unified
 855 01cc C0ED007A 		vstr.32	s15, [r0]
 856 01d0 7047     		bx	lr
 858 01d2 00BF     		.section	.text._ZN7daisysp6Phaser7SetFreqEf,"ax",%progbits
 859              		.align	1
 860              		.p2align 2,,3
 861              		.global	_ZN7daisysp6Phaser7SetFreqEf
 862              		.syntax unified
 863              		.thumb
 864              		.thumb_func
 865              		.fpu fpv5-d16
 867              	_ZN7daisysp6Phaser7SetFreqEf:
 868              		@ args = 0, pretend = 0, frame = 0
 869              		@ frame_needed = 0, uses_anonymous_args = 0
 870 0000 00B5     		push	{lr}
 871 0002 44F6783C 		movw	ip, #19320
 872 0006 42F2C85E 		movw	lr, #9672
 873 000a 49F2D861 		movw	r1, #38616
 874 000e 4BF68842 		movw	r2, #48264
 875 0012 8444     		add	ip, ip, r0
 876 0014 8644     		add	lr, lr, r0
 877 0016 114B     		ldr	r3, .L100
 878 0018 0144     		add	r1, r1, r0
 879 001a DFED117A 		vldr.32	s15, .L100+4
 880 001e 0244     		add	r2, r2, r0
ARM GAS  C:\Users\pedro\AppData\Local\Temp\ccygTeXw.s 			page 16


 881 0020 0344     		add	r3, r3, r0
 882              		.syntax unified
 883              	@ 36 "Source/Utility/dsp.h" 1
 884 0022 80FE270A 		vmaxnm.f32 s0, s0, s15
 885              	@ 0 "" 2
 886              		.thumb
 887              		.syntax unified
 888 0026 DFED0F7A 		vldr.32	s15, .L100+8
 889              		.syntax unified
 890              	@ 47 "Source/Utility/dsp.h" 1
 891 002a 80FE670A 		vminnm.f32 s0, s0, s15
 892              	@ 0 "" 2
 893              		.thumb
 894              		.syntax unified
 895 002e 80ED060A 		vstr.32	s0, [r0, #24]
 896 0032 8EED000A 		vstr.32	s0, [lr]
 897 0036 8CED000A 		vstr.32	s0, [ip]
 898 003a 00F5E04C 		add	ip, r0, #28672
 899 003e 00F56040 		add	r0, r0, #57344
 900 0042 8CED4A0A 		vstr.32	s0, [ip, #296]
 901 0046 81ED000A 		vstr.32	s0, [r1]
 902 004a 82ED000A 		vstr.32	s0, [r2]
 903 004e 80ED8E0A 		vstr.32	s0, [r0, #568]
 904 0052 83ED000A 		vstr.32	s0, [r3]
 905 0056 5DF804FB 		ldr	pc, [sp], #4
 906              	.L101:
 907 005a 00BF     		.align	2
 908              	.L100:
 909 005c E8070100 		.word	67560
 910 0060 00000000 		.word	0
 911 0064 00409C46 		.word	1184645120
 913              		.section	.text._ZN7daisysp6Phaser11SetFeedbackEf,"ax",%progbits
 914              		.align	1
 915              		.p2align 2,,3
 916              		.global	_ZN7daisysp6Phaser11SetFeedbackEf
 917              		.syntax unified
 918              		.thumb
 919              		.thumb_func
 920              		.fpu fpv5-d16
 922              	_ZN7daisysp6Phaser11SetFeedbackEf:
 923              		@ args = 0, pretend = 0, frame = 0
 924              		@ frame_needed = 0, uses_anonymous_args = 0
 925 0000 00B5     		push	{lr}
 926 0002 44F6743C 		movw	ip, #19316
 927 0006 42F2C45E 		movw	lr, #9668
 928 000a 49F2D461 		movw	r1, #38612
 929 000e 4BF68442 		movw	r2, #48260
 930 0012 8444     		add	ip, ip, r0
 931 0014 8644     		add	lr, lr, r0
 932 0016 114B     		ldr	r3, .L104
 933 0018 0144     		add	r1, r1, r0
 934 001a DFED117A 		vldr.32	s15, .L104+4
 935 001e 0244     		add	r2, r2, r0
 936 0020 0344     		add	r3, r3, r0
 937              		.syntax unified
 938              	@ 36 "Source/Utility/dsp.h" 1
 939 0022 80FE270A 		vmaxnm.f32 s0, s0, s15
ARM GAS  C:\Users\pedro\AppData\Local\Temp\ccygTeXw.s 			page 17


 940              	@ 0 "" 2
 941              		.thumb
 942              		.syntax unified
 943 0026 F6EE087A 		vmov.f32	s15, #7.5e-1
 944              		.syntax unified
 945              	@ 47 "Source/Utility/dsp.h" 1
 946 002a 80FE670A 		vminnm.f32 s0, s0, s15
 947              	@ 0 "" 2
 948              		.thumb
 949              		.syntax unified
 950 002e 80ED050A 		vstr.32	s0, [r0, #20]
 951 0032 8EED000A 		vstr.32	s0, [lr]
 952 0036 8CED000A 		vstr.32	s0, [ip]
 953 003a 00F5E04C 		add	ip, r0, #28672
 954 003e 00F56040 		add	r0, r0, #57344
 955 0042 8CED490A 		vstr.32	s0, [ip, #292]
 956 0046 81ED000A 		vstr.32	s0, [r1]
 957 004a 82ED000A 		vstr.32	s0, [r2]
 958 004e 80ED8D0A 		vstr.32	s0, [r0, #564]
 959 0052 83ED000A 		vstr.32	s0, [r3]
 960 0056 5DF804FB 		ldr	pc, [sp], #4
 961              	.L105:
 962 005a 00BF     		.align	2
 963              	.L104:
 964 005c E4070100 		.word	67556
 965 0060 00000000 		.word	0
 967              		.ident	"GCC: (GNU Arm Embedded Toolchain 10-2020-q4-major) 10.2.1 20201103 (release)"
ARM GAS  C:\Users\pedro\AppData\Local\Temp\ccygTeXw.s 			page 18

