ARM GAS  C:\Users\pedro\AppData\Local\Temp\ccHzh2z4.s 			page 1


   1              		.cpu cortex-m7
   2              		.eabi_attribute 28, 1
   3              		.eabi_attribute 20, 1
   4              		.eabi_attribute 21, 1
   5              		.eabi_attribute 23, 3
   6              		.eabi_attribute 24, 1
   7              		.eabi_attribute 25, 1
   8              		.eabi_attribute 26, 1
   9              		.eabi_attribute 30, 2
  10              		.eabi_attribute 34, 1
  11              		.eabi_attribute 18, 4
  12              		.file	"svf.cpp"
  13              		.text
  14              		.section	.text._ZN7daisysp3Svf4InitEf,"ax",%progbits
  15              		.align	1
  16              		.p2align 2,,3
  17              		.global	_ZN7daisysp3Svf4InitEf
  18              		.arch armv7e-m
  19              		.syntax unified
  20              		.thumb
  21              		.thumb_func
  22              		.fpu fpv5-d16
  24              	_ZN7daisysp3Svf4InitEf:
  25              		@ args = 0, pretend = 0, frame = 0
  26              		@ frame_needed = 0, uses_anonymous_args = 0
  27              		@ link register save eliminated.
  28 0000 B0EE087A 		vmov.f32	s14, #3.0e+0
  29 0004 0023     		movs	r3, #0
  30 0006 4FF07C52 		mov	r2, #1056964608
  31 000a 4FF07A51 		mov	r1, #1048576000
  32 000e DFF834C0 		ldr	ip, .L3
  33 0012 C0EE077A 		vdiv.f32	s15, s0, s14
  34 0016 80ED000A 		vstr.32	s0, [r0]
  35 001a 8260     		str	r2, [r0, #8]	@ float
  36 001c C0F804C0 		str	ip, [r0, #4]	@ float
  37 0020 C260     		str	r2, [r0, #12]	@ float
  38 0022 4264     		str	r2, [r0, #68]	@ float
  39 0024 0161     		str	r1, [r0, #16]	@ float
  40 0026 4361     		str	r3, [r0, #20]	@ float
  41 0028 8361     		str	r3, [r0, #24]	@ float
  42 002a C361     		str	r3, [r0, #28]	@ float
  43 002c 0362     		str	r3, [r0, #32]	@ float
  44 002e 4362     		str	r3, [r0, #36]	@ float
  45 0030 8362     		str	r3, [r0, #40]	@ float
  46 0032 C362     		str	r3, [r0, #44]	@ float
  47 0034 0364     		str	r3, [r0, #64]	@ float
  48 0036 0363     		str	r3, [r0, #48]	@ float
  49 0038 4363     		str	r3, [r0, #52]	@ float
  50 003a C363     		str	r3, [r0, #60]	@ float
  51 003c 8363     		str	r3, [r0, #56]	@ float
  52 003e C0ED127A 		vstr.32	s15, [r0, #72]
  53 0042 7047     		bx	lr
  54              	.L4:
  55              		.align	2
  56              	.L3:
  57 0044 00004843 		.word	1128792064
  59              		.section	.text._ZN7daisysp3Svf7ProcessEf,"ax",%progbits
ARM GAS  C:\Users\pedro\AppData\Local\Temp\ccHzh2z4.s 			page 2


  60              		.align	1
  61              		.p2align 2,,3
  62              		.global	_ZN7daisysp3Svf7ProcessEf
  63              		.syntax unified
  64              		.thumb
  65              		.thumb_func
  66              		.fpu fpv5-d16
  68              	_ZN7daisysp3Svf7ProcessEf:
  69              		@ args = 0, pretend = 0, frame = 0
  70              		@ frame_needed = 0, uses_anonymous_args = 0
  71              		@ link register save eliminated.
  72 0000 B0EE402A 		vmov.f32	s4, s0
  73 0004 90ED097A 		vldr.32	s14, [r0, #36]
  74 0008 90ED044A 		vldr.32	s8, [r0, #16]
  75 000c F6EE007A 		vmov.f32	s15, #5.0e-1
  76 0010 D0ED054A 		vldr.32	s9, [r0, #20]
  77 0014 F0EE476A 		vmov.f32	s13, s14
  78 0018 D0ED075A 		vldr.32	s11, [r0, #28]
  79 001c A4EEC72A 		vfms.f32	s4, s9, s14
  80 0020 90ED036A 		vldr.32	s12, [r0, #12]
  81 0024 E7EE045A 		vfma.f32	s11, s14, s8
  82 0028 80ED0B0A 		vstr.32	s0, [r0, #44]
  83 002c 27EE065A 		vmul.f32	s10, s14, s12
  84 0030 25EE075A 		vmul.f32	s10, s10, s14
  85 0034 72EE652A 		vsub.f32	s5, s4, s11
  86 0038 E4EE226A 		vfma.f32	s13, s8, s5
  87 003c 75EEE21A 		vsub.f32	s3, s11, s5
  88 0040 E7EE456A 		vfms.f32	s13, s14, s10
  89 0044 B0EE657A 		vmov.f32	s14, s11
  90 0048 A4EEE60A 		vfms.f32	s0, s9, s13
  91 004c A4EE267A 		vfma.f32	s14, s8, s13
  92 0050 B0EE665A 		vmov.f32	s10, s13
  93 0054 26EE266A 		vmul.f32	s12, s12, s13
  94 0058 26EE266A 		vmul.f32	s12, s12, s13
  95 005c 80ED060A 		vstr.32	s0, [r0, #24]
  96 0060 70EE474A 		vsub.f32	s9, s0, s14
  97 0064 80ED077A 		vstr.32	s14, [r0, #28]
  98 0068 27EE273A 		vmul.f32	s6, s14, s15
  99 006c 60EE273A 		vmul.f32	s7, s0, s15
 100 0070 A4EE245A 		vfma.f32	s10, s8, s9
 101 0074 C0ED084A 		vstr.32	s9, [r0, #32]
 102 0078 A5EEA73A 		vfma.f32	s6, s11, s15
 103 007c 37EE647A 		vsub.f32	s14, s14, s9
 104 0080 24EEA74A 		vmul.f32	s8, s9, s15
 105 0084 E2EE273A 		vfma.f32	s7, s4, s15
 106 0088 27EE277A 		vmul.f32	s14, s14, s15
 107 008c F0EE455A 		vmov.f32	s11, s10
 108 0090 F0EE444A 		vmov.f32	s9, s8
 109 0094 80ED0C3A 		vstr.32	s6, [r0, #48]
 110 0098 A1EEA77A 		vfma.f32	s14, s3, s15
 111 009c E6EEC65A 		vfms.f32	s11, s13, s12
 112 00a0 E2EEA74A 		vfma.f32	s9, s5, s15
 113 00a4 C0ED103A 		vstr.32	s7, [r0, #64]
 114 00a8 80ED0F7A 		vstr.32	s14, [r0, #60]
 115 00ac 25EEA76A 		vmul.f32	s12, s11, s15
 116 00b0 C0ED095A 		vstr.32	s11, [r0, #36]
 117 00b4 C0ED0D4A 		vstr.32	s9, [r0, #52]
ARM GAS  C:\Users\pedro\AppData\Local\Temp\ccHzh2z4.s 			page 3


 118 00b8 B0EE467A 		vmov.f32	s14, s12
 119 00bc A6EEA77A 		vfma.f32	s14, s13, s15
 120 00c0 80ED0E7A 		vstr.32	s14, [r0, #56]
 121 00c4 7047     		bx	lr
 123 00c6 00BF     		.section	.text._ZN7daisysp3Svf7SetFreqEf,"ax",%progbits
 124              		.align	1
 125              		.p2align 2,,3
 126              		.global	_ZN7daisysp3Svf7SetFreqEf
 127              		.syntax unified
 128              		.thumb
 129              		.thumb_func
 130              		.fpu fpv5-d16
 132              	_ZN7daisysp3Svf7SetFreqEf:
 133              		@ args = 0, pretend = 0, frame = 0
 134              		@ frame_needed = 0, uses_anonymous_args = 0
 135 0000 90ED007A 		vldr.32	s14, [r0]
 136 0004 B5EE006A 		vmov.f32	s12, #2.5e-1
 137 0008 DFED2C7A 		vldr.32	s15, .L16
 138 000c 37EE077A 		vadd.f32	s14, s14, s14
 139              		.syntax unified
 140              	@ 36 "Source/Utility/dsp.h" 1
 141 0010 80FE270A 		vmaxnm.f32 s0, s0, s15
 142              	@ 0 "" 2
 143              		.thumb
 144              		.syntax unified
 145 0014 D0ED127A 		vldr.32	s15, [r0, #72]
 146              		.syntax unified
 147              	@ 47 "Source/Utility/dsp.h" 1
 148 0018 C0FE677A 		vminnm.f32 s15, s0, s15
 149              	@ 0 "" 2
 150              		.thumb
 151              		.syntax unified
 152 001c C7EE876A 		vdiv.f32	s13, s15, s14
 153 0020 C0ED017A 		vstr.32	s15, [r0, #4]
 154 0024 10B5     		push	{r4, lr}
 155 0026 0446     		mov	r4, r0
 156 0028 2DED028B 		vpush.64	{d8}
 157 002c F4EEC66A 		vcmpe.f32	s13, s12
 158 0030 F1EE10FA 		vmrs	APSR_nzcv, FPSCR
 159 0034 2FDC     		bgt	.L11
 160 0036 9FED220A 		vldr.32	s0, .L16+4
 161 003a 26EE800A 		vmul.f32	s0, s13, s0
 162 003e FFF7FEFF 		bl	sinf
 163 0042 70EE007A 		vadd.f32	s15, s0, s0
 164              	.L7:
 165 0046 C4ED047A 		vstr.32	s15, [r4, #16]
 166 004a F5EE000A 		vmov.f32	s1, #2.5e-1
 167 004e 94ED020A 		vldr.32	s0, [r4, #8]
 168 0052 B7EE008A 		vmov.f32	s16, #1.0e+0
 169 0056 FFF7FEFF 		bl	powf
 170 005a B0EE007A 		vmov.f32	s14, #2.0e+0
 171 005e D4ED046A 		vldr.32	s13, [r4, #16]
 172 0062 B6EE006A 		vmov.f32	s12, #5.0e-1
 173 0066 78EE407A 		vsub.f32	s15, s16, s0
 174 006a 87EE260A 		vdiv.f32	s0, s14, s13
 175 006e 77EEA77A 		vadd.f32	s15, s15, s15
 176 0072 A6EEC60A 		vfms.f32	s0, s13, s12
ARM GAS  C:\Users\pedro\AppData\Local\Temp\ccHzh2z4.s 			page 4


 177 0076 B4EE470A 		vcmp.f32	s0, s14
 178 007a F1EE10FA 		vmrs	APSR_nzcv, FPSCR
 179 007e 37FE000A 		vselgt.f32	s0, s14, s0
 180 0082 F4EEC07A 		vcmpe.f32	s15, s0
 181 0086 F1EE10FA 		vmrs	APSR_nzcv, FPSCR
 182 008a 07D4     		bmi	.L15
 183 008c 84ED050A 		vstr.32	s0, [r4, #20]
 184 0090 BDEC028B 		vldm	sp!, {d8}
 185 0094 10BD     		pop	{r4, pc}
 186              	.L11:
 187 0096 DFED0B7A 		vldr.32	s15, .L16+8
 188 009a D4E7     		b	.L7
 189              	.L15:
 190 009c F5EE000A 		vmov.f32	s1, #2.5e-1
 191 00a0 94ED020A 		vldr.32	s0, [r4, #8]
 192 00a4 FFF7FEFF 		bl	powf
 193 00a8 38EE400A 		vsub.f32	s0, s16, s0
 194 00ac BDEC028B 		vldm	sp!, {d8}
 195 00b0 30EE000A 		vadd.f32	s0, s0, s0
 196 00b4 84ED050A 		vstr.32	s0, [r4, #20]
 197 00b8 10BD     		pop	{r4, pc}
 198              	.L17:
 199 00ba 00BF     		.align	2
 200              	.L16:
 201 00bc BD378635 		.word	897988541
 202 00c0 DB0F4940 		.word	1078530011
 203 00c4 F304B53F 		.word	1068827891
 205              		.section	.text._ZN7daisysp3Svf6SetResEf,"ax",%progbits
 206              		.align	1
 207              		.p2align 2,,3
 208              		.global	_ZN7daisysp3Svf6SetResEf
 209              		.syntax unified
 210              		.thumb
 211              		.thumb_func
 212              		.fpu fpv5-d16
 214              	_ZN7daisysp3Svf6SetResEf:
 215              		@ args = 0, pretend = 0, frame = 0
 216              		@ frame_needed = 0, uses_anonymous_args = 0
 217 0000 DFED217A 		vldr.32	s15, .L26
 218 0004 F5EE000A 		vmov.f32	s1, #2.5e-1
 219              		.syntax unified
 220              	@ 36 "Source/Utility/dsp.h" 1
 221 0008 80FE270A 		vmaxnm.f32 s0, s0, s15
 222              	@ 0 "" 2
 223              		.thumb
 224              		.syntax unified
 225 000c 10B5     		push	{r4, lr}
 226 000e 0446     		mov	r4, r0
 227 0010 2DED028B 		vpush.64	{d8}
 228 0014 B7EE008A 		vmov.f32	s16, #1.0e+0
 229              		.syntax unified
 230              	@ 47 "Source/Utility/dsp.h" 1
 231 0018 80FE480A 		vminnm.f32 s0, s0, s16
 232              	@ 0 "" 2
 233              		.thumb
 234              		.syntax unified
 235 001c 80ED020A 		vstr.32	s0, [r0, #8]
ARM GAS  C:\Users\pedro\AppData\Local\Temp\ccHzh2z4.s 			page 5


 236 0020 FFF7FEFF 		bl	powf
 237 0024 B0EE007A 		vmov.f32	s14, #2.0e+0
 238 0028 D4ED046A 		vldr.32	s13, [r4, #16]
 239 002c 78EE407A 		vsub.f32	s15, s16, s0
 240 0030 B6EE006A 		vmov.f32	s12, #5.0e-1
 241 0034 87EE260A 		vdiv.f32	s0, s14, s13
 242 0038 77EEA77A 		vadd.f32	s15, s15, s15
 243 003c A6EEC60A 		vfms.f32	s0, s13, s12
 244 0040 B4EE470A 		vcmp.f32	s0, s14
 245 0044 F1EE10FA 		vmrs	APSR_nzcv, FPSCR
 246 0048 37FE000A 		vselgt.f32	s0, s14, s0
 247 004c F4EEC07A 		vcmpe.f32	s15, s0
 248 0050 F1EE10FA 		vmrs	APSR_nzcv, FPSCR
 249 0054 0CD4     		bmi	.L25
 250              	.L20:
 251 0056 D4ED117A 		vldr.32	s15, [r4, #68]
 252 005a 94ED027A 		vldr.32	s14, [r4, #8]
 253 005e 84ED050A 		vstr.32	s0, [r4, #20]
 254 0062 67EE877A 		vmul.f32	s15, s15, s14
 255 0066 BDEC028B 		vldm	sp!, {d8}
 256 006a C4ED037A 		vstr.32	s15, [r4, #12]
 257 006e 10BD     		pop	{r4, pc}
 258              	.L25:
 259 0070 F5EE000A 		vmov.f32	s1, #2.5e-1
 260 0074 94ED020A 		vldr.32	s0, [r4, #8]
 261 0078 FFF7FEFF 		bl	powf
 262 007c 38EE400A 		vsub.f32	s0, s16, s0
 263 0080 30EE000A 		vadd.f32	s0, s0, s0
 264 0084 E7E7     		b	.L20
 265              	.L27:
 266 0086 00BF     		.align	2
 267              	.L26:
 268 0088 00000000 		.word	0
 270              		.section	.text._ZN7daisysp3Svf8SetDriveEf,"ax",%progbits
 271              		.align	1
 272              		.p2align 2,,3
 273              		.global	_ZN7daisysp3Svf8SetDriveEf
 274              		.syntax unified
 275              		.thumb
 276              		.thumb_func
 277              		.fpu fpv5-d16
 279              	_ZN7daisysp3Svf8SetDriveEf:
 280              		@ args = 0, pretend = 0, frame = 0
 281              		@ frame_needed = 0, uses_anonymous_args = 0
 282              		@ link register save eliminated.
 283 0000 DFED0A7A 		vldr.32	s15, .L29
 284 0004 B7EE007A 		vmov.f32	s14, #1.0e+0
 285 0008 DFED096A 		vldr.32	s13, .L29+4
 286 000c 20EE270A 		vmul.f32	s0, s0, s15
 287 0010 D0ED027A 		vldr.32	s15, [r0, #8]
 288              		.syntax unified
 289              	@ 36 "Source/Utility/dsp.h" 1
 290 0014 80FE260A 		vmaxnm.f32 s0, s0, s13
 291              	@ 0 "" 2
 292              	@ 47 "Source/Utility/dsp.h" 1
 293 0018 80FE470A 		vminnm.f32 s0, s0, s14
 294              	@ 0 "" 2
ARM GAS  C:\Users\pedro\AppData\Local\Temp\ccHzh2z4.s 			page 6


 295              		.thumb
 296              		.syntax unified
 297 001c 67EE807A 		vmul.f32	s15, s15, s0
 298 0020 80ED110A 		vstr.32	s0, [r0, #68]
 299 0024 C0ED037A 		vstr.32	s15, [r0, #12]
 300 0028 7047     		bx	lr
 301              	.L30:
 302 002a 00BF     		.align	2
 303              	.L29:
 304 002c CDCCCC3D 		.word	1036831949
 305 0030 00000000 		.word	0
 307              		.ident	"GCC: (GNU Arm Embedded Toolchain 10-2020-q4-major) 10.2.1 20201103 (release)"
ARM GAS  C:\Users\pedro\AppData\Local\Temp\ccHzh2z4.s 			page 7

