ARM GAS  C:\Users\pedro\AppData\Local\Temp\cchiLFDh.s 			page 1


   1              		.cpu cortex-m7
   2              		.eabi_attribute 28, 1
   3              		.eabi_attribute 20, 1
   4              		.eabi_attribute 21, 1
   5              		.eabi_attribute 23, 3
   6              		.eabi_attribute 24, 1
   7              		.eabi_attribute 25, 1
   8              		.eabi_attribute 26, 1
   9              		.eabi_attribute 30, 2
  10              		.eabi_attribute 34, 1
  11              		.eabi_attribute 18, 4
  12              		.file	"synthbassdrum.cpp"
  13              		.text
  14              		.section	.text._ZN7daisysp22SyntheticBassDrumClick4InitEf,"ax",%progbits
  15              		.align	1
  16              		.p2align 2,,3
  17              		.global	_ZN7daisysp22SyntheticBassDrumClick4InitEf
  18              		.arch armv7e-m
  19              		.syntax unified
  20              		.thumb
  21              		.thumb_func
  22              		.fpu fpv5-d16
  24              	_ZN7daisysp22SyntheticBassDrumClick4InitEf:
  25              		@ args = 0, pretend = 0, frame = 8
  26              		@ frame_needed = 0, uses_anonymous_args = 0
  27 0000 0346     		mov	r3, r0
  28 0002 0022     		movs	r2, #0
  29 0004 0830     		adds	r0, r0, #8
  30 0006 00B5     		push	{lr}
  31 0008 83B0     		sub	sp, sp, #12
  32 000a 1A60     		str	r2, [r3]	@ float
  33 000c 5A60     		str	r2, [r3, #4]	@ float
  34 000e 0190     		str	r0, [sp, #4]
  35 0010 FFF7FEFF 		bl	_ZN7daisysp3Svf4InitEf
  36 0014 0198     		ldr	r0, [sp, #4]
  37 0016 9FED060A 		vldr.32	s0, .L4
  38 001a FFF7FEFF 		bl	_ZN7daisysp3Svf7SetFreqEf
  39 001e B7EE000A 		vmov.f32	s0, #1.0e+0
  40 0022 0198     		ldr	r0, [sp, #4]
  41 0024 03B0     		add	sp, sp, #12
  42              		@ sp needed
  43 0026 5DF804EB 		ldr	lr, [sp], #4
  44 002a FFF7FEBF 		b	_ZN7daisysp3Svf6SetResEf
  45              	.L5:
  46 002e 00BF     		.align	2
  47              	.L4:
  48 0030 00409C45 		.word	1167867904
  50              		.section	.text._ZN7daisysp22SyntheticBassDrumClick7ProcessEf,"ax",%progbits
  51              		.align	1
  52              		.p2align 2,,3
  53              		.global	_ZN7daisysp22SyntheticBassDrumClick7ProcessEf
  54              		.syntax unified
  55              		.thumb
  56              		.thumb_func
  57              		.fpu fpv5-d16
  59              	_ZN7daisysp22SyntheticBassDrumClick7ProcessEf:
  60              		@ args = 0, pretend = 0, frame = 0
ARM GAS  C:\Users\pedro\AppData\Local\Temp\cchiLFDh.s 			page 2


  61              		@ frame_needed = 0, uses_anonymous_args = 0
  62 0000 D0ED007A 		vldr.32	s15, [r0]
  63 0004 F6EE006A 		vmov.f32	s13, #5.0e-1
  64 0008 DFED115A 		vldr.32	s11, .L10
  65 000c 30EE670A 		vsub.f32	s0, s0, s15
  66 0010 90ED017A 		vldr.32	s14, [r0, #4]
  67 0014 9FED0F6A 		vldr.32	s12, .L10+4
  68 0018 B5EEC00A 		vcmpe.f32	s0, #0
  69 001c 10B5     		push	{r4, lr}
  70 001e F1EE10FA 		vmrs	APSR_nzcv, FPSCR
  71 0022 0446     		mov	r4, r0
  72 0024 00F10800 		add	r0, r0, #8
  73 0028 76FEA56A 		vselgt.f32	s13, s13, s11
  74 002c E6EE807A 		vfma.f32	s15, s13, s0
  75 0030 77EEC76A 		vsub.f32	s13, s15, s14
  76 0034 C4ED007A 		vstr.32	s15, [r4]
  77 0038 A6EE867A 		vfma.f32	s14, s13, s12
  78 003c 37EEC70A 		vsub.f32	s0, s15, s14
  79 0040 84ED017A 		vstr.32	s14, [r4, #4]
  80 0044 FFF7FEFF 		bl	_ZN7daisysp3Svf7ProcessEf
  81 0048 94ED0E0A 		vldr.32	s0, [r4, #56]
  82 004c 10BD     		pop	{r4, pc}
  83              	.L11:
  84 004e 00BF     		.align	2
  85              	.L10:
  86 0050 CDCCCC3D 		.word	1036831949
  87 0054 0AD7233D 		.word	1025758986
  89              		.section	.text._ZN7daisysp28SyntheticBassDrumAttackNoise4InitEv,"ax",%progbits
  90              		.align	1
  91              		.p2align 2,,3
  92              		.global	_ZN7daisysp28SyntheticBassDrumAttackNoise4InitEv
  93              		.syntax unified
  94              		.thumb
  95              		.thumb_func
  96              		.fpu fpv5-d16
  98              	_ZN7daisysp28SyntheticBassDrumAttackNoise4InitEv:
  99              		@ args = 0, pretend = 0, frame = 0
 100              		@ frame_needed = 0, uses_anonymous_args = 0
 101              		@ link register save eliminated.
 102 0000 0023     		movs	r3, #0
 103 0002 0360     		str	r3, [r0]	@ float
 104 0004 4360     		str	r3, [r0, #4]	@ float
 105 0006 7047     		bx	lr
 107              		.section	.text._ZN7daisysp28SyntheticBassDrumAttackNoise7ProcessEv,"ax",%progbits
 108              		.align	1
 109              		.p2align 2,,3
 110              		.global	_ZN7daisysp28SyntheticBassDrumAttackNoise7ProcessEv
 111              		.syntax unified
 112              		.thumb
 113              		.thumb_func
 114              		.fpu fpv5-d16
 116              	_ZN7daisysp28SyntheticBassDrumAttackNoise7ProcessEv:
 117              		@ args = 0, pretend = 0, frame = 0
 118              		@ frame_needed = 0, uses_anonymous_args = 0
 119 0000 10B5     		push	{r4, lr}
 120 0002 0446     		mov	r4, r0
 121 0004 FFF7FEFF 		bl	rand
ARM GAS  C:\Users\pedro\AppData\Local\Temp\cchiLFDh.s 			page 3


 122 0008 07EE100A 		vmov	s14, r0	@ int
 123 000c 9FED0E5A 		vldr.32	s10, .L15
 124 0010 D4ED007A 		vldr.32	s15, [r4]
 125 0014 B8EEC77A 		vcvt.f32.s32	s14, s14
 126 0018 9FED0C6A 		vldr.32	s12, .L15+4
 127 001c F0EE675A 		vmov.f32	s11, s15
 128 0020 94ED010A 		vldr.32	s0, [r4, #4]
 129 0024 DFED0A6A 		vldr.32	s13, .L15+8
 130 0028 D7EE055A 		vfnms.f32	s11, s14, s10
 131 002c E5EE867A 		vfma.f32	s15, s11, s12
 132 0030 37EEC07A 		vsub.f32	s14, s15, s0
 133 0034 C4ED007A 		vstr.32	s15, [r4]
 134 0038 A7EE260A 		vfma.f32	s0, s14, s13
 135 003c 84ED010A 		vstr.32	s0, [r4, #4]
 136 0040 37EEC00A 		vsub.f32	s0, s15, s0
 137 0044 10BD     		pop	{r4, pc}
 138              	.L16:
 139 0046 00BF     		.align	2
 140              	.L15:
 141 0048 00000030 		.word	805306368
 142 004c CDCC4C3D 		.word	1028443341
 143 0050 0AD7A33B 		.word	1000593162
 145              		.section	.text._ZN7daisysp17SyntheticBassDrum4InitEf,"ax",%progbits
 146              		.align	1
 147              		.p2align 2,,3
 148              		.global	_ZN7daisysp17SyntheticBassDrum4InitEf
 149              		.syntax unified
 150              		.thumb
 151              		.thumb_func
 152              		.fpu fpv5-d16
 154              	_ZN7daisysp17SyntheticBassDrum4InitEf:
 155              		@ args = 0, pretend = 0, frame = 8
 156              		@ frame_needed = 0, uses_anonymous_args = 0
 157 0000 10B5     		push	{r4, lr}
 158 0002 DFED367A 		vldr.32	s15, .L19
 159 0006 0446     		mov	r4, r0
 160 0008 9FED357A 		vldr.32	s14, .L19+4
 161 000c 0023     		movs	r3, #0
 162 000e 9FED355A 		vldr.32	s10, .L19+8
 163 0012 5830     		adds	r0, r0, #88
 164 0014 2DED028B 		vpush.64	{d8}
 165 0018 9FED338A 		vldr.32	s16, .L19+12
 166 001c F7EE008A 		vmov.f32	s17, #1.0e+0
 167              		.syntax unified
 168              	@ 36 "Source/Utility/dsp.h" 1
 169 0020 C7FE887A 		vmaxnm.f32 s15, s15, s16
 170              	@ 0 "" 2
 171              	@ 36 "Source/Utility/dsp.h" 1
 172 0024 87FE087A 		vmaxnm.f32 s14, s14, s16
 173              	@ 0 "" 2
 174              	@ 47 "Source/Utility/dsp.h" 1
 175 0028 C7FEE87A 		vminnm.f32 s15, s15, s17
 176              	@ 0 "" 2
 177              	@ 47 "Source/Utility/dsp.h" 1
 178 002c 87FE687A 		vminnm.f32 s14, s14, s17
 179              	@ 0 "" 2
 180              		.thumb
ARM GAS  C:\Users\pedro\AppData\Local\Temp\cchiLFDh.s 			page 4


 181              		.syntax unified
 182 0030 67EEA77A 		vmul.f32	s15, s15, s15
 183 0034 82B0     		sub	sp, sp, #8
 184 0036 67EE075A 		vmul.f32	s11, s14, s14
 185 003a A380     		strh	r3, [r4, #4]	@ movhi
 186 003c C5EE006A 		vdiv.f32	s13, s10, s0
 187 0040 84ED000A 		vstr.32	s0, [r4]
 188 0044 C4ED057A 		vstr.32	s15, [r4, #20]
 189 0048 C4ED085A 		vstr.32	s11, [r4, #32]
 190 004c 84ED067A 		vstr.32	s14, [r4, #24]
 191 0050 84ED0A8A 		vstr.32	s16, [r4, #40]
 192 0054 84ED0B8A 		vstr.32	s16, [r4, #44]
 193              		.syntax unified
 194              	@ 36 "Source/Utility/dsp.h" 1
 195 0058 C6FE886A 		vmaxnm.f32 s13, s13, s16
 196              	@ 0 "" 2
 197              		.thumb
 198              		.syntax unified
 199 005c C4E92B33 		strd	r3, r3, [r4, #172]
 200              		.syntax unified
 201              	@ 47 "Source/Utility/dsp.h" 1
 202 0060 C6FEE86A 		vminnm.f32 s13, s13, s17
 203              	@ 0 "" 2
 204              		.thumb
 205              		.syntax unified
 206 0064 84ED098A 		vstr.32	s16, [r4, #36]
 207 0068 C4ED036A 		vstr.32	s13, [r4, #12]
 208 006c 84ED0C8A 		vstr.32	s16, [r4, #48]
 209 0070 84ED0D8A 		vstr.32	s16, [r4, #52]
 210 0074 84ED0F8A 		vstr.32	s16, [r4, #60]
 211 0078 84ED0E8A 		vstr.32	s16, [r4, #56]
 212 007c 84ED138A 		vstr.32	s16, [r4, #76]
 213 0080 84ED128A 		vstr.32	s16, [r4, #72]
 214 0084 84ED148A 		vstr.32	s16, [r4, #80]
 215 0088 84ED158A 		vstr.32	s16, [r4, #84]
 216 008c 9FED177A 		vldr.32	s14, .L19+16
 217 0090 DFED177A 		vldr.32	s15, .L19+20
 218              		.syntax unified
 219              	@ 36 "Source/Utility/dsp.h" 1
 220 0094 87FE087A 		vmaxnm.f32 s14, s14, s16
 221              	@ 0 "" 2
 222              	@ 36 "Source/Utility/dsp.h" 1
 223 0098 C7FE887A 		vmaxnm.f32 s15, s15, s16
 224              	@ 0 "" 2
 225              	@ 47 "Source/Utility/dsp.h" 1
 226 009c 87FE687A 		vminnm.f32 s14, s14, s17
 227              	@ 0 "" 2
 228              	@ 47 "Source/Utility/dsp.h" 1
 229 00a0 C7FEE87A 		vminnm.f32 s15, s15, s17
 230              	@ 0 "" 2
 231              		.thumb
 232              		.syntax unified
 233 00a4 84ED027A 		vstr.32	s14, [r4, #8]
 234 00a8 C4ED047A 		vstr.32	s15, [r4, #16]
 235 00ac C4ED077A 		vstr.32	s15, [r4, #28]
 236 00b0 0190     		str	r0, [sp, #4]
 237 00b2 FFF7FEFF 		bl	_ZN7daisysp3Svf4InitEf
ARM GAS  C:\Users\pedro\AppData\Local\Temp\cchiLFDh.s 			page 5


 238 00b6 0198     		ldr	r0, [sp, #4]
 239 00b8 9FED0E0A 		vldr.32	s0, .L19+24
 240 00bc FFF7FEFF 		bl	_ZN7daisysp3Svf7SetFreqEf
 241 00c0 B0EE680A 		vmov.f32	s0, s17
 242 00c4 0198     		ldr	r0, [sp, #4]
 243 00c6 FFF7FEFF 		bl	_ZN7daisysp3Svf6SetResEf
 244 00ca 84ED298A 		vstr.32	s16, [r4, #164]
 245 00ce 84ED2A8A 		vstr.32	s16, [r4, #168]
 246 00d2 02B0     		add	sp, sp, #8
 247              		@ sp needed
 248 00d4 BDEC028B 		vldm	sp!, {d8}
 249 00d8 10BD     		pop	{r4, pc}
 250              	.L20:
 251 00da 00BF     		.align	2
 252              	.L19:
 253 00dc 3333333F 		.word	1060320051
 254 00e0 9A99993E 		.word	1050253722
 255 00e4 0000C842 		.word	1120403456
 256 00e8 00000000 		.word	0
 257 00ec CDCC4C3E 		.word	1045220557
 258 00f0 9A99193F 		.word	1058642330
 259 00f4 00409C45 		.word	1167867904
 261              		.section	.text._ZN7daisysp17SyntheticBassDrum7ProcessEb,"ax",%progbits
 262              		.align	1
 263              		.p2align 2,,3
 264              		.global	_ZN7daisysp17SyntheticBassDrum7ProcessEb
 265              		.syntax unified
 266              		.thumb
 267              		.thumb_func
 268              		.fpu fpv5-d16
 270              	_ZN7daisysp17SyntheticBassDrum7ProcessEb:
 271              		@ args = 0, pretend = 0, frame = 0
 272              		@ frame_needed = 0, uses_anonymous_args = 0
 273 0000 38B5     		push	{r3, r4, r5, lr}
 274 0002 D0ED050A 		vldr.32	s1, [r0, #20]
 275 0006 F2EE006A 		vmov.f32	s13, #8.0e+0
 276 000a DFED777A 		vldr.32	s15, .L47
 277 000e 0446     		mov	r4, r0
 278 0010 90ED036A 		vldr.32	s12, [r0, #12]
 279 0014 B0EE000A 		vmov.f32	s0, #2.0e+0
 280 0018 60EEE70A 		vnmul.f32	s1, s1, s15
 281 001c 9FED7B7A 		vldr.32	s14, .L47+36
 282 0020 0D46     		mov	r5, r1
 283 0022 2DED0A8B 		vpush.64	{d8, d9, d10, d11, d12}
 284 0026 B7EE00CA 		vmov.f32	s24, #1.0e+0
 285 002a 9FED70AA 		vldr.32	s20, .L47+4
 286 002e D0ED069A 		vldr.32	s19, [r0, #24]
 287 0032 B1EE008A 		vmov.f32	s16, #4.0e+0
 288 0036 60EE8A0A 		vmul.f32	s1, s1, s20
 289 003a D0ED08BA 		vldr.32	s23, [r0, #32]
 290 003e F0EE4C7A 		vmov.f32	s15, s24
 291 0042 D0ED00AA 		vldr.32	s21, [r0]
 292 0046 E6EE667A 		vfms.f32	s15, s12, s13
 293              		.syntax unified
 294              	@ 36 "Source/Utility/dsp.h" 1
 295 004a C7FE877A 		vmaxnm.f32 s15, s15, s14
 296              	@ 0 "" 2
ARM GAS  C:\Users\pedro\AppData\Local\Temp\cchiLFDh.s 			page 6


 297              		.thumb
 298              		.syntax unified
 299 004e 69EEA79A 		vmul.f32	s19, s19, s15
 300 0052 FFF7FEFF 		bl	powf
 301 0056 D4ED040A 		vldr.32	s1, [r4, #16]
 302 005a B0EE409A 		vmov.f32	s18, s0
 303 005e DFED647A 		vldr.32	s15, .L47+8
 304 0062 B0EE000A 		vmov.f32	s0, #2.0e+0
 305 0066 D4ED038A 		vldr.32	s17, [r4, #12]
 306 006a 60EEA70A 		vmul.f32	s1, s1, s15
 307 006e 94ED00BA 		vldr.32	s22, [r4]
 308 0072 28EE888A 		vmul.f32	s16, s17, s16
 309 0076 60EE8A0A 		vmul.f32	s1, s1, s20
 310 007a FFF7FEFF 		bl	powf
 311 007e 94ED04AA 		vldr.32	s20, [r4, #16]
 312 0082 28EE008A 		vmul.f32	s16, s16, s0
 313              		.syntax unified
 314              	@ 47 "Source/Utility/dsp.h" 1
 315 0086 88FE4C8A 		vminnm.f32 s16, s16, s24
 316              	@ 0 "" 2
 317              		.thumb
 318              		.syntax unified
 319 008a 1DB9     		cbnz	r5, .L22
 320 008c 2379     		ldrb	r3, [r4, #4]	@ zero_extendqisi2
 321 008e 002B     		cmp	r3, #0
 322 0090 00F01482 		beq	.L44
 323              	.L22:
 324 0094 D4ED007A 		vldr.32	s15, [r4]
 325 0098 4FF07E52 		mov	r2, #1065353216
 326 009c 94ED026A 		vldr.32	s12, [r4, #8]
 327 00a0 0023     		movs	r3, #0
 328 00a2 9FED545A 		vldr.32	s10, .L47+12
 329 00a6 DFED5E6A 		vldr.32	s13, .L47+56
 330 00aa 9FED537A 		vldr.32	s14, .L47+16
 331 00ae DFED535A 		vldr.32	s11, .L47+20
 332 00b2 E6EE056A 		vfma.f32	s13, s12, s10
 333 00b6 27EE877A 		vmul.f32	s14, s15, s14
 334 00ba 2263     		str	r2, [r4, #48]	@ float
 335 00bc 67EEA57A 		vmul.f32	s15, s15, s11
 336 00c0 2371     		strb	r3, [r4, #4]
 337 00c2 BDEEC77A 		vcvt.s32.f32	s14, s14
 338 00c6 FDEEE77A 		vcvt.s32.f32	s15, s15
 339 00ca C4ED106A 		vstr.32	s13, [r4, #64]
 340 00ce C4ED0E6A 		vstr.32	s13, [r4, #56]
 341 00d2 84ED2B7A 		vstr.32	s14, [r4, #172]	@ int
 342 00d6 C4ED2C7A 		vstr.32	s15, [r4, #176]	@ int
 343              	.L23:
 344 00da D4ED057A 		vldr.32	s15, [r4, #20]
 345 00de 67EE867A 		vmul.f32	s15, s15, s12
 346 00e2 C4ED127A 		vstr.32	s15, [r4, #72]
 347 00e6 FFF7FEFF 		bl	rand
 348 00ea 07EE100A 		vmov	s14, r0	@ int
 349 00ee FEEE007A 		vmov.f32	s15, #-5.0e-1
 350 00f2 DFED4A5A 		vldr.32	s11, .L47+52
 351 00f6 B8EEC77A 		vcvt.f32.s32	s14, s14
 352 00fa D4ED0B6A 		vldr.32	s13, [r4, #44]
 353 00fe 9FED406A 		vldr.32	s12, .L47+24
ARM GAS  C:\Users\pedro\AppData\Local\Temp\cchiLFDh.s 			page 7


 354 0102 6379     		ldrb	r3, [r4, #5]	@ zero_extendqisi2
 355 0104 E7EE257A 		vfma.f32	s15, s14, s11
 356 0108 77EEE67A 		vsub.f32	s15, s15, s13
 357 010c E7EE866A 		vfma.f32	s13, s15, s12
 358 0110 B0EE665A 		vmov.f32	s10, s13
 359 0114 C4ED0B6A 		vstr.32	s13, [r4, #44]
 360 0118 002B     		cmp	r3, #0
 361 011a 00F08980 		beq	.L24
 362 011e D4ED037A 		vldr.32	s15, [r4, #12]
 363 0122 B7EE007A 		vmov.f32	s14, #1.0e+0
 364 0126 94ED0A0A 		vldr.32	s0, [r4, #40]
 365 012a C4ED097A 		vstr.32	s15, [r4, #36]
 366 012e 37EE800A 		vadd.f32	s0, s15, s0
 367 0132 B4EEC70A 		vcmpe.f32	s0, s14
 368 0136 F1EE10FA 		vmrs	APSR_nzcv, FPSCR
 369 013a A8BF     		it	ge
 370 013c 30EE470A 		vsubge.f32	s0, s0, s14
 371 0140 B6EE007A 		vmov.f32	s14, #5.0e-1
 372 0144 84ED0A0A 		vstr.32	s0, [r4, #40]
 373 0148 A9EEA60A 		vfma.f32	s0, s19, s13
 374 014c FDEEC07A 		vcvt.s32.f32	s15, s0
 375 0150 F8EEE77A 		vcvt.f32.s32	s15, s15
 376 0154 70EE677A 		vsub.f32	s15, s0, s15
 377 0158 F4EEC77A 		vcmpe.f32	s15, s14
 378 015c F1EE10FA 		vmrs	APSR_nzcv, FPSCR
 379 0160 00F1A981 		bmi	.L37
 380 0164 F7EE006A 		vmov.f32	s13, #1.0e+0
 381 0168 76EEE76A 		vsub.f32	s13, s13, s15
 382              	.L27:
 383 016c F1EE005A 		vmov.f32	s11, #4.0e+0
 384 0170 9FED250A 		vldr.32	s0, .L47+32
 385 0174 BFEE007A 		vmov.f32	s14, #-1.0e+0
 386 0178 B6EE086A 		vmov.f32	s12, #7.5e-1
 387 017c B7EE009A 		vmov.f32	s18, #1.0e+0
 388 0180 A6EEA57A 		vfma.f32	s14, s13, s11
 389 0184 77EE867A 		vadd.f32	s15, s15, s12
 390 0188 27EE800A 		vmul.f32	s0, s15, s0
 391 018c F0EEC77A 		vabs.f32	s15, s14
 392 0190 37EE077A 		vadd.f32	s14, s14, s14
 393 0194 77EE897A 		vadd.f32	s15, s15, s18
 394 0198 39EE699A 		vsub.f32	s18, s18, s19
 395 019c C7EE278A 		vdiv.f32	s17, s14, s15
 396 01a0 FFF7FEFF 		bl	sinf
 397 01a4 DFED1C6A 		vldr.32	s13, .L47+48
 398 01a8 94ED126A 		vldr.32	s12, [r4, #72]
 399 01ac DFED1C5A 		vldr.32	s11, .L47+56
 400 01b0 9FED167A 		vldr.32	s14, .L47+36
 401 01b4 F0EE007A 		vmov.f32	s15, #2.0e+0
 402 01b8 B0EE085A 		vmov.f32	s10, #3.0e+0
 403 01bc 30EE680A 		vsub.f32	s0, s0, s17
 404 01c0 E9EE008A 		vfma.f32	s17, s18, s0
 405 01c4 78EEE68A 		vsub.f32	s17, s17, s13
 406 01c8 68EE868A 		vmul.f32	s17, s17, s12
 407 01cc F0EEE86A 		vabs.f32	s13, s17
 408 01d0 68EE858A 		vmul.f32	s17, s17, s10
 409 01d4 76EEA76A 		vadd.f32	s13, s13, s15
 410 01d8 C8EEA67A 		vdiv.f32	s15, s17, s13
ARM GAS  C:\Users\pedro\AppData\Local\Temp\cchiLFDh.s 			page 8


 411 01dc E6EE257A 		vfma.f32	s15, s12, s11
 412 01e0 77EE677A 		vsub.f32	s15, s14, s15
 413 01e4 29E1     		b	.L28
 414              	.L48:
 415 01e6 00BF     		.align	2
 416              	.L47:
 417 01e8 00007042 		.word	1114636288
 418 01ec ABAAAA3D 		.word	1034594987
 419 01f0 0000D842 		.word	1121452032
 420 01f4 3333333F 		.word	1060320051
 421 01f8 6F12833A 		.word	981668463
 422 01fc C364AA3A 		.word	984245443
 423 0200 6F12033B 		.word	990057071
 424 0204 6F12033C 		.word	1006834287
 425 0208 DB0FC940 		.word	1086918619
 426 020c 00000000 		.word	0
 427 0210 CDCCCC3D 		.word	1036831949
 428 0214 0AD7233D 		.word	1025758986
 429 0218 9A99193F 		.word	1058642330
 430 021c 00000030 		.word	805306368
 431 0220 9A99993E 		.word	1050253722
 432 0224 CDCC4C3D 		.word	1028443341
 433 0228 0AD7A33C 		.word	1017370378
 434 022c 0AD7A33B 		.word	1000593162
 435              	.L24:
 436 0230 D4F8B030 		ldr	r3, [r4, #176]
 437 0234 002B     		cmp	r3, #0
 438 0236 40F00B81 		bne	.L45
 439 023a F7EE006A 		vmov.f32	s13, #1.0e+0
 440 023e D4ED074A 		vldr.32	s9, [r4, #28]
 441 0242 B1EE007A 		vmov.f32	s14, #4.0e+0
 442 0246 5FED112A 		vldr.32	s5, .L47+28
 443 024a F0EE0C7A 		vmov.f32	s15, #3.5e+0
 444 024e D4ED0D3A 		vldr.32	s7, [r4, #52]
 445 0252 F0EE665A 		vmov.f32	s11, s13
 446 0256 94ED0A3A 		vldr.32	s6, [r4, #40]
 447 025a B6EE006A 		vmov.f32	s12, #5.0e-1
 448 025e 94ED0C4A 		vldr.32	s8, [r4, #48]
 449 0262 64EEA74A 		vmul.f32	s9, s9, s15
 450 0266 D4F8AC50 		ldr	r5, [r4, #172]
 451 026a EBEE875A 		vfma.f32	s11, s23, s14
 452 026e 94ED037A 		vldr.32	s14, [r4, #12]
 453 0272 F0EE667A 		vmov.f32	s15, s13
 454 0276 84ED097A 		vstr.32	s14, [r4, #36]
 455 027a E4EEA37A 		vfma.f32	s15, s9, s7
 456 027e 65EEA25A 		vmul.f32	s11, s11, s5
 457 0282 65EEAA5A 		vmul.f32	s11, s11, s21
 458 0286 67EE277A 		vmul.f32	s15, s14, s15
 459              		.syntax unified
 460              	@ 47 "Source/Utility/dsp.h" 1
 461 028a C7FEC67A 		vminnm.f32 s15, s15, s12
 462              	@ 0 "" 2
 463              		.thumb
 464              		.syntax unified
 465 028e 86EEA56A 		vdiv.f32	s12, s13, s11
 466 0292 77EE837A 		vadd.f32	s15, s15, s6
 467 0296 F4EEE67A 		vcmpe.f32	s15, s13
ARM GAS  C:\Users\pedro\AppData\Local\Temp\cchiLFDh.s 			page 9


 468 029a F1EE10FA 		vmrs	APSR_nzcv, FPSCR
 469 029e A8BF     		it	ge
 470 02a0 77EEE67A 		vsubge.f32	s15, s15, s13
 471 02a4 36EEC66A 		vsub.f32	s12, s13, s12
 472 02a8 C4ED0A7A 		vstr.32	s15, [r4, #40]
 473 02ac 26EE046A 		vmul.f32	s12, s12, s8
 474 02b0 84ED0C6A 		vstr.32	s12, [r4, #48]
 475 02b4 002D     		cmp	r5, #0
 476 02b6 00F0DD80 		beq	.L32
 477              	.L46:
 478 02ba 013D     		subs	r5, r5, #1
 479 02bc D4ED0E5A 		vldr.32	s11, [r4, #56]
 480 02c0 94ED107A 		vldr.32	s14, [r4, #64]
 481 02c4 C4F8AC50 		str	r5, [r4, #172]
 482              	.L33:
 483 02c8 E9EE857A 		vfma.f32	s15, s19, s10
 484 02cc D4ED0F4A 		vldr.32	s9, [r4, #60]
 485 02d0 94ED115A 		vldr.32	s10, [r4, #68]
 486 02d4 36EE636A 		vsub.f32	s12, s12, s7
 487 02d8 75EEE45A 		vsub.f32	s11, s11, s9
 488 02dc 1FED344A 		vldr.32	s8, .L47+40
 489 02e0 37EE457A 		vsub.f32	s14, s14, s10
 490 02e4 B6EE003A 		vmov.f32	s6, #5.0e-1
 491 02e8 F0EE636A 		vmov.f32	s13, s7
 492 02ec BDEEE70A 		vcvt.s32.f32	s0, s15
 493 02f0 E5EE844A 		vfma.f32	s9, s11, s8
 494 02f4 E6EE046A 		vfma.f32	s13, s12, s8
 495 02f8 B8EEC00A 		vcvt.f32.s32	s0, s0
 496 02fc A7EE045A 		vfma.f32	s10, s14, s8
 497 0300 77EEC07A 		vsub.f32	s15, s15, s0
 498 0304 C4ED0F4A 		vstr.32	s9, [r4, #60]
 499 0308 C4ED0D6A 		vstr.32	s13, [r4, #52]
 500 030c F4EEC37A 		vcmpe.f32	s15, s6
 501 0310 84ED115A 		vstr.32	s10, [r4, #68]
 502 0314 F1EE10FA 		vmrs	APSR_nzcv, FPSCR
 503 0318 00F1D380 		bmi	.L38
 504 031c F7EE006A 		vmov.f32	s13, #1.0e+0
 505 0320 76EEE76A 		vsub.f32	s13, s13, s15
 506              	.L34:
 507 0324 F1EE005A 		vmov.f32	s11, #4.0e+0
 508 0328 1FED490A 		vldr.32	s0, .L47+32
 509 032c BFEE007A 		vmov.f32	s14, #-1.0e+0
 510 0330 5FED4A8A 		vldr.32	s17, .L47+36
 511 0334 B6EE086A 		vmov.f32	s12, #7.5e-1
 512 0338 F7EE00AA 		vmov.f32	s21, #1.0e+0
 513 033c A6EEA57A 		vfma.f32	s14, s13, s11
 514 0340 77EE867A 		vadd.f32	s15, s15, s12
 515 0344 7AEEE99A 		vsub.f32	s19, s21, s19
 516 0348 27EE800A 		vmul.f32	s0, s15, s0
 517 034c F0EEC77A 		vabs.f32	s15, s14
 518 0350 37EE077A 		vadd.f32	s14, s14, s14
 519 0354 77EEAA7A 		vadd.f32	s15, s15, s21
 520 0358 87EE279A 		vdiv.f32	s18, s14, s15
 521 035c FFF7FEFF 		bl	sinf
 522 0360 D4ED147A 		vldr.32	s15, [r4, #80]
 523 0364 002D     		cmp	r5, #0
 524 0366 1FED565A 		vldr.32	s10, .L47+40
ARM GAS  C:\Users\pedro\AppData\Local\Temp\cchiLFDh.s 			page 10


 525 036a 04F15800 		add	r0, r4, #88
 526 036e 4AFEA86A 		vseleq.f32	s13, s21, s17
 527 0372 94ED157A 		vldr.32	s14, [r4, #84]
 528 0376 5FED595A 		vldr.32	s11, .L47+44
 529 037a 76EEE76A 		vsub.f32	s13, s13, s15
 530 037e B6EE006A 		vmov.f32	s12, #5.0e-1
 531 0382 F4EEE86A 		vcmpe.f32	s13, s17
 532 0386 F1EE10FA 		vmrs	APSR_nzcv, FPSCR
 533 038a 36FE056A 		vselgt.f32	s12, s12, s10
 534 038e E6EE867A 		vfma.f32	s15, s13, s12
 535 0392 30EE490A 		vsub.f32	s0, s0, s18
 536 0396 A9EE809A 		vfma.f32	s18, s19, s0
 537 039a 77EEC76A 		vsub.f32	s13, s15, s14
 538 039e C4ED147A 		vstr.32	s15, [r4, #80]
 539 03a2 A6EEA57A 		vfma.f32	s14, s13, s11
 540 03a6 37EEC70A 		vsub.f32	s0, s15, s14
 541 03aa 84ED157A 		vstr.32	s14, [r4, #84]
 542 03ae FFF7FEFF 		bl	_ZN7daisysp3Svf7ProcessEf
 543 03b2 D4ED229A 		vldr.32	s19, [r4, #136]
 544 03b6 FFF7FEFF 		bl	rand
 545 03ba 5FED696A 		vldr.32	s13, .L47+48
 546 03be 94ED297A 		vldr.32	s14, [r4, #164]
 547 03c2 07EE900A 		vmov	s15, r0	@ int
 548 03c6 39EE669A 		vsub.f32	s18, s18, s13
 549 03ca 94ED0F5A 		vldr.32	s10, [r4, #60]
 550 03ce F8EEE77A 		vcvt.f32.s32	s15, s15
 551 03d2 5FED6E6A 		vldr.32	s13, .L47+52
 552 03d6 B0EE473A 		vmov.f32	s6, s14
 553 03da 1FED6C4A 		vldr.32	s8, .L47+68
 554 03de 29EE059A 		vmul.f32	s18, s18, s10
 555 03e2 5FED714A 		vldr.32	s9, .L47+56
 556 03e6 F0EE082A 		vmov.f32	s5, #3.0e+0
 557 03ea 94ED116A 		vldr.32	s12, [r4, #68]
 558 03ee 97EEA63A 		vfnms.f32	s6, s15, s13
 559 03f2 5FED747A 		vldr.32	s15, .L47+60
 560 03f6 F0EEC95A 		vabs.f32	s11, s18
 561 03fa D4ED2A6A 		vldr.32	s13, [r4, #168]
 562 03fe F0EE003A 		vmov.f32	s7, #2.0e+0
 563 0402 29EE229A 		vmul.f32	s18, s18, s5
 564 0406 75EEA35A 		vadd.f32	s11, s11, s7
 565 040a A3EE277A 		vfma.f32	s14, s6, s15
 566 040e C9EE257A 		vdiv.f32	s15, s18, s11
 567 0412 84ED297A 		vstr.32	s14, [r4, #164]
 568 0416 77EE665A 		vsub.f32	s11, s14, s13
 569 041a E5EE846A 		vfma.f32	s13, s11, s8
 570 041e 37EE667A 		vsub.f32	s14, s14, s13
 571 0422 C4ED2A6A 		vstr.32	s13, [r4, #168]
 572 0426 E5EE247A 		vfma.f32	s15, s10, s9
 573 042a 37EE297A 		vadd.f32	s14, s14, s19
 574 042e 26EE477A 		vnmul.f32	s14, s12, s14
 575 0432 78EEE77A 		vsub.f32	s15, s17, s15
 576 0436 E7EE0A7A 		vfma.f32	s15, s14, s20
 577              	.L28:
 578 043a 94ED130A 		vldr.32	s0, [r4, #76]
 579 043e 77EEC07A 		vsub.f32	s15, s15, s0
 580 0442 A8EE270A 		vfma.f32	s0, s16, s15
 581 0446 BDEC0A8B 		vldm	sp!, {d8-d12}
ARM GAS  C:\Users\pedro\AppData\Local\Temp\cchiLFDh.s 			page 11


 582 044a 84ED130A 		vstr.32	s0, [r4, #76]
 583 044e 38BD     		pop	{r3, r4, r5, pc}
 584              	.L45:
 585 0450 B5EE007A 		vmov.f32	s14, #2.5e-1
 586 0454 013B     		subs	r3, r3, #1
 587 0456 D4F8AC50 		ldr	r5, [r4, #172]
 588 045a D4ED0D3A 		vldr.32	s7, [r4, #52]
 589 045e F0EE477A 		vmov.f32	s15, s14
 590 0462 94ED0C6A 		vldr.32	s12, [r4, #48]
 591 0466 C4F8B030 		str	r3, [r4, #176]
 592 046a 84ED0A7A 		vstr.32	s14, [r4, #40]
 593 046e 002D     		cmp	r5, #0
 594 0470 7FF423AF 		bne	.L46
 595              	.L32:
 596 0474 5FED945A 		vldr.32	s11, .L47+64
 597 0478 F7EE006A 		vmov.f32	s13, #1.0e+0
 598 047c 1FED957A 		vldr.32	s14, .L47+68
 599 0480 6AEEA5AA 		vmul.f32	s21, s21, s11
 600 0484 D4ED0E4A 		vldr.32	s9, [r4, #56]
 601 0488 2BEE07BA 		vmul.f32	s22, s22, s14
 602 048c 94ED104A 		vldr.32	s8, [r4, #64]
 603 0490 F0EE665A 		vmov.f32	s11, s13
 604 0494 86EEAA3A 		vdiv.f32	s6, s13, s21
 605 0498 86EE8B7A 		vdiv.f32	s14, s13, s22
 606 049c E3EE495A 		vfms.f32	s11, s6, s18
 607 04a0 36EEC77A 		vsub.f32	s14, s13, s14
 608 04a4 65EEA45A 		vmul.f32	s11, s11, s9
 609 04a8 27EE047A 		vmul.f32	s14, s14, s8
 610 04ac C4ED0E5A 		vstr.32	s11, [r4, #56]
 611 04b0 84ED107A 		vstr.32	s14, [r4, #64]
 612 04b4 08E7     		b	.L33
 613              	.L37:
 614 04b6 F0EE676A 		vmov.f32	s13, s15
 615 04ba 57E6     		b	.L27
 616              	.L44:
 617 04bc 94ED026A 		vldr.32	s12, [r4, #8]
 618 04c0 0BE6     		b	.L23
 619              	.L38:
 620 04c2 F0EE676A 		vmov.f32	s13, s15
 621 04c6 2DE7     		b	.L34
 623              		.section	.text._ZN7daisysp17SyntheticBassDrum4TrigEv,"ax",%progbits
 624              		.align	1
 625              		.p2align 2,,3
 626              		.global	_ZN7daisysp17SyntheticBassDrum4TrigEv
 627              		.syntax unified
 628              		.thumb
 629              		.thumb_func
 630              		.fpu fpv5-d16
 632              	_ZN7daisysp17SyntheticBassDrum4TrigEv:
 633              		@ args = 0, pretend = 0, frame = 0
 634              		@ frame_needed = 0, uses_anonymous_args = 0
 635              		@ link register save eliminated.
 636 0000 0123     		movs	r3, #1
 637 0002 0371     		strb	r3, [r0, #4]
 638 0004 7047     		bx	lr
 640 0006 00BF     		.section	.text._ZN7daisysp17SyntheticBassDrum10SetSustainEb,"ax",%progbits
 641              		.align	1
ARM GAS  C:\Users\pedro\AppData\Local\Temp\cchiLFDh.s 			page 12


 642              		.p2align 2,,3
 643              		.global	_ZN7daisysp17SyntheticBassDrum10SetSustainEb
 644              		.syntax unified
 645              		.thumb
 646              		.thumb_func
 647              		.fpu fpv5-d16
 649              	_ZN7daisysp17SyntheticBassDrum10SetSustainEb:
 650              		@ args = 0, pretend = 0, frame = 0
 651              		@ frame_needed = 0, uses_anonymous_args = 0
 652              		@ link register save eliminated.
 653 0000 4171     		strb	r1, [r0, #5]
 654 0002 7047     		bx	lr
 656              		.section	.text._ZN7daisysp17SyntheticBassDrum9SetAccentEf,"ax",%progbits
 657              		.align	1
 658              		.p2align 2,,3
 659              		.global	_ZN7daisysp17SyntheticBassDrum9SetAccentEf
 660              		.syntax unified
 661              		.thumb
 662              		.thumb_func
 663              		.fpu fpv5-d16
 665              	_ZN7daisysp17SyntheticBassDrum9SetAccentEf:
 666              		@ args = 0, pretend = 0, frame = 0
 667              		@ frame_needed = 0, uses_anonymous_args = 0
 668              		@ link register save eliminated.
 669 0000 F7EE007A 		vmov.f32	s15, #1.0e+0
 670 0004 9FED047A 		vldr.32	s14, .L52
 671              		.syntax unified
 672              	@ 36 "Source/Utility/dsp.h" 1
 673 0008 80FE070A 		vmaxnm.f32 s0, s0, s14
 674              	@ 0 "" 2
 675              	@ 47 "Source/Utility/dsp.h" 1
 676 000c 80FE670A 		vminnm.f32 s0, s0, s15
 677              	@ 0 "" 2
 678              		.thumb
 679              		.syntax unified
 680 0010 80ED020A 		vstr.32	s0, [r0, #8]
 681 0014 7047     		bx	lr
 682              	.L53:
 683 0016 00BF     		.align	2
 684              	.L52:
 685 0018 00000000 		.word	0
 687              		.section	.text._ZN7daisysp17SyntheticBassDrum7SetFreqEf,"ax",%progbits
 688              		.align	1
 689              		.p2align 2,,3
 690              		.global	_ZN7daisysp17SyntheticBassDrum7SetFreqEf
 691              		.syntax unified
 692              		.thumb
 693              		.thumb_func
 694              		.fpu fpv5-d16
 696              	_ZN7daisysp17SyntheticBassDrum7SetFreqEf:
 697              		@ args = 0, pretend = 0, frame = 0
 698              		@ frame_needed = 0, uses_anonymous_args = 0
 699              		@ link register save eliminated.
 700 0000 90ED006A 		vldr.32	s12, [r0]
 701 0004 B7EE007A 		vmov.f32	s14, #1.0e+0
 702 0008 DFED056A 		vldr.32	s13, .L55
 703 000c C0EE067A 		vdiv.f32	s15, s0, s12
ARM GAS  C:\Users\pedro\AppData\Local\Temp\cchiLFDh.s 			page 13


 704              		.syntax unified
 705              	@ 36 "Source/Utility/dsp.h" 1
 706 0010 C7FEA67A 		vmaxnm.f32 s15, s15, s13
 707              	@ 0 "" 2
 708              	@ 47 "Source/Utility/dsp.h" 1
 709 0014 C7FEC77A 		vminnm.f32 s15, s15, s14
 710              	@ 0 "" 2
 711              		.thumb
 712              		.syntax unified
 713 0018 C0ED037A 		vstr.32	s15, [r0, #12]
 714 001c 7047     		bx	lr
 715              	.L56:
 716 001e 00BF     		.align	2
 717              	.L55:
 718 0020 00000000 		.word	0
 720              		.section	.text._ZN7daisysp17SyntheticBassDrum7SetToneEf,"ax",%progbits
 721              		.align	1
 722              		.p2align 2,,3
 723              		.global	_ZN7daisysp17SyntheticBassDrum7SetToneEf
 724              		.syntax unified
 725              		.thumb
 726              		.thumb_func
 727              		.fpu fpv5-d16
 729              	_ZN7daisysp17SyntheticBassDrum7SetToneEf:
 730              		@ args = 0, pretend = 0, frame = 0
 731              		@ frame_needed = 0, uses_anonymous_args = 0
 732              		@ link register save eliminated.
 733 0000 F7EE007A 		vmov.f32	s15, #1.0e+0
 734 0004 9FED047A 		vldr.32	s14, .L58
 735              		.syntax unified
 736              	@ 36 "Source/Utility/dsp.h" 1
 737 0008 80FE070A 		vmaxnm.f32 s0, s0, s14
 738              	@ 0 "" 2
 739              	@ 47 "Source/Utility/dsp.h" 1
 740 000c 80FE670A 		vminnm.f32 s0, s0, s15
 741              	@ 0 "" 2
 742              		.thumb
 743              		.syntax unified
 744 0010 80ED040A 		vstr.32	s0, [r0, #16]
 745 0014 7047     		bx	lr
 746              	.L59:
 747 0016 00BF     		.align	2
 748              	.L58:
 749 0018 00000000 		.word	0
 751              		.section	.text._ZN7daisysp17SyntheticBassDrum8SetDecayEf,"ax",%progbits
 752              		.align	1
 753              		.p2align 2,,3
 754              		.global	_ZN7daisysp17SyntheticBassDrum8SetDecayEf
 755              		.syntax unified
 756              		.thumb
 757              		.thumb_func
 758              		.fpu fpv5-d16
 760              	_ZN7daisysp17SyntheticBassDrum8SetDecayEf:
 761              		@ args = 0, pretend = 0, frame = 0
 762              		@ frame_needed = 0, uses_anonymous_args = 0
 763              		@ link register save eliminated.
 764 0000 F7EE007A 		vmov.f32	s15, #1.0e+0
ARM GAS  C:\Users\pedro\AppData\Local\Temp\cchiLFDh.s 			page 14


 765 0004 9FED057A 		vldr.32	s14, .L61
 766              		.syntax unified
 767              	@ 36 "Source/Utility/dsp.h" 1
 768 0008 80FE070A 		vmaxnm.f32 s0, s0, s14
 769              	@ 0 "" 2
 770              	@ 47 "Source/Utility/dsp.h" 1
 771 000c 80FE670A 		vminnm.f32 s0, s0, s15
 772              	@ 0 "" 2
 773              		.thumb
 774              		.syntax unified
 775 0010 20EE000A 		vmul.f32	s0, s0, s0
 776 0014 80ED050A 		vstr.32	s0, [r0, #20]
 777 0018 7047     		bx	lr
 778              	.L62:
 779 001a 00BF     		.align	2
 780              	.L61:
 781 001c 00000000 		.word	0
 783              		.section	.text._ZN7daisysp17SyntheticBassDrum12SetDirtinessEf,"ax",%progbits
 784              		.align	1
 785              		.p2align 2,,3
 786              		.global	_ZN7daisysp17SyntheticBassDrum12SetDirtinessEf
 787              		.syntax unified
 788              		.thumb
 789              		.thumb_func
 790              		.fpu fpv5-d16
 792              	_ZN7daisysp17SyntheticBassDrum12SetDirtinessEf:
 793              		@ args = 0, pretend = 0, frame = 0
 794              		@ frame_needed = 0, uses_anonymous_args = 0
 795              		@ link register save eliminated.
 796 0000 F7EE007A 		vmov.f32	s15, #1.0e+0
 797 0004 9FED047A 		vldr.32	s14, .L64
 798              		.syntax unified
 799              	@ 36 "Source/Utility/dsp.h" 1
 800 0008 80FE070A 		vmaxnm.f32 s0, s0, s14
 801              	@ 0 "" 2
 802              	@ 47 "Source/Utility/dsp.h" 1
 803 000c 80FE670A 		vminnm.f32 s0, s0, s15
 804              	@ 0 "" 2
 805              		.thumb
 806              		.syntax unified
 807 0010 80ED060A 		vstr.32	s0, [r0, #24]
 808 0014 7047     		bx	lr
 809              	.L65:
 810 0016 00BF     		.align	2
 811              	.L64:
 812 0018 00000000 		.word	0
 814              		.section	.text._ZN7daisysp17SyntheticBassDrum19SetFmEnvelopeAmountEf,"ax",%progbits
 815              		.align	1
 816              		.p2align 2,,3
 817              		.global	_ZN7daisysp17SyntheticBassDrum19SetFmEnvelopeAmountEf
 818              		.syntax unified
 819              		.thumb
 820              		.thumb_func
 821              		.fpu fpv5-d16
 823              	_ZN7daisysp17SyntheticBassDrum19SetFmEnvelopeAmountEf:
 824              		@ args = 0, pretend = 0, frame = 0
 825              		@ frame_needed = 0, uses_anonymous_args = 0
ARM GAS  C:\Users\pedro\AppData\Local\Temp\cchiLFDh.s 			page 15


 826              		@ link register save eliminated.
 827 0000 F7EE007A 		vmov.f32	s15, #1.0e+0
 828 0004 9FED047A 		vldr.32	s14, .L67
 829              		.syntax unified
 830              	@ 36 "Source/Utility/dsp.h" 1
 831 0008 80FE070A 		vmaxnm.f32 s0, s0, s14
 832              	@ 0 "" 2
 833              	@ 47 "Source/Utility/dsp.h" 1
 834 000c 80FE670A 		vminnm.f32 s0, s0, s15
 835              	@ 0 "" 2
 836              		.thumb
 837              		.syntax unified
 838 0010 80ED070A 		vstr.32	s0, [r0, #28]
 839 0014 7047     		bx	lr
 840              	.L68:
 841 0016 00BF     		.align	2
 842              	.L67:
 843 0018 00000000 		.word	0
 845              		.section	.text._ZN7daisysp17SyntheticBassDrum18SetFmEnvelopeDecayEf,"ax",%progbits
 846              		.align	1
 847              		.p2align 2,,3
 848              		.global	_ZN7daisysp17SyntheticBassDrum18SetFmEnvelopeDecayEf
 849              		.syntax unified
 850              		.thumb
 851              		.thumb_func
 852              		.fpu fpv5-d16
 854              	_ZN7daisysp17SyntheticBassDrum18SetFmEnvelopeDecayEf:
 855              		@ args = 0, pretend = 0, frame = 0
 856              		@ frame_needed = 0, uses_anonymous_args = 0
 857              		@ link register save eliminated.
 858 0000 F7EE007A 		vmov.f32	s15, #1.0e+0
 859 0004 9FED057A 		vldr.32	s14, .L70
 860              		.syntax unified
 861              	@ 36 "Source/Utility/dsp.h" 1
 862 0008 80FE070A 		vmaxnm.f32 s0, s0, s14
 863              	@ 0 "" 2
 864              	@ 47 "Source/Utility/dsp.h" 1
 865 000c 80FE670A 		vminnm.f32 s0, s0, s15
 866              	@ 0 "" 2
 867              		.thumb
 868              		.syntax unified
 869 0010 20EE000A 		vmul.f32	s0, s0, s0
 870 0014 80ED080A 		vstr.32	s0, [r0, #32]
 871 0018 7047     		bx	lr
 872              	.L71:
 873 001a 00BF     		.align	2
 874              	.L70:
 875 001c 00000000 		.word	0
 877              		.ident	"GCC: (GNU Arm Embedded Toolchain 10-2020-q4-major) 10.2.1 20201103 (release)"
ARM GAS  C:\Users\pedro\AppData\Local\Temp\cchiLFDh.s 			page 16

