ARM GAS  C:\Users\pedro\AppData\Local\Temp\ccyh6igH.s 			page 1


   1              		.cpu cortex-m7
   2              		.eabi_attribute 28, 1
   3              		.eabi_attribute 20, 1
   4              		.eabi_attribute 21, 1
   5              		.eabi_attribute 23, 3
   6              		.eabi_attribute 24, 1
   7              		.eabi_attribute 25, 1
   8              		.eabi_attribute 26, 1
   9              		.eabi_attribute 30, 2
  10              		.eabi_attribute 34, 1
  11              		.eabi_attribute 18, 4
  12              		.file	"variableshapeosc.cpp"
  13              		.text
  14              		.section	.text._ZN7daisysp23VariableShapeOscillator4InitEf,"ax",%progbits
  15              		.align	1
  16              		.p2align 2,,3
  17              		.global	_ZN7daisysp23VariableShapeOscillator4InitEf
  18              		.arch armv7e-m
  19              		.syntax unified
  20              		.thumb
  21              		.thumb_func
  22              		.fpu fpv5-d16
  24              	_ZN7daisysp23VariableShapeOscillator4InitEf:
  25              		@ args = 0, pretend = 0, frame = 0
  26              		@ frame_needed = 0, uses_anonymous_args = 0
  27              		@ link register save eliminated.
  28 0000 9FED256A 		vldr.32	s12, .L10
  29 0004 F5EE005A 		vmov.f32	s11, #2.5e-1
  30 0008 B6EE007A 		vmov.f32	s14, #5.0e-1
  31 000c DFED237A 		vldr.32	s15, .L10+4
  32 0010 C6EE006A 		vdiv.f32	s13, s12, s0
  33 0014 90ED086A 		vldr.32	s12, [r0, #32]
  34 0018 0023     		movs	r3, #0
  35 001a 80ED000A 		vstr.32	s0, [r0]
  36 001e C0ED027A 		vstr.32	s15, [r0, #8]
  37 0022 C0ED037A 		vstr.32	s15, [r0, #12]
  38 0026 C0ED047A 		vstr.32	s15, [r0, #16]
  39 002a 80ED057A 		vstr.32	s14, [r0, #20]
  40 002e 0376     		strb	r3, [r0, #24]
  41 0030 C0ED0A7A 		vstr.32	s15, [r0, #40]
  42 0034 F4EE656A 		vcmp.f32	s13, s11
  43 0038 F1EE10FA 		vmrs	APSR_nzcv, FPSCR
  44 003c B4EEE56A 		vcmpe.f32	s12, s11
  45 0040 65FEA66A 		vselge.f32	s13, s11, s13
  46 0044 C0ED076A 		vstr.32	s13, [r0, #28]
  47 0048 F1EE10FA 		vmrs	APSR_nzcv, FPSCR
  48 004c 09DA     		bge	.L3
  49 004e 36EE066A 		vadd.f32	s12, s12, s12
  50 0052 B7EE007A 		vmov.f32	s14, #1.0e+0
  51              		.syntax unified
  52              	@ 36 "Source/Utility/dsp.h" 1
  53 0056 C7FE867A 		vmaxnm.f32 s15, s15, s12
  54              	@ 0 "" 2
  55              		.thumb
  56              		.syntax unified
  57 005a 37EE467A 		vsub.f32	s14, s14, s12
  58              		.syntax unified
ARM GAS  C:\Users\pedro\AppData\Local\Temp\ccyh6igH.s 			page 2


  59              	@ 47 "Source/Utility/dsp.h" 1
  60 005e 87FEC77A 		vminnm.f32 s14, s15, s14
  61              	@ 0 "" 2
  62              		.thumb
  63              		.syntax unified
  64              	.L3:
  65 0062 9FED0F6A 		vldr.32	s12, .L10+8
  66 0066 F5EE006A 		vmov.f32	s13, #2.5e-1
  67 006a 0023     		movs	r3, #0
  68 006c C6EE007A 		vdiv.f32	s15, s12, s0
  69 0070 0371     		strb	r3, [r0, #4]
  70 0072 F4EEE67A 		vcmpe.f32	s15, s13
  71 0076 F1EE10FA 		vmrs	APSR_nzcv, FPSCR
  72 007a 04DA     		bge	.L4
  73 007c 80ED097A 		vstr.32	s14, [r0, #36]
  74 0080 C0ED087A 		vstr.32	s15, [r0, #32]
  75 0084 7047     		bx	lr
  76              	.L4:
  77 0086 F0EE667A 		vmov.f32	s15, s13
  78 008a 4FF07C53 		mov	r3, #1056964608
  79 008e 4362     		str	r3, [r0, #36]	@ float
  80 0090 C0ED087A 		vstr.32	s15, [r0, #32]
  81 0094 7047     		bx	lr
  82              	.L11:
  83 0096 00BF     		.align	2
  84              	.L10:
  85 0098 0000DC43 		.word	1138491392
  86 009c 00000000 		.word	0
  87 00a0 00005C43 		.word	1130102784
  89              		.section	.text._ZN7daisysp23VariableShapeOscillator7ProcessEv,"ax",%progbits
  90              		.align	1
  91              		.p2align 2,,3
  92              		.global	_ZN7daisysp23VariableShapeOscillator7ProcessEv
  93              		.syntax unified
  94              		.thumb
  95              		.thumb_func
  96              		.fpu fpv5-d16
  98              	_ZN7daisysp23VariableShapeOscillator7ProcessEv:
  99              		@ args = 0, pretend = 0, frame = 0
 100              		@ frame_needed = 0, uses_anonymous_args = 0
 101              		@ link register save eliminated.
 102 0000 F7EE007A 		vmov.f32	s15, #1.0e+0
 103 0004 D0ED093A 		vldr.32	s7, [r0, #36]
 104 0008 F6EE006A 		vmov.f32	s13, #5.0e-1
 105 000c 90ED0A3A 		vldr.32	s6, [r0, #40]
 106 0010 B0EE006A 		vmov.f32	s12, #2.0e+0
 107 0014 0179     		ldrb	r1, [r0, #4]	@ zero_extendqisi2
 108 0016 37EEE37A 		vsub.f32	s14, s15, s7
 109 001a 90ED045A 		vldr.32	s10, [r0, #16]
 110 001e C7EEA30A 		vdiv.f32	s1, s15, s7
 111 0022 10B4     		push	{r4}
 112 0024 2DED088B 		vpush.64	{d8, d9, d10, d11}
 113 0028 B0EE678A 		vmov.f32	s16, s15
 114 002c DFEDA49A 		vldr.32	s19, .L59
 115 0030 C7EE878A 		vdiv.f32	s17, s15, s14
 116 0034 A3EE468A 		vfms.f32	s16, s6, s12
 117 0038 33EE663A 		vsub.f32	s6, s6, s13
ARM GAS  C:\Users\pedro\AppData\Local\Temp\ccyh6igH.s 			page 3


 118              		.syntax unified
 119              	@ 36 "Source/Utility/dsp.h" 1
 120 003c 88FE298A 		vmaxnm.f32 s16, s16, s19
 121              	@ 0 "" 2
 122              	@ 36 "Source/Utility/dsp.h" 1
 123 0040 83FE293A 		vmaxnm.f32 s6, s6, s19
 124              	@ 0 "" 2
 125              		.thumb
 126              		.syntax unified
 127 0044 33EE033A 		vadd.f32	s6, s6, s6
 128 0048 0029     		cmp	r1, #0
 129 004a 40F0D380 		bne	.L13
 130 004e F0EE694A 		vmov.f32	s9, s19
 131 0052 90ED034A 		vldr.32	s8, [r0, #12]
 132 0056 D0ED082A 		vldr.32	s5, [r0, #32]
 133 005a 0B46     		mov	r3, r1
 134 005c 0C46     		mov	r4, r1
 135              	.L14:
 136 005e 34EE224A 		vadd.f32	s8, s8, s5
 137 0062 0122     		movs	r2, #1
 138 0064 B6EE001A 		vmov.f32	s2, #5.0e-1
 139 0068 4FF0000C 		mov	ip, #0
 140 006c B7EE000A 		vmov.f32	s0, #1.0e+0
 141 0070 BEEE009A 		vmov.f32	s18, #-5.0e-1
 142 0074 80ED034A 		vstr.32	s8, [r0, #12]
 143 0078 F4EE081A 		vmov.f32	s3, #1.875e-1
 144 007c B7EE082A 		vmov.f32	s4, #1.5e+0
 145 0080 002B     		cmp	r3, #0
 146 0082 79D1     		bne	.L23
 147 0084 037E     		ldrb	r3, [r0, #24]	@ zero_extendqisi2
 148 0086 E3B3     		cbz	r3, .L56
 149              	.L24:
 150 0088 B4EEC04A 		vcmpe.f32	s8, s0
 151 008c F1EE10FA 		vmrs	APSR_nzcv, FPSCR
 152 0090 00F1A080 		bmi	.L57
 153 0094 34EE404A 		vsub.f32	s8, s8, s0
 154 0098 80F818C0 		strb	ip, [r0, #24]
 155 009c 30EE486A 		vsub.f32	s12, s0, s16
 156 00a0 037E     		ldrb	r3, [r0, #24]	@ zero_extendqisi2
 157 00a2 70EEA86A 		vadd.f32	s13, s1, s17
 158 00a6 84EE227A 		vdiv.f32	s14, s8, s5
 159 00aa 80ED034A 		vstr.32	s8, [r0, #12]
 160 00ae 66EEA26A 		vmul.f32	s13, s13, s5
 161 00b2 66EE886A 		vmul.f32	s13, s13, s16
 162 00b6 67EE017A 		vmul.f32	s15, s14, s2
 163 00ba 70EE475A 		vsub.f32	s11, s0, s14
 164 00be 27EEA7AA 		vmul.f32	s20, s15, s15
 165 00c2 27EE277A 		vmul.f32	s14, s14, s15
 166 00c6 71EEE77A 		vsub.f32	s15, s3, s15
 167 00ca A6EE475A 		vfms.f32	s10, s12, s14
 168 00ce EAEE027A 		vfma.f32	s15, s20, s4
 169 00d2 25EE817A 		vmul.f32	s14, s11, s2
 170 00d6 EAEE4A7A 		vfms.f32	s15, s20, s20
 171 00da 27EE07AA 		vmul.f32	s20, s14, s14
 172 00de 31EEC77A 		vsub.f32	s14, s3, s14
 173 00e2 AAEE027A 		vfma.f32	s14, s20, s4
 174 00e6 AAEE4A7A 		vfms.f32	s14, s20, s20
ARM GAS  C:\Users\pedro\AppData\Local\Temp\ccyh6igH.s 			page 4


 175 00ea A6EE875A 		vfma.f32	s10, s13, s14
 176 00ee 25EE897A 		vmul.f32	s14, s11, s18
 177 00f2 27EE257A 		vmul.f32	s14, s14, s11
 178 00f6 E6EE474A 		vfms.f32	s9, s12, s14
 179 00fa E6EEA74A 		vfma.f32	s9, s13, s15
 180 00fe 002B     		cmp	r3, #0
 181 0100 C2D1     		bne	.L24
 182              	.L56:
 183 0102 F4EEC43A 		vcmpe.f32	s7, s8
 184 0106 F1EE10FA 		vmrs	APSR_nzcv, FPSCR
 185 010a 5CDC     		bgt	.L25
 186 010c D0ED057A 		vldr.32	s15, [r0, #20]
 187 0110 74EE636A 		vsub.f32	s13, s8, s7
 188 0114 30EEA87A 		vadd.f32	s14, s1, s17
 189 0118 0276     		strb	r2, [r0, #24]
 190 011a 77EEE37A 		vsub.f32	s15, s15, s7
 191 011e 27EE227A 		vmul.f32	s14, s14, s5
 192 0122 77EEA27A 		vadd.f32	s15, s15, s5
 193 0126 28EE477A 		vnmul.f32	s14, s16, s14
 194 012a 86EEA76A 		vdiv.f32	s12, s13, s15
 195 012e 30EE46BA 		vsub.f32	s22, s0, s12
 196 0132 66EE015A 		vmul.f32	s11, s12, s2
 197 0136 6BEE017A 		vmul.f32	s15, s22, s2
 198 013a 25EEA5AA 		vmul.f32	s20, s11, s11
 199 013e 71EEE56A 		vsub.f32	s13, s3, s11
 200 0142 26EE256A 		vmul.f32	s12, s12, s11
 201 0146 67EEA75A 		vmul.f32	s11, s15, s15
 202 014a 71EEE77A 		vsub.f32	s15, s3, s15
 203 014e EAEE026A 		vfma.f32	s13, s20, s4
 204 0152 6BEE09AA 		vmul.f32	s21, s22, s18
 205 0156 E5EE827A 		vfma.f32	s15, s11, s4
 206 015a A3EE065A 		vfma.f32	s10, s6, s12
 207 015e 6AEE8BAA 		vmul.f32	s21, s21, s22
 208 0162 EAEE4A6A 		vfms.f32	s13, s20, s20
 209 0166 E3EE2A4A 		vfma.f32	s9, s6, s21
 210 016a E5EEE57A 		vfms.f32	s15, s11, s11
 211 016e E7EE264A 		vfma.f32	s9, s14, s13
 212 0172 A7EE275A 		vfma.f32	s10, s14, s15
 213 0176 87E7     		b	.L24
 214              	.L23:
 215 0178 81BB     		cbnz	r1, .L31
 216              	.L27:
 217 017a F4EEC43A 		vcmpe.f32	s7, s8
 218 017e F1EE10FA 		vmrs	APSR_nzcv, FPSCR
 219 0182 22DC     		bgt	.L35
 220              	.L52:
 221 0184 F7EE007A 		vmov.f32	s15, #1.0e+0
 222 0188 34EE637A 		vsub.f32	s14, s8, s7
 223 018c F0EE670A 		vmov.f32	s1, s15
 224 0190 E8EEC70A 		vfms.f32	s1, s17, s14
 225              	.L30:
 226 0194 77EEC47A 		vsub.f32	s15, s15, s8
 227 0198 C0ED053A 		vstr.32	s7, [r0, #20]
 228 019c B0EE007A 		vmov.f32	s14, #2.0e+0
 229 01a0 BFEE000A 		vmov.f32	s0, #-1.0e+0
 230 01a4 A3EE274A 		vfma.f32	s8, s6, s15
 231 01a8 A5EE070A 		vfma.f32	s0, s10, s14
ARM GAS  C:\Users\pedro\AppData\Local\Temp\ccyh6igH.s 			page 5


 232 01ac 70EEC40A 		vsub.f32	s1, s1, s8
 233 01b0 A8EE204A 		vfma.f32	s8, s16, s1
 234 01b4 BDEC088B 		vldm	sp!, {d8-d11}
 235 01b8 5DF8044B 		ldr	r4, [sp], #4
 236 01bc 74EE244A 		vadd.f32	s9, s8, s9
 237 01c0 C0ED044A 		vstr.32	s9, [r0, #16]
 238 01c4 7047     		bx	lr
 239              	.L25:
 240 01c6 01B1     		cbz	r1, .L35
 241 01c8 44B9     		cbnz	r4, .L31
 242              	.L35:
 243 01ca 60EE840A 		vmul.f32	s1, s1, s8
 244 01ce DFED3C7A 		vldr.32	s15, .L59
 245 01d2 DFE7     		b	.L30
 246              	.L57:
 247 01d4 0029     		cmp	r1, #0
 248 01d6 D0D0     		beq	.L27
 249 01d8 002C     		cmp	r4, #0
 250 01da CED0     		beq	.L27
 251              	.L31:
 252 01dc 29EEA24A 		vmul.f32	s8, s19, s5
 253 01e0 0023     		movs	r3, #0
 254 01e2 0376     		strb	r3, [r0, #24]
 255 01e4 F4EEC43A 		vcmpe.f32	s7, s8
 256 01e8 80ED034A 		vstr.32	s8, [r0, #12]
 257 01ec F1EE10FA 		vmrs	APSR_nzcv, FPSCR
 258 01f0 C8DD     		ble	.L52
 259 01f2 EAE7     		b	.L35
 260              	.L13:
 261 01f4 90ED027A 		vldr.32	s14, [r0, #8]
 262 01f8 D0ED076A 		vldr.32	s13, [r0, #28]
 263 01fc 36EE877A 		vadd.f32	s14, s13, s14
 264 0200 B4EEE77A 		vcmpe.f32	s14, s15
 265 0204 80ED027A 		vstr.32	s14, [r0, #8]
 266 0208 F1EE10FA 		vmrs	APSR_nzcv, FPSCR
 267 020c 44DB     		blt	.L58
 268 020e 37EE677A 		vsub.f32	s14, s14, s15
 269 0212 90ED034A 		vldr.32	s8, [r0, #12]
 270 0216 D0ED082A 		vldr.32	s5, [r0, #32]
 271 021a C7EE269A 		vdiv.f32	s19, s14, s13
 272 021e 80ED027A 		vstr.32	s14, [r0, #8]
 273 0222 B0EE447A 		vmov.f32	s14, s8
 274 0226 77EEE96A 		vsub.f32	s13, s15, s19
 275 022a A6EEA27A 		vfma.f32	s14, s13, s5
 276 022e B4EEE77A 		vcmpe.f32	s14, s15
 277 0232 F1EE10FA 		vmrs	APSR_nzcv, FPSCR
 278 0236 38DB     		blt	.L49
 279 0238 37EE677A 		vsub.f32	s14, s14, s15
 280 023c 0023     		movs	r3, #0
 281              	.L16:
 282 023e 027E     		ldrb	r2, [r0, #24]	@ zero_extendqisi2
 283 0240 2AB9     		cbnz	r2, .L18
 284 0242 F4EE473A 		vcmp.f32	s7, s14
 285 0246 F1EE10FA 		vmrs	APSR_nzcv, FPSCR
 286 024a 98BF     		it	ls
 287 024c 0023     		movls	r3, #0
 288              	.L18:
ARM GAS  C:\Users\pedro\AppData\Local\Temp\ccyh6igH.s 			page 6


 289 024e F4EEC73A 		vcmpe.f32	s7, s14
 290 0252 F1EE10FA 		vmrs	APSR_nzcv, FPSCR
 291 0256 2ADD     		ble	.L50
 292 0258 67EE205A 		vmul.f32	s11, s14, s1
 293 025c 9FED186A 		vldr.32	s12, .L59
 294              	.L22:
 295 0260 36EE476A 		vsub.f32	s12, s12, s14
 296 0264 DFED164A 		vldr.32	s9, .L59
 297 0268 BEEE002A 		vmov.f32	s4, #-5.0e-1
 298 026c 0C46     		mov	r4, r1
 299 026e F6EE007A 		vmov.f32	s15, #5.0e-1
 300 0272 A3EE067A 		vfma.f32	s14, s6, s12
 301 0276 26EE826A 		vmul.f32	s12, s13, s4
 302 027a 69EEA77A 		vmul.f32	s15, s19, s15
 303 027e 66EEC66A 		vnmul.f32	s13, s13, s12
 304 0282 69EEE77A 		vnmul.f32	s15, s19, s15
 305 0286 35EEC76A 		vsub.f32	s12, s11, s14
 306 028a A8EE067A 		vfma.f32	s14, s16, s12
 307 028e A7EE875A 		vfma.f32	s10, s15, s14
 308 0292 E6EE874A 		vfma.f32	s9, s13, s14
 309 0296 E2E6     		b	.L14
 310              	.L58:
 311 0298 0023     		movs	r3, #0
 312 029a F0EE694A 		vmov.f32	s9, s19
 313 029e 90ED034A 		vldr.32	s8, [r0, #12]
 314 02a2 D0ED082A 		vldr.32	s5, [r0, #32]
 315 02a6 1C46     		mov	r4, r3
 316 02a8 D9E6     		b	.L14
 317              	.L49:
 318 02aa 0B46     		mov	r3, r1
 319 02ac C7E7     		b	.L16
 320              	.L50:
 321 02ae B7EE006A 		vmov.f32	s12, #1.0e+0
 322 02b2 77EE637A 		vsub.f32	s15, s14, s7
 323 02b6 F0EE465A 		vmov.f32	s11, s12
 324 02ba E8EEE75A 		vfms.f32	s11, s17, s15
 325 02be CFE7     		b	.L22
 326              	.L60:
 327              		.align	2
 328              	.L59:
 329 02c0 00000000 		.word	0
 331              		.section	.text._ZN7daisysp23VariableShapeOscillator7SetFreqEf,"ax",%progbits
 332              		.align	1
 333              		.p2align 2,,3
 334              		.global	_ZN7daisysp23VariableShapeOscillator7SetFreqEf
 335              		.syntax unified
 336              		.thumb
 337              		.thumb_func
 338              		.fpu fpv5-d16
 340              	_ZN7daisysp23VariableShapeOscillator7SetFreqEf:
 341              		@ args = 0, pretend = 0, frame = 0
 342              		@ frame_needed = 0, uses_anonymous_args = 0
 343              		@ link register save eliminated.
 344 0000 D0ED006A 		vldr.32	s13, [r0]
 345 0004 B5EE007A 		vmov.f32	s14, #2.5e-1
 346 0008 C0EE267A 		vdiv.f32	s15, s0, s13
 347 000c F4EE477A 		vcmp.f32	s15, s14
ARM GAS  C:\Users\pedro\AppData\Local\Temp\ccyh6igH.s 			page 7


 348 0010 F1EE10FA 		vmrs	APSR_nzcv, FPSCR
 349 0014 67FE277A 		vselge.f32	s15, s14, s15
 350 0018 C0ED077A 		vstr.32	s15, [r0, #28]
 351 001c 7047     		bx	lr
 353 001e 00BF     		.section	.text._ZN7daisysp23VariableShapeOscillator5SetPWEf,"ax",%progbits
 354              		.align	1
 355              		.p2align 2,,3
 356              		.global	_ZN7daisysp23VariableShapeOscillator5SetPWEf
 357              		.syntax unified
 358              		.thumb
 359              		.thumb_func
 360              		.fpu fpv5-d16
 362              	_ZN7daisysp23VariableShapeOscillator5SetPWEf:
 363              		@ args = 0, pretend = 0, frame = 0
 364              		@ frame_needed = 0, uses_anonymous_args = 0
 365              		@ link register save eliminated.
 366 0000 B5EE007A 		vmov.f32	s14, #2.5e-1
 367 0004 D0ED087A 		vldr.32	s15, [r0, #32]
 368 0008 F4EEC77A 		vcmpe.f32	s15, s14
 369 000c F1EE10FA 		vmrs	APSR_nzcv, FPSCR
 370 0010 0CDA     		bge	.L66
 371 0012 77EEA77A 		vadd.f32	s15, s15, s15
 372 0016 B7EE007A 		vmov.f32	s14, #1.0e+0
 373              		.syntax unified
 374              	@ 36 "Source/Utility/dsp.h" 1
 375 001a 80FE270A 		vmaxnm.f32 s0, s0, s15
 376              	@ 0 "" 2
 377              		.thumb
 378              		.syntax unified
 379 001e 77EE677A 		vsub.f32	s15, s14, s15
 380              		.syntax unified
 381              	@ 47 "Source/Utility/dsp.h" 1
 382 0022 80FE670A 		vminnm.f32 s0, s0, s15
 383              	@ 0 "" 2
 384              		.thumb
 385              		.syntax unified
 386 0026 80ED090A 		vstr.32	s0, [r0, #36]
 387 002a 7047     		bx	lr
 388              	.L66:
 389 002c B6EE000A 		vmov.f32	s0, #5.0e-1
 390 0030 80ED090A 		vstr.32	s0, [r0, #36]
 391 0034 7047     		bx	lr
 393 0036 00BF     		.section	.text._ZN7daisysp23VariableShapeOscillator12SetWaveshapeEf,"ax",%progbits
 394              		.align	1
 395              		.p2align 2,,3
 396              		.global	_ZN7daisysp23VariableShapeOscillator12SetWaveshapeEf
 397              		.syntax unified
 398              		.thumb
 399              		.thumb_func
 400              		.fpu fpv5-d16
 402              	_ZN7daisysp23VariableShapeOscillator12SetWaveshapeEf:
 403              		@ args = 0, pretend = 0, frame = 0
 404              		@ frame_needed = 0, uses_anonymous_args = 0
 405              		@ link register save eliminated.
 406 0000 80ED0A0A 		vstr.32	s0, [r0, #40]
 407 0004 7047     		bx	lr
 409 0006 00BF     		.section	.text._ZN7daisysp23VariableShapeOscillator7SetSyncEb,"ax",%progbits
ARM GAS  C:\Users\pedro\AppData\Local\Temp\ccyh6igH.s 			page 8


 410              		.align	1
 411              		.p2align 2,,3
 412              		.global	_ZN7daisysp23VariableShapeOscillator7SetSyncEb
 413              		.syntax unified
 414              		.thumb
 415              		.thumb_func
 416              		.fpu fpv5-d16
 418              	_ZN7daisysp23VariableShapeOscillator7SetSyncEb:
 419              		@ args = 0, pretend = 0, frame = 0
 420              		@ frame_needed = 0, uses_anonymous_args = 0
 421              		@ link register save eliminated.
 422 0000 0171     		strb	r1, [r0, #4]
 423 0002 7047     		bx	lr
 425              		.section	.text._ZN7daisysp23VariableShapeOscillator11SetSyncFreqEf,"ax",%progbits
 426              		.align	1
 427              		.p2align 2,,3
 428              		.global	_ZN7daisysp23VariableShapeOscillator11SetSyncFreqEf
 429              		.syntax unified
 430              		.thumb
 431              		.thumb_func
 432              		.fpu fpv5-d16
 434              	_ZN7daisysp23VariableShapeOscillator11SetSyncFreqEf:
 435              		@ args = 0, pretend = 0, frame = 0
 436              		@ frame_needed = 0, uses_anonymous_args = 0
 437              		@ link register save eliminated.
 438 0000 D0ED006A 		vldr.32	s13, [r0]
 439 0004 B5EE007A 		vmov.f32	s14, #2.5e-1
 440 0008 C0EE267A 		vdiv.f32	s15, s0, s13
 441 000c F4EEC77A 		vcmpe.f32	s15, s14
 442 0010 F1EE10FA 		vmrs	APSR_nzcv, FPSCR
 443 0014 04DB     		blt	.L71
 444 0016 F0EE477A 		vmov.f32	s15, s14
 445 001a 4FF07C53 		mov	r3, #1056964608
 446 001e 4362     		str	r3, [r0, #36]	@ float
 447              	.L71:
 448 0020 C0ED087A 		vstr.32	s15, [r0, #32]
 449 0024 7047     		bx	lr
 451              		.section	.text._ZN7daisysp23VariableShapeOscillator18ComputeNaiveSampleEffffff,"ax",%progbits
 452              		.align	1
 453              		.p2align 2,,3
 454              		.global	_ZN7daisysp23VariableShapeOscillator18ComputeNaiveSampleEffffff
 455              		.syntax unified
 456              		.thumb
 457              		.thumb_func
 458              		.fpu fpv5-d16
 460              	_ZN7daisysp23VariableShapeOscillator18ComputeNaiveSampleEffffff:
 461              		@ args = 0, pretend = 0, frame = 0
 462              		@ frame_needed = 0, uses_anonymous_args = 0
 463              		@ link register save eliminated.
 464 0000 B4EEE00A 		vcmpe.f32	s0, s1
 465 0004 F1EE10FA 		vmrs	APSR_nzcv, FPSCR
 466 0008 0CD5     		bpl	.L78
 467 000a 20EE011A 		vmul.f32	s2, s0, s2
 468 000e DFED0A7A 		vldr.32	s15, .L79
 469              	.L76:
 470 0012 77EEC07A 		vsub.f32	s15, s15, s0
 471 0016 A7EEA20A 		vfma.f32	s0, s15, s5
ARM GAS  C:\Users\pedro\AppData\Local\Temp\ccyh6igH.s 			page 9


 472 001a 31EE401A 		vsub.f32	s2, s2, s0
 473 001e A1EE020A 		vfma.f32	s0, s2, s4
 474 0022 7047     		bx	lr
 475              	.L78:
 476 0024 F7EE007A 		vmov.f32	s15, #1.0e+0
 477 0028 70EE600A 		vsub.f32	s1, s0, s1
 478 002c B0EE671A 		vmov.f32	s2, s15
 479 0030 A0EEE11A 		vfms.f32	s2, s1, s3
 480 0034 EDE7     		b	.L76
 481              	.L80:
 482 0036 00BF     		.align	2
 483              	.L79:
 484 0038 00000000 		.word	0
 486              		.ident	"GCC: (GNU Arm Embedded Toolchain 10-2020-q4-major) 10.2.1 20201103 (release)"
ARM GAS  C:\Users\pedro\AppData\Local\Temp\ccyh6igH.s 			page 10

