ARM GAS  C:\Users\pedro\AppData\Local\Temp\cc47Pz99.s 			page 1


   1              		.cpu cortex-m7
   2              		.eabi_attribute 28, 1
   3              		.eabi_attribute 20, 1
   4              		.eabi_attribute 21, 1
   5              		.eabi_attribute 23, 3
   6              		.eabi_attribute 24, 1
   7              		.eabi_attribute 25, 1
   8              		.eabi_attribute 26, 1
   9              		.eabi_attribute 30, 2
  10              		.eabi_attribute 34, 1
  11              		.eabi_attribute 18, 4
  12              		.file	"vosim.cpp"
  13              		.text
  14              		.section	.text._ZN7daisysp15VosimOscillator4InitEf,"ax",%progbits
  15              		.align	1
  16              		.p2align 2,,3
  17              		.global	_ZN7daisysp15VosimOscillator4InitEf
  18              		.arch armv7e-m
  19              		.syntax unified
  20              		.thumb
  21              		.thumb_func
  22              		.fpu fpv5-d16
  24              	_ZN7daisysp15VosimOscillator4InitEf:
  25              		@ args = 0, pretend = 0, frame = 0
  26              		@ frame_needed = 0, uses_anonymous_args = 0
  27              		@ link register save eliminated.
  28 0000 DFED176A 		vldr.32	s13, .L9
  29 0004 F5EE007A 		vmov.f32	s15, #2.5e-1
  30 0008 9FED167A 		vldr.32	s14, .L9+4
  31 000c 0023     		movs	r3, #0
  32 000e 86EE806A 		vdiv.f32	s12, s13, s0
  33 0012 DFED155A 		vldr.32	s11, .L9+8
  34 0016 4FF07C52 		mov	r2, #1056964608
  35 001a 80ED000A 		vstr.32	s0, [r0]
  36 001e 4360     		str	r3, [r0, #4]	@ float
  37 0020 C261     		str	r2, [r0, #28]	@ float
  38 0022 8360     		str	r3, [r0, #8]	@ float
  39 0024 C7EE006A 		vdiv.f32	s13, s14, s0
  40 0028 C360     		str	r3, [r0, #12]	@ float
  41 002a 85EE807A 		vdiv.f32	s14, s11, s0
  42 002e B4EE676A 		vcmp.f32	s12, s15
  43 0032 F1EE10FA 		vmrs	APSR_nzcv, FPSCR
  44 0036 F4EE676A 		vcmp.f32	s13, s15
  45 003a 37FE866A 		vselgt.f32	s12, s15, s12
  46 003e 80ED046A 		vstr.32	s12, [r0, #16]
  47 0042 F1EE10FA 		vmrs	APSR_nzcv, FPSCR
  48 0046 B4EE677A 		vcmp.f32	s14, s15
  49 004a 77FEA66A 		vselgt.f32	s13, s15, s13
  50 004e C0ED056A 		vstr.32	s13, [r0, #20]
  51 0052 F1EE10FA 		vmrs	APSR_nzcv, FPSCR
  52 0056 37FE877A 		vselgt.f32	s14, s15, s14
  53 005a 80ED067A 		vstr.32	s14, [r0, #24]
  54 005e 7047     		bx	lr
  55              	.L10:
  56              		.align	2
  57              	.L9:
  58 0060 0000D242 		.word	1121058816
ARM GAS  C:\Users\pedro\AppData\Local\Temp\cc47Pz99.s 			page 2


  59 0064 00C0AD44 		.word	1152237568
  60 0068 00404C44 		.word	1145847808
  62              		.section	.text._ZN7daisysp15VosimOscillator7ProcessEv,"ax",%progbits
  63              		.align	1
  64              		.p2align 2,,3
  65              		.global	_ZN7daisysp15VosimOscillator7ProcessEv
  66              		.syntax unified
  67              		.thumb
  68              		.thumb_func
  69              		.fpu fpv5-d16
  71              	_ZN7daisysp15VosimOscillator7ProcessEv:
  72              		@ args = 0, pretend = 0, frame = 0
  73              		@ frame_needed = 0, uses_anonymous_args = 0
  74 0000 D0ED017A 		vldr.32	s15, [r0, #4]
  75 0004 B7EE007A 		vmov.f32	s14, #1.0e+0
  76 0008 D0ED046A 		vldr.32	s13, [r0, #16]
  77 000c 76EEA77A 		vadd.f32	s15, s13, s15
  78 0010 10B5     		push	{r4, lr}
  79 0012 F4EEC77A 		vcmpe.f32	s15, s14
  80 0016 0446     		mov	r4, r0
  81 0018 C0ED017A 		vstr.32	s15, [r0, #4]
  82 001c F1EE10FA 		vmrs	APSR_nzcv, FPSCR
  83 0020 2DED088B 		vpush.64	{d8, d9, d10, d11}
  84 0024 4EDB     		blt	.L19
  85 0026 77EEC77A 		vsub.f32	s15, s15, s14
  86 002a 90ED059A 		vldr.32	s18, [r0, #20]
  87 002e D0ED069A 		vldr.32	s19, [r0, #24]
  88 0032 C7EEA68A 		vdiv.f32	s17, s15, s13
  89 0036 C0ED017A 		vstr.32	s15, [r0, #4]
  90 003a 28EE899A 		vmul.f32	s18, s17, s18
  91 003e 68EEA99A 		vmul.f32	s19, s17, s19
  92 0042 80ED029A 		vstr.32	s18, [r0, #8]
  93 0046 C0ED039A 		vstr.32	s19, [r0, #12]
  94              	.L14:
  95 004a F5EE00BA 		vmov.f32	s23, #2.5e-1
  96 004e 9FED2EBA 		vldr.32	s22, .L23
  97 0052 B6EE007A 		vmov.f32	s14, #5.0e-1
  98 0056 F6EE088A 		vmov.f32	s17, #7.5e-1
  99 005a B0EE6B0A 		vmov.f32	s0, s23
 100 005e A7EE870A 		vfma.f32	s0, s15, s14
 101 0062 20EE0B0A 		vmul.f32	s0, s0, s22
 102 0066 FFF7FEFF 		bl	sinf
 103 006a D4ED077A 		vldr.32	s15, [r4, #28]
 104 006e F0EE40AA 		vmov.f32	s21, s0
 105 0072 E7EEEB8A 		vfms.f32	s17, s15, s23
 106 0076 38EE899A 		vadd.f32	s18, s17, s18
 107 007a 28EE8B0A 		vmul.f32	s0, s17, s22
 108 007e FFF7FEFF 		bl	sinf
 109 0082 78EEA98A 		vadd.f32	s17, s17, s19
 110 0086 B0EE40AA 		vmov.f32	s20, s0
 111 008a 29EE0B0A 		vmul.f32	s0, s18, s22
 112 008e FFF7FEFF 		bl	sinf
 113 0092 B0EE408A 		vmov.f32	s16, s0
 114 0096 28EE8B0A 		vmul.f32	s0, s17, s22
 115 009a FFF7FEFF 		bl	sinf
 116 009e F7EE007A 		vmov.f32	s15, #1.0e+0
 117 00a2 30EE4A0A 		vsub.f32	s0, s0, s20
ARM GAS  C:\Users\pedro\AppData\Local\Temp\cc47Pz99.s 			page 3


 118 00a6 38EE4A8A 		vsub.f32	s16, s16, s20
 119 00aa 7AEEA7AA 		vadd.f32	s21, s21, s15
 120 00ae 38EE008A 		vadd.f32	s16, s16, s0
 121 00b2 B0EE4A0A 		vmov.f32	s0, s20
 122 00b6 28EE2A8A 		vmul.f32	s16, s16, s21
 123 00ba A8EE2B0A 		vfma.f32	s0, s16, s23
 124 00be BDEC088B 		vldm	sp!, {d8-d11}
 125 00c2 10BD     		pop	{r4, pc}
 126              	.L19:
 127 00c4 90ED029A 		vldr.32	s18, [r0, #8]
 128 00c8 90ED050A 		vldr.32	s0, [r0, #20]
 129 00cc D0ED038A 		vldr.32	s17, [r0, #12]
 130 00d0 39EE009A 		vadd.f32	s18, s18, s0
 131 00d4 D0ED069A 		vldr.32	s19, [r0, #24]
 132 00d8 78EEA99A 		vadd.f32	s19, s17, s19
 133 00dc B4EEC79A 		vcmpe.f32	s18, s14
 134 00e0 F1EE10FA 		vmrs	APSR_nzcv, FPSCR
 135 00e4 A8BF     		it	ge
 136 00e6 39EE479A 		vsubge.f32	s18, s18, s14
 137 00ea B7EE007A 		vmov.f32	s14, #1.0e+0
 138 00ee 80ED029A 		vstr.32	s18, [r0, #8]
 139 00f2 F4EEC79A 		vcmpe.f32	s19, s14
 140 00f6 F1EE10FA 		vmrs	APSR_nzcv, FPSCR
 141 00fa A8BF     		it	ge
 142 00fc 79EEC79A 		vsubge.f32	s19, s19, s14
 143 0100 C0ED039A 		vstr.32	s19, [r0, #12]
 144 0104 A1E7     		b	.L14
 145              	.L24:
 146 0106 00BF     		.align	2
 147              	.L23:
 148 0108 DB0FC940 		.word	1086918619
 150              		.section	.text._ZN7daisysp15VosimOscillator7SetFreqEf,"ax",%progbits
 151              		.align	1
 152              		.p2align 2,,3
 153              		.global	_ZN7daisysp15VosimOscillator7SetFreqEf
 154              		.syntax unified
 155              		.thumb
 156              		.thumb_func
 157              		.fpu fpv5-d16
 159              	_ZN7daisysp15VosimOscillator7SetFreqEf:
 160              		@ args = 0, pretend = 0, frame = 0
 161              		@ frame_needed = 0, uses_anonymous_args = 0
 162              		@ link register save eliminated.
 163 0000 D0ED006A 		vldr.32	s13, [r0]
 164 0004 B5EE007A 		vmov.f32	s14, #2.5e-1
 165 0008 C0EE267A 		vdiv.f32	s15, s0, s13
 166 000c F4EE477A 		vcmp.f32	s15, s14
 167 0010 F1EE10FA 		vmrs	APSR_nzcv, FPSCR
 168 0014 77FE277A 		vselgt.f32	s15, s14, s15
 169 0018 C0ED047A 		vstr.32	s15, [r0, #16]
 170 001c 7047     		bx	lr
 172 001e 00BF     		.section	.text._ZN7daisysp15VosimOscillator12SetForm1FreqEf,"ax",%progbits
 173              		.align	1
 174              		.p2align 2,,3
 175              		.global	_ZN7daisysp15VosimOscillator12SetForm1FreqEf
 176              		.syntax unified
 177              		.thumb
ARM GAS  C:\Users\pedro\AppData\Local\Temp\cc47Pz99.s 			page 4


 178              		.thumb_func
 179              		.fpu fpv5-d16
 181              	_ZN7daisysp15VosimOscillator12SetForm1FreqEf:
 182              		@ args = 0, pretend = 0, frame = 0
 183              		@ frame_needed = 0, uses_anonymous_args = 0
 184              		@ link register save eliminated.
 185 0000 D0ED006A 		vldr.32	s13, [r0]
 186 0004 B5EE007A 		vmov.f32	s14, #2.5e-1
 187 0008 C0EE267A 		vdiv.f32	s15, s0, s13
 188 000c F4EE477A 		vcmp.f32	s15, s14
 189 0010 F1EE10FA 		vmrs	APSR_nzcv, FPSCR
 190 0014 77FE277A 		vselgt.f32	s15, s14, s15
 191 0018 C0ED057A 		vstr.32	s15, [r0, #20]
 192 001c 7047     		bx	lr
 194 001e 00BF     		.section	.text._ZN7daisysp15VosimOscillator12SetForm2FreqEf,"ax",%progbits
 195              		.align	1
 196              		.p2align 2,,3
 197              		.global	_ZN7daisysp15VosimOscillator12SetForm2FreqEf
 198              		.syntax unified
 199              		.thumb
 200              		.thumb_func
 201              		.fpu fpv5-d16
 203              	_ZN7daisysp15VosimOscillator12SetForm2FreqEf:
 204              		@ args = 0, pretend = 0, frame = 0
 205              		@ frame_needed = 0, uses_anonymous_args = 0
 206              		@ link register save eliminated.
 207 0000 D0ED006A 		vldr.32	s13, [r0]
 208 0004 B5EE007A 		vmov.f32	s14, #2.5e-1
 209 0008 C0EE267A 		vdiv.f32	s15, s0, s13
 210 000c F4EE477A 		vcmp.f32	s15, s14
 211 0010 F1EE10FA 		vmrs	APSR_nzcv, FPSCR
 212 0014 77FE277A 		vselgt.f32	s15, s14, s15
 213 0018 C0ED067A 		vstr.32	s15, [r0, #24]
 214 001c 7047     		bx	lr
 216 001e 00BF     		.section	.text._ZN7daisysp15VosimOscillator8SetShapeEf,"ax",%progbits
 217              		.align	1
 218              		.p2align 2,,3
 219              		.global	_ZN7daisysp15VosimOscillator8SetShapeEf
 220              		.syntax unified
 221              		.thumb
 222              		.thumb_func
 223              		.fpu fpv5-d16
 225              	_ZN7daisysp15VosimOscillator8SetShapeEf:
 226              		@ args = 0, pretend = 0, frame = 0
 227              		@ frame_needed = 0, uses_anonymous_args = 0
 228              		@ link register save eliminated.
 229 0000 80ED070A 		vstr.32	s0, [r0, #28]
 230 0004 7047     		bx	lr
 232 0006 00BF     		.section	.text._ZN7daisysp15VosimOscillator4SineEf,"ax",%progbits
 233              		.align	1
 234              		.p2align 2,,3
 235              		.global	_ZN7daisysp15VosimOscillator4SineEf
 236              		.syntax unified
 237              		.thumb
 238              		.thumb_func
 239              		.fpu fpv5-d16
 241              	_ZN7daisysp15VosimOscillator4SineEf:
ARM GAS  C:\Users\pedro\AppData\Local\Temp\cc47Pz99.s 			page 5


 242              		@ args = 0, pretend = 0, frame = 0
 243              		@ frame_needed = 0, uses_anonymous_args = 0
 244              		@ link register save eliminated.
 245 0000 DFED027A 		vldr.32	s15, .L36
 246 0004 20EE270A 		vmul.f32	s0, s0, s15
 247 0008 FFF7FEBF 		b	sinf
 248              	.L37:
 249              		.align	2
 250              	.L36:
 251 000c DB0FC940 		.word	1086918619
 253              		.ident	"GCC: (GNU Arm Embedded Toolchain 10-2020-q4-major) 10.2.1 20201103 (release)"
ARM GAS  C:\Users\pedro\AppData\Local\Temp\cc47Pz99.s 			page 6

