ARM GAS  C:\Users\pedro\AppData\Local\Temp\ccs9bf6f.s 			page 1


   1              		.cpu cortex-m7
   2              		.eabi_attribute 28, 1
   3              		.eabi_attribute 20, 1
   4              		.eabi_attribute 21, 1
   5              		.eabi_attribute 23, 3
   6              		.eabi_attribute 24, 1
   7              		.eabi_attribute 25, 1
   8              		.eabi_attribute 26, 1
   9              		.eabi_attribute 30, 2
  10              		.eabi_attribute 34, 1
  11              		.eabi_attribute 18, 4
  12              		.file	"Reverb.cpp"
  13              		.text
  14              	.Ltext0:
  15              		.cfi_sections	.debug_frame
  16              		.section	.text._ZN5daisy8patch_sm12DaisyPatchSMD2Ev,"axG",%progbits,_ZN5daisy8patch_sm12DaisyPatch
  17              		.align	1
  18              		.p2align 2,,3
  19              		.weak	_ZN5daisy8patch_sm12DaisyPatchSMD2Ev
  20              		.arch armv7e-m
  21              		.syntax unified
  22              		.thumb
  23              		.thumb_func
  24              		.fpu fpv5-d16
  26              	_ZN5daisy8patch_sm12DaisyPatchSMD2Ev:
  27              	.LVL0:
  28              	.LFB2528:
  29              		.file 1 "libDaisy/src/daisy_patch_sm.h"
   1:libDaisy/src/daisy_patch_sm.h **** #pragma once
   2:libDaisy/src/daisy_patch_sm.h **** 
   3:libDaisy/src/daisy_patch_sm.h **** #include "daisy.h"
   4:libDaisy/src/daisy_patch_sm.h **** 
   5:libDaisy/src/daisy_patch_sm.h **** namespace daisy
   6:libDaisy/src/daisy_patch_sm.h **** {
   7:libDaisy/src/daisy_patch_sm.h **** namespace patch_sm
   8:libDaisy/src/daisy_patch_sm.h **** {
   9:libDaisy/src/daisy_patch_sm.h ****     /** Accessors for the Analog Controls. 
  10:libDaisy/src/daisy_patch_sm.h ****      *  These cover the 8x Bipolar CV inputs
  11:libDaisy/src/daisy_patch_sm.h ****      *  as well as the 4x 0-3V3 ADC inputs on
  12:libDaisy/src/daisy_patch_sm.h ****      *  the hardware 
  13:libDaisy/src/daisy_patch_sm.h ****      * 
  14:libDaisy/src/daisy_patch_sm.h ****      *  When reading a value with DaisyPatchSM::GetAdcValue()
  15:libDaisy/src/daisy_patch_sm.h ****      * 
  16:libDaisy/src/daisy_patch_sm.h ****      *  patch.GetAdcValue(patch_sm::CV_1);
  17:libDaisy/src/daisy_patch_sm.h ****      */
  18:libDaisy/src/daisy_patch_sm.h ****     enum
  19:libDaisy/src/daisy_patch_sm.h ****     {
  20:libDaisy/src/daisy_patch_sm.h ****         CV_1 = 0,
  21:libDaisy/src/daisy_patch_sm.h ****         CV_2,
  22:libDaisy/src/daisy_patch_sm.h ****         CV_3,
  23:libDaisy/src/daisy_patch_sm.h ****         CV_4,
  24:libDaisy/src/daisy_patch_sm.h ****         CV_5,
  25:libDaisy/src/daisy_patch_sm.h ****         CV_6,
  26:libDaisy/src/daisy_patch_sm.h ****         CV_7,
  27:libDaisy/src/daisy_patch_sm.h ****         CV_8,
  28:libDaisy/src/daisy_patch_sm.h ****         ADC_9,
  29:libDaisy/src/daisy_patch_sm.h ****         ADC_10,
ARM GAS  C:\Users\pedro\AppData\Local\Temp\ccs9bf6f.s 			page 2


  30:libDaisy/src/daisy_patch_sm.h ****         ADC_11,
  31:libDaisy/src/daisy_patch_sm.h ****         ADC_12,
  32:libDaisy/src/daisy_patch_sm.h ****         ADC_LAST,
  33:libDaisy/src/daisy_patch_sm.h ****     };
  34:libDaisy/src/daisy_patch_sm.h **** 
  35:libDaisy/src/daisy_patch_sm.h ****     /** Enum for addressing the CV Outputs via the WriteCvOut function. */
  36:libDaisy/src/daisy_patch_sm.h ****     enum
  37:libDaisy/src/daisy_patch_sm.h ****     {
  38:libDaisy/src/daisy_patch_sm.h ****         CV_OUT_BOTH = 0,
  39:libDaisy/src/daisy_patch_sm.h ****         CV_OUT_1,
  40:libDaisy/src/daisy_patch_sm.h ****         CV_OUT_2,
  41:libDaisy/src/daisy_patch_sm.h ****     };
  42:libDaisy/src/daisy_patch_sm.h **** 
  43:libDaisy/src/daisy_patch_sm.h **** 
  44:libDaisy/src/daisy_patch_sm.h ****     /** @brief Board support file for DaisyPatchSM hardware
  45:libDaisy/src/daisy_patch_sm.h ****      *  @author shensley
  46:libDaisy/src/daisy_patch_sm.h ****      *  @ingroup boards
  47:libDaisy/src/daisy_patch_sm.h ****      * 
  48:libDaisy/src/daisy_patch_sm.h ****      *  Daisy Patch SM is a complete Eurorack module DSP engine.
  49:libDaisy/src/daisy_patch_sm.h ****      *  Based on the Daisy Seed, with circuits added for 
  50:libDaisy/src/daisy_patch_sm.h ****      *  interfacing directly with eurorack modular synthesizers.
  51:libDaisy/src/daisy_patch_sm.h ****      */
  52:libDaisy/src/daisy_patch_sm.h ****     class DaisyPatchSM
  53:libDaisy/src/daisy_patch_sm.h ****     {
  54:libDaisy/src/daisy_patch_sm.h ****       public:
  55:libDaisy/src/daisy_patch_sm.h ****         /** Helper for mapping pins, and accessing them using the `GetPin` function */
  56:libDaisy/src/daisy_patch_sm.h ****         enum class PinBank
  57:libDaisy/src/daisy_patch_sm.h ****         {
  58:libDaisy/src/daisy_patch_sm.h ****             A,
  59:libDaisy/src/daisy_patch_sm.h ****             B,
  60:libDaisy/src/daisy_patch_sm.h ****             C,
  61:libDaisy/src/daisy_patch_sm.h ****             D
  62:libDaisy/src/daisy_patch_sm.h ****         };
  63:libDaisy/src/daisy_patch_sm.h **** 
  64:libDaisy/src/daisy_patch_sm.h ****         DaisyPatchSM() {}
  65:libDaisy/src/daisy_patch_sm.h ****         ~DaisyPatchSM() {}
  30              		.loc 1 65 9 view -0
  31              		.cfi_startproc
  32              		@ args = 0, pretend = 0, frame = 0
  33              		@ frame_needed = 0, uses_anonymous_args = 0
  34              		@ link register save eliminated.
  35              	.LBB393:
  36              	.LBI393:
  37              		.file 2 "libDaisy/src/hid/gatein.h"
   1:libDaisy/src/hid/gatein.h **** #pragma once
   2:libDaisy/src/hid/gatein.h **** #ifndef DSY_GATEIN_H
   3:libDaisy/src/hid/gatein.h **** #define DSY_GATEIN_H
   4:libDaisy/src/hid/gatein.h **** #include "per/gpio.h"
   5:libDaisy/src/hid/gatein.h **** 
   6:libDaisy/src/hid/gatein.h **** namespace daisy
   7:libDaisy/src/hid/gatein.h **** {
   8:libDaisy/src/hid/gatein.h **** /**
   9:libDaisy/src/hid/gatein.h ****    @brief Generic Class for handling gate inputs through GPIO.
  10:libDaisy/src/hid/gatein.h ****    @author Stephen Hensley
  11:libDaisy/src/hid/gatein.h ****    @date    March 2020
  12:libDaisy/src/hid/gatein.h ****    @ingroup controls
  13:libDaisy/src/hid/gatein.h **** */
ARM GAS  C:\Users\pedro\AppData\Local\Temp\ccs9bf6f.s 			page 3


  14:libDaisy/src/hid/gatein.h **** class GateIn
  15:libDaisy/src/hid/gatein.h **** {
  16:libDaisy/src/hid/gatein.h ****   public:
  17:libDaisy/src/hid/gatein.h ****     /** GateIn 
  18:libDaisy/src/hid/gatein.h ****     Constructor 
  19:libDaisy/src/hid/gatein.h ****     */
  20:libDaisy/src/hid/gatein.h ****     GateIn() {}
  21:libDaisy/src/hid/gatein.h ****     /** GateIn~
  22:libDaisy/src/hid/gatein.h ****     Destructor 
  23:libDaisy/src/hid/gatein.h ****     */
  24:libDaisy/src/hid/gatein.h ****     ~GateIn() {}
  38              		.loc 2 24 5 view .LVU1
  39              		.loc 2 24 5 is_stmt 0 view .LVU2
  40              	.LBE393:
  41              	.LBB394:
  42              	.LBI394:
  43              		.loc 2 24 5 is_stmt 1 view .LVU3
  44              		.loc 2 24 5 is_stmt 0 view .LVU4
  45              	.LBE394:
  46              	.LBB395:
  47              	.LBI395:
  48              		.file 3 "libDaisy/src/dev/codec_pcm3060.h"
   1:libDaisy/src/dev/codec_pcm3060.h **** #pragma once
   2:libDaisy/src/dev/codec_pcm3060.h **** #ifndef DSY_CODEC_PCM3060_H
   3:libDaisy/src/dev/codec_pcm3060.h **** #define DSY_CODEC_PCM3060_H
   4:libDaisy/src/dev/codec_pcm3060.h **** #include "per/i2c.h"
   5:libDaisy/src/dev/codec_pcm3060.h **** namespace daisy
   6:libDaisy/src/dev/codec_pcm3060.h **** {
   7:libDaisy/src/dev/codec_pcm3060.h **** /**
   8:libDaisy/src/dev/codec_pcm3060.h ****  * @brief Driver for the TI PCM3060 Audio Codec.
   9:libDaisy/src/dev/codec_pcm3060.h ****  * @addtogroup codec
  10:libDaisy/src/dev/codec_pcm3060.h ****  * 
  11:libDaisy/src/dev/codec_pcm3060.h ****  * For now this is a limited interface that uses I2C to communicate with the PCM3060
  12:libDaisy/src/dev/codec_pcm3060.h ****  * The device can also be accessed with SPI, which is not yet supported.
  13:libDaisy/src/dev/codec_pcm3060.h ****  * 
  14:libDaisy/src/dev/codec_pcm3060.h ****  * For now all registers are set to their defaults, and the Init function will 
  15:libDaisy/src/dev/codec_pcm3060.h ****  * perform a MRST and SRST before setting the format to 24bit LJ, and disabling 
  16:libDaisy/src/dev/codec_pcm3060.h ****  * power save for both the ADC and DAC.
  17:libDaisy/src/dev/codec_pcm3060.h ****  *
  18:libDaisy/src/dev/codec_pcm3060.h ****  */
  19:libDaisy/src/dev/codec_pcm3060.h **** class Pcm3060
  20:libDaisy/src/dev/codec_pcm3060.h **** {
  21:libDaisy/src/dev/codec_pcm3060.h ****   public:
  22:libDaisy/src/dev/codec_pcm3060.h ****     enum class Result
  23:libDaisy/src/dev/codec_pcm3060.h ****     {
  24:libDaisy/src/dev/codec_pcm3060.h ****         OK,
  25:libDaisy/src/dev/codec_pcm3060.h ****         ERR,
  26:libDaisy/src/dev/codec_pcm3060.h ****     };
  27:libDaisy/src/dev/codec_pcm3060.h **** 
  28:libDaisy/src/dev/codec_pcm3060.h ****     Pcm3060() {}
  29:libDaisy/src/dev/codec_pcm3060.h ****     ~Pcm3060() {}
  49              		.loc 3 29 5 is_stmt 1 view .LVU5
  50              		.loc 3 29 5 is_stmt 0 view .LVU6
  51              	.LBE395:
  52              	.LBB396:
  53              	.LBI396:
  54              		.file 4 "libDaisy/src/hid/usb.h"
ARM GAS  C:\Users\pedro\AppData\Local\Temp\ccs9bf6f.s 			page 4


   1:libDaisy/src/hid/usb.h **** #pragma once
   2:libDaisy/src/hid/usb.h **** #ifndef DSY_HID_USB_H
   3:libDaisy/src/hid/usb.h **** #define DSY_HID_USB_H
   4:libDaisy/src/hid/usb.h **** #include <stdint.h>
   5:libDaisy/src/hid/usb.h **** #include <stdlib.h>
   6:libDaisy/src/hid/usb.h **** 
   7:libDaisy/src/hid/usb.h **** namespace daisy
   8:libDaisy/src/hid/usb.h **** /** @addtogroup human_interface
   9:libDaisy/src/hid/usb.h ****     @{
  10:libDaisy/src/hid/usb.h **** */
  11:libDaisy/src/hid/usb.h **** 
  12:libDaisy/src/hid/usb.h **** {
  13:libDaisy/src/hid/usb.h **** /** 
  14:libDaisy/src/hid/usb.h ****     @brief Interface for initializing and using the USB Peripherals on the daisy
  15:libDaisy/src/hid/usb.h ****     @author Stephen Hensley
  16:libDaisy/src/hid/usb.h ****     @date December 2019
  17:libDaisy/src/hid/usb.h **** */
  18:libDaisy/src/hid/usb.h **** class UsbHandle
  19:libDaisy/src/hid/usb.h **** {
  20:libDaisy/src/hid/usb.h ****   public:
  21:libDaisy/src/hid/usb.h ****     /** Return values for USBHandle Functions */
  22:libDaisy/src/hid/usb.h ****     enum class Result
  23:libDaisy/src/hid/usb.h ****     {
  24:libDaisy/src/hid/usb.h ****         OK,
  25:libDaisy/src/hid/usb.h ****         ERR,
  26:libDaisy/src/hid/usb.h ****     };
  27:libDaisy/src/hid/usb.h **** 
  28:libDaisy/src/hid/usb.h ****     /** Specified which of the two USB Peripherals to initialize. */
  29:libDaisy/src/hid/usb.h ****     enum UsbPeriph
  30:libDaisy/src/hid/usb.h ****     {
  31:libDaisy/src/hid/usb.h ****         FS_INTERNAL, /**< Internal pin */
  32:libDaisy/src/hid/usb.h ****         FS_EXTERNAL, /**< FS External D+ pin is Pin 38 (GPIO32). FS External D- pin is Pin 37 (GPIO
  33:libDaisy/src/hid/usb.h ****         FS_BOTH,     /**< Both */
  34:libDaisy/src/hid/usb.h ****     };
  35:libDaisy/src/hid/usb.h **** 
  36:libDaisy/src/hid/usb.h **** 
  37:libDaisy/src/hid/usb.h ****     /** Function called upon reception of a buffer */
  38:libDaisy/src/hid/usb.h ****     typedef void (*ReceiveCallback)(uint8_t* buff, uint32_t* len);
  39:libDaisy/src/hid/usb.h **** 
  40:libDaisy/src/hid/usb.h ****     UsbHandle() {}
  41:libDaisy/src/hid/usb.h **** 
  42:libDaisy/src/hid/usb.h ****     ~UsbHandle() {}
  55              		.loc 4 42 5 is_stmt 1 view .LVU7
  56              		.loc 4 42 5 is_stmt 0 view .LVU8
  57              	.LBE396:
  58              	.LBB397:
  59              	.LBI397:
  60              		.file 5 "libDaisy/src/per/adc.h"
   1:libDaisy/src/per/adc.h **** #pragma once
   2:libDaisy/src/per/adc.h **** #ifndef DSY_ADC_H
   3:libDaisy/src/per/adc.h **** #define DSY_ADC_H /**< Macro */
   4:libDaisy/src/per/adc.h **** #include <stdint.h>
   5:libDaisy/src/per/adc.h **** #include <stdlib.h>
   6:libDaisy/src/per/adc.h **** #include "daisy_core.h"
   7:libDaisy/src/per/adc.h **** #include "per/gpio.h"
   8:libDaisy/src/per/adc.h **** 
   9:libDaisy/src/per/adc.h **** #define DSY_ADC_MAX_CHANNELS 16 /**< Maximum number of ADC channels */
ARM GAS  C:\Users\pedro\AppData\Local\Temp\ccs9bf6f.s 			page 5


  10:libDaisy/src/per/adc.h **** 
  11:libDaisy/src/per/adc.h **** namespace daisy
  12:libDaisy/src/per/adc.h **** {
  13:libDaisy/src/per/adc.h **** /** @addtogroup per_analog
  14:libDaisy/src/per/adc.h ****     @{
  15:libDaisy/src/per/adc.h **** */
  16:libDaisy/src/per/adc.h **** 
  17:libDaisy/src/per/adc.h **** /* While there may not be many configuration options here,
  18:libDaisy/src/per/adc.h **** using a struct like this allows us to add more configuration
  19:libDaisy/src/per/adc.h **** later without breaking existing functionality.
  20:libDaisy/src/per/adc.h **** */
  21:libDaisy/src/per/adc.h **** 
  22:libDaisy/src/per/adc.h **** /** @brief   Configuration Structure for an ADC Channel 
  23:libDaisy/src/per/adc.h ****  *  @details This can be used to configure a a single input, 
  24:libDaisy/src/per/adc.h ****  *           or a multiplexed input, allowing up to 8 inputs on 
  25:libDaisy/src/per/adc.h ****  *           one channel.
  26:libDaisy/src/per/adc.h ****  *  @note    Sharing data lines to multiple muxes _is_ possible, but
  27:libDaisy/src/per/adc.h ****  *           each channel sharing data lines must be set to the maximum
  28:libDaisy/src/per/adc.h ****  *           number of channels, even if some multiplexers have fewer
  29:libDaisy/src/per/adc.h ****  *           inputs connected.
  30:libDaisy/src/per/adc.h **** */
  31:libDaisy/src/per/adc.h **** struct AdcChannelConfig
  32:libDaisy/src/per/adc.h **** {
  33:libDaisy/src/per/adc.h ****     /** Which pin to use for multiplexing */
  34:libDaisy/src/per/adc.h ****     enum MuxPin
  35:libDaisy/src/per/adc.h ****     {
  36:libDaisy/src/per/adc.h ****         MUX_SEL_0,    /**< & */
  37:libDaisy/src/per/adc.h ****         MUX_SEL_1,    /**< & */
  38:libDaisy/src/per/adc.h ****         MUX_SEL_2,    /**< & */
  39:libDaisy/src/per/adc.h ****         MUX_SEL_LAST, /**< & */
  40:libDaisy/src/per/adc.h ****     };
  41:libDaisy/src/per/adc.h **** 
  42:libDaisy/src/per/adc.h ****     /** Initializes a single ADC pin as an ADC. 
  43:libDaisy/src/per/adc.h ****     \param pin Pin to init.
  44:libDaisy/src/per/adc.h ****      */
  45:libDaisy/src/per/adc.h ****     void InitSingle(dsy_gpio_pin pin);
  46:libDaisy/src/per/adc.h **** 
  47:libDaisy/src/per/adc.h ****     /** 
  48:libDaisy/src/per/adc.h ****     Initializes a single ADC pin as a Multiplexed ADC.
  49:libDaisy/src/per/adc.h ****     Requires a CD405X Multiplexer connected to the pin.
  50:libDaisy/src/per/adc.h ****     You only need to supply the mux pins that are required,
  51:libDaisy/src/per/adc.h ****     e.g. a 4052 mux would only require mux_0 and mux_1.
  52:libDaisy/src/per/adc.h ****     Internal Callbacks handle the pin addressing.
  53:libDaisy/src/per/adc.h ****     \param mux_channels must be 1-8
  54:libDaisy/src/per/adc.h ****     \param mux_0 First mux pin
  55:libDaisy/src/per/adc.h ****     \param mux_1 Second mux pin
  56:libDaisy/src/per/adc.h ****     \param mux_2 Third mux pin
  57:libDaisy/src/per/adc.h ****     \param adc_pin &
  58:libDaisy/src/per/adc.h ****     */
  59:libDaisy/src/per/adc.h ****     void InitMux(dsy_gpio_pin adc_pin,
  60:libDaisy/src/per/adc.h ****                  size_t       mux_channels,
  61:libDaisy/src/per/adc.h ****                  dsy_gpio_pin mux_0,
  62:libDaisy/src/per/adc.h ****                  dsy_gpio_pin mux_1 = {DSY_GPIOX, 0},
  63:libDaisy/src/per/adc.h ****                  dsy_gpio_pin mux_2 = {DSY_GPIOX, 0});
  64:libDaisy/src/per/adc.h **** 
  65:libDaisy/src/per/adc.h ****     dsy_gpio pin_;                   /**< & */
  66:libDaisy/src/per/adc.h ****     dsy_gpio mux_pin_[MUX_SEL_LAST]; /**< & */
ARM GAS  C:\Users\pedro\AppData\Local\Temp\ccs9bf6f.s 			page 6


  67:libDaisy/src/per/adc.h ****     uint8_t  mux_channels_;          /**< & */
  68:libDaisy/src/per/adc.h **** };
  69:libDaisy/src/per/adc.h **** 
  70:libDaisy/src/per/adc.h **** /**
  71:libDaisy/src/per/adc.h ****    @brief Handler for analog to digital conversion
  72:libDaisy/src/per/adc.h **** */
  73:libDaisy/src/per/adc.h **** class AdcHandle
  74:libDaisy/src/per/adc.h **** {
  75:libDaisy/src/per/adc.h ****   public:
  76:libDaisy/src/per/adc.h ****     /** Supported oversampling amounts */
  77:libDaisy/src/per/adc.h ****     enum OverSampling
  78:libDaisy/src/per/adc.h ****     {
  79:libDaisy/src/per/adc.h ****         OVS_NONE, /**< & */
  80:libDaisy/src/per/adc.h ****         OVS_4,    /**< & */
  81:libDaisy/src/per/adc.h ****         OVS_8,    /**< & */
  82:libDaisy/src/per/adc.h ****         OVS_16,   /**< & */
  83:libDaisy/src/per/adc.h ****         OVS_32,   /**< & */
  84:libDaisy/src/per/adc.h ****         OVS_64,   /**< & */
  85:libDaisy/src/per/adc.h ****         OVS_128,  /**< & */
  86:libDaisy/src/per/adc.h ****         OVS_256,  /**< & */
  87:libDaisy/src/per/adc.h ****         OVS_512,  /**< & */
  88:libDaisy/src/per/adc.h ****         OVS_1024, /**< & */
  89:libDaisy/src/per/adc.h ****         OVS_LAST, /**< & */
  90:libDaisy/src/per/adc.h ****     };
  91:libDaisy/src/per/adc.h **** 
  92:libDaisy/src/per/adc.h ****     AdcHandle() {}
  93:libDaisy/src/per/adc.h ****     ~AdcHandle() {}
  61              		.loc 5 93 5 is_stmt 1 view .LVU9
  62              		.loc 5 93 5 is_stmt 0 view .LVU10
  63              	.LBE397:
  64              	.LBB398:
  65              	.LBI398:
  66              		.file 6 "libDaisy/src/hid/audio.h"
   1:libDaisy/src/hid/audio.h **** #ifndef DSY_AUDIO_H
   2:libDaisy/src/hid/audio.h **** #define DSY_AUDIO_H /**< & */
   3:libDaisy/src/hid/audio.h **** 
   4:libDaisy/src/hid/audio.h **** #include "per/sai.h"
   5:libDaisy/src/hid/audio.h **** 
   6:libDaisy/src/hid/audio.h **** namespace daisy
   7:libDaisy/src/hid/audio.h **** {
   8:libDaisy/src/hid/audio.h **** /** @brief Audio Engine Handle
   9:libDaisy/src/hid/audio.h ****  *  @ingroup audio 
  10:libDaisy/src/hid/audio.h ****  *  @details This class allows for higher level access to an audio engine.
  11:libDaisy/src/hid/audio.h ****  *           If you're using a SOM like the DaisySeed or DaisyPatchSM (or any 
  12:libDaisy/src/hid/audio.h ****  *            board that includes one of those objects) then the intialization
  13:libDaisy/src/hid/audio.h ****  *            is already taken  care of.
  14:libDaisy/src/hid/audio.h ****  *           If you're setting up your own custom hardware, or need to make changes
  15:libDaisy/src/hid/audio.h ****  *           you will have to take the following steps:
  16:libDaisy/src/hid/audio.h ****  *             1. Create and Initialize an SaiHandle or two depending on your requirements
  17:libDaisy/src/hid/audio.h ****  *             2. Initialize the Audio Handle with the desired settings and the Initialized SaiHand
  18:libDaisy/src/hid/audio.h ****  *             3. If the connected codec requires special configuration or initialization, do so
  19:libDaisy/src/hid/audio.h ****  *             4. Write a callback method using either the AudioCallback or the InterleavingAudioCa
  20:libDaisy/src/hid/audio.h ****  *             5. Start the Audio using one of the StartAudio function
  21:libDaisy/src/hid/audio.h ****  */
  22:libDaisy/src/hid/audio.h **** class AudioHandle
  23:libDaisy/src/hid/audio.h **** {
  24:libDaisy/src/hid/audio.h ****   public:
ARM GAS  C:\Users\pedro\AppData\Local\Temp\ccs9bf6f.s 			page 7


  25:libDaisy/src/hid/audio.h ****     /** Manually configurable details about the Audio Engine */
  26:libDaisy/src/hid/audio.h ****     /** TODO: Figure out how to get samplerate in here. */
  27:libDaisy/src/hid/audio.h ****     struct Config
  28:libDaisy/src/hid/audio.h ****     {
  29:libDaisy/src/hid/audio.h ****         /** number of samples to process per callback */
  30:libDaisy/src/hid/audio.h ****         size_t blocksize;
  31:libDaisy/src/hid/audio.h **** 
  32:libDaisy/src/hid/audio.h ****         /**< Sample rate of audio */
  33:libDaisy/src/hid/audio.h ****         SaiHandle::Config::SampleRate samplerate;
  34:libDaisy/src/hid/audio.h **** 
  35:libDaisy/src/hid/audio.h ****         /** factor for adjustment before and after callback for hardware that may have extra headro
  36:libDaisy/src/hid/audio.h ****         float postgain;
  37:libDaisy/src/hid/audio.h **** 
  38:libDaisy/src/hid/audio.h ****         /** factor for additional one-sided compensation to audio path for hardware that may
  39:libDaisy/src/hid/audio.h ****          *  have unequal input/output ranges
  40:libDaisy/src/hid/audio.h ****          */
  41:libDaisy/src/hid/audio.h ****         float output_compensation;
  42:libDaisy/src/hid/audio.h **** 
  43:libDaisy/src/hid/audio.h ****         /** Sets default values for config struct */
  44:libDaisy/src/hid/audio.h ****         Config()
  45:libDaisy/src/hid/audio.h ****         : blocksize(48),
  46:libDaisy/src/hid/audio.h ****           samplerate(SaiHandle::Config::SampleRate::SAI_48KHZ),
  47:libDaisy/src/hid/audio.h ****           postgain(1.f),
  48:libDaisy/src/hid/audio.h ****           output_compensation(1.f)
  49:libDaisy/src/hid/audio.h ****         {
  50:libDaisy/src/hid/audio.h ****         }
  51:libDaisy/src/hid/audio.h ****     };
  52:libDaisy/src/hid/audio.h **** 
  53:libDaisy/src/hid/audio.h ****     enum class Result
  54:libDaisy/src/hid/audio.h ****     {
  55:libDaisy/src/hid/audio.h ****         OK,
  56:libDaisy/src/hid/audio.h ****         ERR,
  57:libDaisy/src/hid/audio.h ****     };
  58:libDaisy/src/hid/audio.h **** 
  59:libDaisy/src/hid/audio.h ****     /** Non-Interleaving input buffer
  60:libDaisy/src/hid/audio.h ****      * Buffer arranged by float[chn][sample] 
  61:libDaisy/src/hid/audio.h ****      * const so that the user can't modify the input
  62:libDaisy/src/hid/audio.h ****      */
  63:libDaisy/src/hid/audio.h ****     typedef const float* const* InputBuffer;
  64:libDaisy/src/hid/audio.h **** 
  65:libDaisy/src/hid/audio.h ****     /** Non-Interleaving output buffer
  66:libDaisy/src/hid/audio.h ****      * Arranged by float[chn][sample] 
  67:libDaisy/src/hid/audio.h ****      */
  68:libDaisy/src/hid/audio.h ****     typedef float** OutputBuffer;
  69:libDaisy/src/hid/audio.h **** 
  70:libDaisy/src/hid/audio.h ****     /** Type for a Non-Interleaving audio callback 
  71:libDaisy/src/hid/audio.h ****      * Non-Interleaving audio callbacks in daisy will be of this type
  72:libDaisy/src/hid/audio.h ****      */
  73:libDaisy/src/hid/audio.h ****     typedef void (*AudioCallback)(InputBuffer  in,
  74:libDaisy/src/hid/audio.h ****                                   OutputBuffer out,
  75:libDaisy/src/hid/audio.h ****                                   size_t       size);
  76:libDaisy/src/hid/audio.h **** 
  77:libDaisy/src/hid/audio.h ****     /** Interleaving Input buffer
  78:libDaisy/src/hid/audio.h ****      ** audio is prepared as { L0, R0, L1, R1, . . . LN, RN }]
  79:libDaisy/src/hid/audio.h ****      ** this is const, as the user shouldn't modify it
  80:libDaisy/src/hid/audio.h ****     */
  81:libDaisy/src/hid/audio.h ****     typedef const float* InterleavingInputBuffer;
ARM GAS  C:\Users\pedro\AppData\Local\Temp\ccs9bf6f.s 			page 8


  82:libDaisy/src/hid/audio.h **** 
  83:libDaisy/src/hid/audio.h ****     /** Interleaving Output buffer 
  84:libDaisy/src/hid/audio.h ****      ** audio is prepared as { L0, R0, L1, R1, . . . LN, RN }
  85:libDaisy/src/hid/audio.h ****     */
  86:libDaisy/src/hid/audio.h ****     typedef float* InterleavingOutputBuffer;
  87:libDaisy/src/hid/audio.h **** 
  88:libDaisy/src/hid/audio.h ****     /** Interleaving Audio Callback 
  89:libDaisy/src/hid/audio.h ****      * Interleaving audio callbacks in daisy must be of this type
  90:libDaisy/src/hid/audio.h ****      */
  91:libDaisy/src/hid/audio.h ****     typedef void (*InterleavingAudioCallback)(InterleavingInputBuffer  in,
  92:libDaisy/src/hid/audio.h ****                                               InterleavingOutputBuffer out,
  93:libDaisy/src/hid/audio.h ****                                               size_t                   size);
  94:libDaisy/src/hid/audio.h **** 
  95:libDaisy/src/hid/audio.h ****     AudioHandle() : pimpl_(nullptr) {}
  96:libDaisy/src/hid/audio.h ****     ~AudioHandle() {}
  67              		.loc 6 96 5 is_stmt 1 view .LVU11
  68              		.loc 6 96 5 is_stmt 0 view .LVU12
  69              	.LBE398:
  70              	.LBB399:
  71              	.LBI399:
  72              		.file 7 "libDaisy/src/sys/system.h"
   1:libDaisy/src/sys/system.h **** #ifndef DSY_SYSTEM_H
   2:libDaisy/src/sys/system.h **** #define DSY_SYSTEM_H
   3:libDaisy/src/sys/system.h **** 
   4:libDaisy/src/sys/system.h **** #ifndef UNIT_TEST // for unit tests, a dummy implementation is provided below
   5:libDaisy/src/sys/system.h **** 
   6:libDaisy/src/sys/system.h **** #include <cstdint>
   7:libDaisy/src/sys/system.h **** #include "per/tim.h"
   8:libDaisy/src/sys/system.h **** 
   9:libDaisy/src/sys/system.h **** namespace daisy
  10:libDaisy/src/sys/system.h **** {
  11:libDaisy/src/sys/system.h **** /** A handle for interacting with the Core System. 
  12:libDaisy/src/sys/system.h ****  ** This includes the Clock tree, MPU, global DMA initialization,
  13:libDaisy/src/sys/system.h ****  ** cache handling, and any other necessary global initiailzation
  14:libDaisy/src/sys/system.h ****  **
  15:libDaisy/src/sys/system.h ****  ** @author shensley
  16:libDaisy/src/sys/system.h ****  ** @ingroup system
  17:libDaisy/src/sys/system.h ****  */
  18:libDaisy/src/sys/system.h **** class System
  19:libDaisy/src/sys/system.h **** {
  20:libDaisy/src/sys/system.h ****   public:
  21:libDaisy/src/sys/system.h ****     /** Contains settings for initializing the System */
  22:libDaisy/src/sys/system.h ****     struct Config
  23:libDaisy/src/sys/system.h ****     {
  24:libDaisy/src/sys/system.h ****         /** Specifies the system clock frequency that feeds APB/AHB clocks, etc. */
  25:libDaisy/src/sys/system.h ****         enum class SysClkFreq
  26:libDaisy/src/sys/system.h ****         {
  27:libDaisy/src/sys/system.h ****             FREQ_400MHZ,
  28:libDaisy/src/sys/system.h ****             FREQ_480MHZ,
  29:libDaisy/src/sys/system.h ****         };
  30:libDaisy/src/sys/system.h **** 
  31:libDaisy/src/sys/system.h ****         /** Method to call on the struct to set to defaults
  32:libDaisy/src/sys/system.h ****          ** CPU Freq set to 400MHz
  33:libDaisy/src/sys/system.h ****          ** Cache Enabled 
  34:libDaisy/src/sys/system.h ****          ** */
  35:libDaisy/src/sys/system.h ****         void Defaults()
  36:libDaisy/src/sys/system.h ****         {
ARM GAS  C:\Users\pedro\AppData\Local\Temp\ccs9bf6f.s 			page 9


  37:libDaisy/src/sys/system.h ****             cpu_freq    = SysClkFreq::FREQ_400MHZ;
  38:libDaisy/src/sys/system.h ****             use_dcache  = true;
  39:libDaisy/src/sys/system.h ****             use_icache  = true;
  40:libDaisy/src/sys/system.h ****             skip_clocks = false;
  41:libDaisy/src/sys/system.h ****         }
  42:libDaisy/src/sys/system.h **** 
  43:libDaisy/src/sys/system.h ****         /** Method to call on the struct to set to boost mode:
  44:libDaisy/src/sys/system.h ****          ** CPU Freq set to 480MHz
  45:libDaisy/src/sys/system.h ****          ** Cache Enabled 
  46:libDaisy/src/sys/system.h ****          ** */
  47:libDaisy/src/sys/system.h ****         void Boost()
  48:libDaisy/src/sys/system.h ****         {
  49:libDaisy/src/sys/system.h ****             cpu_freq    = SysClkFreq::FREQ_480MHZ;
  50:libDaisy/src/sys/system.h ****             use_dcache  = true;
  51:libDaisy/src/sys/system.h ****             use_icache  = true;
  52:libDaisy/src/sys/system.h ****             skip_clocks = false;
  53:libDaisy/src/sys/system.h ****         }
  54:libDaisy/src/sys/system.h **** 
  55:libDaisy/src/sys/system.h ****         SysClkFreq cpu_freq;
  56:libDaisy/src/sys/system.h ****         bool       use_dcache;
  57:libDaisy/src/sys/system.h ****         bool       use_icache;
  58:libDaisy/src/sys/system.h ****         bool       skip_clocks;
  59:libDaisy/src/sys/system.h ****     };
  60:libDaisy/src/sys/system.h **** 
  61:libDaisy/src/sys/system.h ****     /** Describes the different regions of memory available to the Daisy
  62:libDaisy/src/sys/system.h ****      * 
  63:libDaisy/src/sys/system.h ****      */
  64:libDaisy/src/sys/system.h ****     enum MemoryRegion
  65:libDaisy/src/sys/system.h ****     {
  66:libDaisy/src/sys/system.h ****         INTERNAL_FLASH = 0,
  67:libDaisy/src/sys/system.h ****         ITCMRAM,
  68:libDaisy/src/sys/system.h ****         DTCMRAM,
  69:libDaisy/src/sys/system.h ****         SRAM_D1,
  70:libDaisy/src/sys/system.h ****         SRAM_D2,
  71:libDaisy/src/sys/system.h ****         SRAM_D3,
  72:libDaisy/src/sys/system.h ****         SDRAM,
  73:libDaisy/src/sys/system.h ****         QSPI,
  74:libDaisy/src/sys/system.h ****         INVALID_ADDRESS,
  75:libDaisy/src/sys/system.h ****     };
  76:libDaisy/src/sys/system.h **** 
  77:libDaisy/src/sys/system.h ****     System() {}
  78:libDaisy/src/sys/system.h ****     ~System() {}
  73              		.loc 7 78 5 is_stmt 1 view .LVU13
  74              		.loc 7 78 5 is_stmt 0 view .LVU14
  75              	.LBE399:
  76              		.loc 1 65 26 view .LVU15
  77 0000 7047     		bx	lr
  78              		.cfi_endproc
  79              	.LFE2528:
  81              		.weak	_ZN5daisy8patch_sm12DaisyPatchSMD1Ev
  82              		.thumb_set _ZN5daisy8patch_sm12DaisyPatchSMD1Ev,_ZN5daisy8patch_sm12DaisyPatchSMD2Ev
  83 0002 00BF     		.section	.text._ZN5rings6ReverbD2Ev,"axG",%progbits,_ZN5rings6ReverbD5Ev,comdat
  84              		.align	1
  85              		.p2align 2,,3
  86              		.weak	_ZN5rings6ReverbD2Ev
  87              		.syntax unified
  88              		.thumb
ARM GAS  C:\Users\pedro\AppData\Local\Temp\ccs9bf6f.s 			page 10


  89              		.thumb_func
  90              		.fpu fpv5-d16
  92              	_ZN5rings6ReverbD2Ev:
  93              	.LVL1:
  94              	.LFB4838:
  95              		.file 8 "./eurorack/rings/dsp/fx/reverb.h"
   1:./eurorack/rings/dsp/fx/reverb.h **** // Copyright 2014 Emilie Gillet.
   2:./eurorack/rings/dsp/fx/reverb.h **** //
   3:./eurorack/rings/dsp/fx/reverb.h **** // Author: Emilie Gillet (emilie.o.gillet@gmail.com)
   4:./eurorack/rings/dsp/fx/reverb.h **** //
   5:./eurorack/rings/dsp/fx/reverb.h **** // Permission is hereby granted, free of charge, to any person obtaining a copy
   6:./eurorack/rings/dsp/fx/reverb.h **** // of this software and associated documentation files (the "Software"), to deal
   7:./eurorack/rings/dsp/fx/reverb.h **** // in the Software without restriction, including without limitation the rights
   8:./eurorack/rings/dsp/fx/reverb.h **** // to use, copy, modify, merge, publish, distribute, sublicense, and/or sell
   9:./eurorack/rings/dsp/fx/reverb.h **** // copies of the Software, and to permit persons to whom the Software is
  10:./eurorack/rings/dsp/fx/reverb.h **** // furnished to do so, subject to the following conditions:
  11:./eurorack/rings/dsp/fx/reverb.h **** // 
  12:./eurorack/rings/dsp/fx/reverb.h **** // The above copyright notice and this permission notice shall be included in
  13:./eurorack/rings/dsp/fx/reverb.h **** // all copies or substantial portions of the Software.
  14:./eurorack/rings/dsp/fx/reverb.h **** // 
  15:./eurorack/rings/dsp/fx/reverb.h **** // THE SOFTWARE IS PROVIDED "AS IS", WITHOUT WARRANTY OF ANY KIND, EXPRESS OR
  16:./eurorack/rings/dsp/fx/reverb.h **** // IMPLIED, INCLUDING BUT NOT LIMITED TO THE WARRANTIES OF MERCHANTABILITY,
  17:./eurorack/rings/dsp/fx/reverb.h **** // FITNESS FOR A PARTICULAR PURPOSE AND NONINFRINGEMENT. IN NO EVENT SHALL THE
  18:./eurorack/rings/dsp/fx/reverb.h **** // AUTHORS OR COPYRIGHT HOLDERS BE LIABLE FOR ANY CLAIM, DAMAGES OR OTHER
  19:./eurorack/rings/dsp/fx/reverb.h **** // LIABILITY, WHETHER IN AN ACTION OF CONTRACT, TORT OR OTHERWISE, ARISING FROM,
  20:./eurorack/rings/dsp/fx/reverb.h **** // OUT OF OR IN CONNECTION WITH THE SOFTWARE OR THE USE OR OTHER DEALINGS IN
  21:./eurorack/rings/dsp/fx/reverb.h **** // THE SOFTWARE.
  22:./eurorack/rings/dsp/fx/reverb.h **** // 
  23:./eurorack/rings/dsp/fx/reverb.h **** // See http://creativecommons.org/licenses/MIT/ for more information.
  24:./eurorack/rings/dsp/fx/reverb.h **** //
  25:./eurorack/rings/dsp/fx/reverb.h **** // -----------------------------------------------------------------------------
  26:./eurorack/rings/dsp/fx/reverb.h **** //
  27:./eurorack/rings/dsp/fx/reverb.h **** // Reverb.
  28:./eurorack/rings/dsp/fx/reverb.h **** 
  29:./eurorack/rings/dsp/fx/reverb.h **** #ifndef RINGS_DSP_FX_REVERB_H_
  30:./eurorack/rings/dsp/fx/reverb.h **** #define RINGS_DSP_FX_REVERB_H_
  31:./eurorack/rings/dsp/fx/reverb.h **** 
  32:./eurorack/rings/dsp/fx/reverb.h **** #include "stmlib/stmlib.h"
  33:./eurorack/rings/dsp/fx/reverb.h **** 
  34:./eurorack/rings/dsp/fx/reverb.h **** #include "rings/dsp/fx/fx_engine.h"
  35:./eurorack/rings/dsp/fx/reverb.h **** 
  36:./eurorack/rings/dsp/fx/reverb.h **** namespace rings {
  37:./eurorack/rings/dsp/fx/reverb.h **** 
  38:./eurorack/rings/dsp/fx/reverb.h **** class Reverb {
  39:./eurorack/rings/dsp/fx/reverb.h ****  public:
  40:./eurorack/rings/dsp/fx/reverb.h ****   Reverb() { }
  41:./eurorack/rings/dsp/fx/reverb.h ****   ~Reverb() { }
  96              		.loc 8 41 3 is_stmt 1 view -0
  97              		.cfi_startproc
  98              		@ args = 0, pretend = 0, frame = 0
  99              		@ frame_needed = 0, uses_anonymous_args = 0
 100              		@ link register save eliminated.
 101              	.LBB400:
 102              	.LBI400:
 103              		.file 9 "./eurorack/rings/dsp/fx/fx_engine.h"
   1:./eurorack/rings/dsp/fx/fx_engine.h **** // Copyright 2014 Emilie Gillet.
   2:./eurorack/rings/dsp/fx/fx_engine.h **** //
ARM GAS  C:\Users\pedro\AppData\Local\Temp\ccs9bf6f.s 			page 11


   3:./eurorack/rings/dsp/fx/fx_engine.h **** // Author: Emilie Gillet (emilie.o.gillet@gmail.com)
   4:./eurorack/rings/dsp/fx/fx_engine.h **** //
   5:./eurorack/rings/dsp/fx/fx_engine.h **** // Permission is hereby granted, free of charge, to any person obtaining a copy
   6:./eurorack/rings/dsp/fx/fx_engine.h **** // of this software and associated documentation files (the "Software"), to deal
   7:./eurorack/rings/dsp/fx/fx_engine.h **** // in the Software without restriction, including without limitation the rights
   8:./eurorack/rings/dsp/fx/fx_engine.h **** // to use, copy, modify, merge, publish, distribute, sublicense, and/or sell
   9:./eurorack/rings/dsp/fx/fx_engine.h **** // copies of the Software, and to permit persons to whom the Software is
  10:./eurorack/rings/dsp/fx/fx_engine.h **** // furnished to do so, subject to the following conditions:
  11:./eurorack/rings/dsp/fx/fx_engine.h **** // 
  12:./eurorack/rings/dsp/fx/fx_engine.h **** // The above copyright notice and this permission notice shall be included in
  13:./eurorack/rings/dsp/fx/fx_engine.h **** // all copies or substantial portions of the Software.
  14:./eurorack/rings/dsp/fx/fx_engine.h **** // 
  15:./eurorack/rings/dsp/fx/fx_engine.h **** // THE SOFTWARE IS PROVIDED "AS IS", WITHOUT WARRANTY OF ANY KIND, EXPRESS OR
  16:./eurorack/rings/dsp/fx/fx_engine.h **** // IMPLIED, INCLUDING BUT NOT LIMITED TO THE WARRANTIES OF MERCHANTABILITY,
  17:./eurorack/rings/dsp/fx/fx_engine.h **** // FITNESS FOR A PARTICULAR PURPOSE AND NONINFRINGEMENT. IN NO EVENT SHALL THE
  18:./eurorack/rings/dsp/fx/fx_engine.h **** // AUTHORS OR COPYRIGHT HOLDERS BE LIABLE FOR ANY CLAIM, DAMAGES OR OTHER
  19:./eurorack/rings/dsp/fx/fx_engine.h **** // LIABILITY, WHETHER IN AN ACTION OF CONTRACT, TORT OR OTHERWISE, ARISING FROM,
  20:./eurorack/rings/dsp/fx/fx_engine.h **** // OUT OF OR IN CONNECTION WITH THE SOFTWARE OR THE USE OR OTHER DEALINGS IN
  21:./eurorack/rings/dsp/fx/fx_engine.h **** // THE SOFTWARE.
  22:./eurorack/rings/dsp/fx/fx_engine.h **** // 
  23:./eurorack/rings/dsp/fx/fx_engine.h **** // See http://creativecommons.org/licenses/MIT/ for more information.
  24:./eurorack/rings/dsp/fx/fx_engine.h **** //
  25:./eurorack/rings/dsp/fx/fx_engine.h **** // -----------------------------------------------------------------------------
  26:./eurorack/rings/dsp/fx/fx_engine.h **** //
  27:./eurorack/rings/dsp/fx/fx_engine.h **** // Base class for building reverb.
  28:./eurorack/rings/dsp/fx/fx_engine.h **** 
  29:./eurorack/rings/dsp/fx/fx_engine.h **** #ifndef RINGS_DSP_FX_FX_ENGINE_H_
  30:./eurorack/rings/dsp/fx/fx_engine.h **** #define RINGS_DSP_FX_FX_ENGINE_H_
  31:./eurorack/rings/dsp/fx/fx_engine.h **** 
  32:./eurorack/rings/dsp/fx/fx_engine.h **** #include <algorithm>
  33:./eurorack/rings/dsp/fx/fx_engine.h **** 
  34:./eurorack/rings/dsp/fx/fx_engine.h **** #include "stmlib/stmlib.h"
  35:./eurorack/rings/dsp/fx/fx_engine.h **** 
  36:./eurorack/rings/dsp/fx/fx_engine.h **** #include "stmlib/dsp/dsp.h"
  37:./eurorack/rings/dsp/fx/fx_engine.h **** #include "stmlib/dsp/cosine_oscillator.h"
  38:./eurorack/rings/dsp/fx/fx_engine.h **** 
  39:./eurorack/rings/dsp/fx/fx_engine.h **** namespace rings {
  40:./eurorack/rings/dsp/fx/fx_engine.h **** 
  41:./eurorack/rings/dsp/fx/fx_engine.h **** #define TAIL , -1
  42:./eurorack/rings/dsp/fx/fx_engine.h **** 
  43:./eurorack/rings/dsp/fx/fx_engine.h **** enum Format {
  44:./eurorack/rings/dsp/fx/fx_engine.h ****   FORMAT_12_BIT,
  45:./eurorack/rings/dsp/fx/fx_engine.h ****   FORMAT_16_BIT,
  46:./eurorack/rings/dsp/fx/fx_engine.h ****   FORMAT_32_BIT
  47:./eurorack/rings/dsp/fx/fx_engine.h **** };
  48:./eurorack/rings/dsp/fx/fx_engine.h **** 
  49:./eurorack/rings/dsp/fx/fx_engine.h **** enum LFOIndex {
  50:./eurorack/rings/dsp/fx/fx_engine.h ****   LFO_1,
  51:./eurorack/rings/dsp/fx/fx_engine.h ****   LFO_2
  52:./eurorack/rings/dsp/fx/fx_engine.h **** };
  53:./eurorack/rings/dsp/fx/fx_engine.h **** 
  54:./eurorack/rings/dsp/fx/fx_engine.h **** template<Format format>
  55:./eurorack/rings/dsp/fx/fx_engine.h **** struct DataType { };
  56:./eurorack/rings/dsp/fx/fx_engine.h **** 
  57:./eurorack/rings/dsp/fx/fx_engine.h **** template<>
  58:./eurorack/rings/dsp/fx/fx_engine.h **** struct DataType<FORMAT_12_BIT> {
  59:./eurorack/rings/dsp/fx/fx_engine.h ****   typedef uint16_t T;
ARM GAS  C:\Users\pedro\AppData\Local\Temp\ccs9bf6f.s 			page 12


  60:./eurorack/rings/dsp/fx/fx_engine.h ****   
  61:./eurorack/rings/dsp/fx/fx_engine.h ****   static inline float Decompress(T value) {
  62:./eurorack/rings/dsp/fx/fx_engine.h ****     return static_cast<float>(static_cast<int16_t>(value)) / 4096.0f;
  63:./eurorack/rings/dsp/fx/fx_engine.h ****   }
  64:./eurorack/rings/dsp/fx/fx_engine.h ****   
  65:./eurorack/rings/dsp/fx/fx_engine.h ****   static inline T Compress(float value) {
  66:./eurorack/rings/dsp/fx/fx_engine.h ****     return static_cast<uint16_t>(
  67:./eurorack/rings/dsp/fx/fx_engine.h ****         stmlib::Clip16(static_cast<int32_t>(value * 4096.0f)));
  68:./eurorack/rings/dsp/fx/fx_engine.h ****   }
  69:./eurorack/rings/dsp/fx/fx_engine.h **** };
  70:./eurorack/rings/dsp/fx/fx_engine.h **** 
  71:./eurorack/rings/dsp/fx/fx_engine.h **** template<>
  72:./eurorack/rings/dsp/fx/fx_engine.h **** struct DataType<FORMAT_16_BIT> {
  73:./eurorack/rings/dsp/fx/fx_engine.h ****   typedef uint16_t T;
  74:./eurorack/rings/dsp/fx/fx_engine.h ****   
  75:./eurorack/rings/dsp/fx/fx_engine.h ****   static inline float Decompress(T value) {
  76:./eurorack/rings/dsp/fx/fx_engine.h ****     return static_cast<float>(static_cast<int16_t>(value)) / 32768.0f;
  77:./eurorack/rings/dsp/fx/fx_engine.h ****   }
  78:./eurorack/rings/dsp/fx/fx_engine.h ****   
  79:./eurorack/rings/dsp/fx/fx_engine.h ****   static inline T Compress(float value) {
  80:./eurorack/rings/dsp/fx/fx_engine.h ****     return static_cast<uint16_t>(
  81:./eurorack/rings/dsp/fx/fx_engine.h ****         stmlib::Clip16(static_cast<int32_t>(value * 32768.0f)));
  82:./eurorack/rings/dsp/fx/fx_engine.h ****   }
  83:./eurorack/rings/dsp/fx/fx_engine.h **** };
  84:./eurorack/rings/dsp/fx/fx_engine.h **** 
  85:./eurorack/rings/dsp/fx/fx_engine.h **** template<>
  86:./eurorack/rings/dsp/fx/fx_engine.h **** struct DataType<FORMAT_32_BIT> {
  87:./eurorack/rings/dsp/fx/fx_engine.h ****   typedef float T;
  88:./eurorack/rings/dsp/fx/fx_engine.h ****   
  89:./eurorack/rings/dsp/fx/fx_engine.h ****   static inline float Decompress(T value) {
  90:./eurorack/rings/dsp/fx/fx_engine.h ****     return value;;
  91:./eurorack/rings/dsp/fx/fx_engine.h ****   }
  92:./eurorack/rings/dsp/fx/fx_engine.h ****   
  93:./eurorack/rings/dsp/fx/fx_engine.h ****   static inline T Compress(float value) {
  94:./eurorack/rings/dsp/fx/fx_engine.h ****     return value;
  95:./eurorack/rings/dsp/fx/fx_engine.h ****   }
  96:./eurorack/rings/dsp/fx/fx_engine.h **** };
  97:./eurorack/rings/dsp/fx/fx_engine.h **** 
  98:./eurorack/rings/dsp/fx/fx_engine.h **** template<
  99:./eurorack/rings/dsp/fx/fx_engine.h ****     size_t size,
 100:./eurorack/rings/dsp/fx/fx_engine.h ****     Format format = FORMAT_12_BIT>
 101:./eurorack/rings/dsp/fx/fx_engine.h **** class FxEngine {
 102:./eurorack/rings/dsp/fx/fx_engine.h ****  public:
 103:./eurorack/rings/dsp/fx/fx_engine.h ****   typedef typename DataType<format>::T T;
 104:./eurorack/rings/dsp/fx/fx_engine.h ****   FxEngine() { }
 105:./eurorack/rings/dsp/fx/fx_engine.h ****   ~FxEngine() { }
 104              		.loc 9 105 3 view .LVU17
 105              		.loc 9 105 3 is_stmt 0 view .LVU18
 106              	.LBE400:
 107              		.loc 8 41 15 view .LVU19
 108 0000 7047     		bx	lr
 109              		.cfi_endproc
 110              	.LFE4838:
 112              		.weak	_ZN5rings6ReverbD1Ev
 113              		.thumb_set _ZN5rings6ReverbD1Ev,_ZN5rings6ReverbD2Ev
 114 0002 00BF     		.section	.text._ZN5rings6Reverb7ProcessEPfS1_j,"axG",%progbits,_ZN5rings6Reverb7ProcessEPfS1_j,com
 115              		.align	1
ARM GAS  C:\Users\pedro\AppData\Local\Temp\ccs9bf6f.s 			page 13


 116              		.p2align 2,,3
 117              		.weak	_ZN5rings6Reverb7ProcessEPfS1_j
 118              		.syntax unified
 119              		.thumb
 120              		.thumb_func
 121              		.fpu fpv5-d16
 123              	_ZN5rings6Reverb7ProcessEPfS1_j:
 124              	.LVL2:
 125              	.LFB4841:
  42:./eurorack/rings/dsp/fx/reverb.h ****   
  43:./eurorack/rings/dsp/fx/reverb.h ****   void Init(uint16_t* buffer) {
  44:./eurorack/rings/dsp/fx/reverb.h ****     engine_.Init(buffer);
  45:./eurorack/rings/dsp/fx/reverb.h ****     engine_.SetLFOFrequency(LFO_1, 0.5f / 48000.0f);
  46:./eurorack/rings/dsp/fx/reverb.h ****     engine_.SetLFOFrequency(LFO_2, 0.3f / 48000.0f);
  47:./eurorack/rings/dsp/fx/reverb.h ****     lp_ = 0.7f;
  48:./eurorack/rings/dsp/fx/reverb.h ****     diffusion_ = 0.625f;
  49:./eurorack/rings/dsp/fx/reverb.h ****   }
  50:./eurorack/rings/dsp/fx/reverb.h ****   
  51:./eurorack/rings/dsp/fx/reverb.h ****   void Process(float* left, float* right, size_t size) {
 126              		.loc 8 51 8 is_stmt 1 view -0
 127              		.cfi_startproc
 128              		@ args = 0, pretend = 0, frame = 0
 129              		@ frame_needed = 0, uses_anonymous_args = 0
  52:./eurorack/rings/dsp/fx/reverb.h ****     // This is the Griesinger topology described in the Dattorro paper
  53:./eurorack/rings/dsp/fx/reverb.h ****     // (4 AP diffusers on the input, then a loop of 2x 2AP+1Delay).
  54:./eurorack/rings/dsp/fx/reverb.h ****     // Modulation is applied in the loop of the first diffuser AP for additional
  55:./eurorack/rings/dsp/fx/reverb.h ****     // smearing; and to the two long delays for a slow shimmer/chorus effect.
  56:./eurorack/rings/dsp/fx/reverb.h ****     typedef E::Reserve<150,
 130              		.loc 8 56 5 view .LVU21
  57:./eurorack/rings/dsp/fx/reverb.h ****       E::Reserve<214,
  58:./eurorack/rings/dsp/fx/reverb.h ****       E::Reserve<319,
  59:./eurorack/rings/dsp/fx/reverb.h ****       E::Reserve<527,
  60:./eurorack/rings/dsp/fx/reverb.h ****       E::Reserve<2182,
  61:./eurorack/rings/dsp/fx/reverb.h ****       E::Reserve<2690,
  62:./eurorack/rings/dsp/fx/reverb.h ****       E::Reserve<4501,
  63:./eurorack/rings/dsp/fx/reverb.h ****       E::Reserve<2525,
  64:./eurorack/rings/dsp/fx/reverb.h ****       E::Reserve<2197,
  65:./eurorack/rings/dsp/fx/reverb.h ****       E::Reserve<6312> > > > > > > > > > Memory;
  66:./eurorack/rings/dsp/fx/reverb.h ****     E::DelayLine<Memory, 0> ap1;
 131              		.loc 8 66 5 view .LVU22
  67:./eurorack/rings/dsp/fx/reverb.h ****     E::DelayLine<Memory, 1> ap2;
 132              		.loc 8 67 5 view .LVU23
  68:./eurorack/rings/dsp/fx/reverb.h ****     E::DelayLine<Memory, 2> ap3;
 133              		.loc 8 68 5 view .LVU24
  69:./eurorack/rings/dsp/fx/reverb.h ****     E::DelayLine<Memory, 3> ap4;
 134              		.loc 8 69 5 view .LVU25
  70:./eurorack/rings/dsp/fx/reverb.h ****     E::DelayLine<Memory, 4> dap1a;
 135              		.loc 8 70 5 view .LVU26
  71:./eurorack/rings/dsp/fx/reverb.h ****     E::DelayLine<Memory, 5> dap1b;
 136              		.loc 8 71 5 view .LVU27
  72:./eurorack/rings/dsp/fx/reverb.h ****     E::DelayLine<Memory, 6> del1;
 137              		.loc 8 72 5 view .LVU28
  73:./eurorack/rings/dsp/fx/reverb.h ****     E::DelayLine<Memory, 7> dap2a;
 138              		.loc 8 73 5 view .LVU29
  74:./eurorack/rings/dsp/fx/reverb.h ****     E::DelayLine<Memory, 8> dap2b;
 139              		.loc 8 74 5 view .LVU30
  75:./eurorack/rings/dsp/fx/reverb.h ****     E::DelayLine<Memory, 9> del2;
ARM GAS  C:\Users\pedro\AppData\Local\Temp\ccs9bf6f.s 			page 14


 140              		.loc 8 75 5 view .LVU31
  76:./eurorack/rings/dsp/fx/reverb.h ****     E::Context c;
 141              		.loc 8 76 5 view .LVU32
 142              	.LBB576:
 143              	.LBI576:
 106:./eurorack/rings/dsp/fx/fx_engine.h **** 
 107:./eurorack/rings/dsp/fx/fx_engine.h ****   void Init(T* buffer) {
 108:./eurorack/rings/dsp/fx/fx_engine.h ****     buffer_ = buffer;
 109:./eurorack/rings/dsp/fx/fx_engine.h ****     Clear();
 110:./eurorack/rings/dsp/fx/fx_engine.h ****   }
 111:./eurorack/rings/dsp/fx/fx_engine.h ****   
 112:./eurorack/rings/dsp/fx/fx_engine.h ****   void Clear() {
 113:./eurorack/rings/dsp/fx/fx_engine.h ****     std::fill(&buffer_[0], &buffer_[size], 0);
 114:./eurorack/rings/dsp/fx/fx_engine.h ****     write_ptr_ = 0;
 115:./eurorack/rings/dsp/fx/fx_engine.h ****   }
 116:./eurorack/rings/dsp/fx/fx_engine.h **** 
 117:./eurorack/rings/dsp/fx/fx_engine.h ****   struct Empty { };
 118:./eurorack/rings/dsp/fx/fx_engine.h ****   
 119:./eurorack/rings/dsp/fx/fx_engine.h ****   template<int32_t l, typename T = Empty>
 120:./eurorack/rings/dsp/fx/fx_engine.h ****   struct Reserve {
 121:./eurorack/rings/dsp/fx/fx_engine.h ****     typedef T Tail;
 122:./eurorack/rings/dsp/fx/fx_engine.h ****     enum {
 123:./eurorack/rings/dsp/fx/fx_engine.h ****       length = l
 124:./eurorack/rings/dsp/fx/fx_engine.h ****     };
 125:./eurorack/rings/dsp/fx/fx_engine.h ****   };
 126:./eurorack/rings/dsp/fx/fx_engine.h ****   
 127:./eurorack/rings/dsp/fx/fx_engine.h ****   template<typename Memory, int32_t index>
 128:./eurorack/rings/dsp/fx/fx_engine.h ****   struct DelayLine {
 129:./eurorack/rings/dsp/fx/fx_engine.h ****     enum {
 130:./eurorack/rings/dsp/fx/fx_engine.h ****       length = DelayLine<typename Memory::Tail, index - 1>::length,
 131:./eurorack/rings/dsp/fx/fx_engine.h ****       base = DelayLine<Memory, index - 1>::base + DelayLine<Memory, index - 1>::length + 1
 132:./eurorack/rings/dsp/fx/fx_engine.h ****     };
 133:./eurorack/rings/dsp/fx/fx_engine.h ****   };
 134:./eurorack/rings/dsp/fx/fx_engine.h **** 
 135:./eurorack/rings/dsp/fx/fx_engine.h ****   template<typename Memory>
 136:./eurorack/rings/dsp/fx/fx_engine.h ****   struct DelayLine<Memory, 0> {
 137:./eurorack/rings/dsp/fx/fx_engine.h ****     enum {
 138:./eurorack/rings/dsp/fx/fx_engine.h ****       length = Memory::length,
 139:./eurorack/rings/dsp/fx/fx_engine.h ****       base = 0
 140:./eurorack/rings/dsp/fx/fx_engine.h ****     };
 141:./eurorack/rings/dsp/fx/fx_engine.h ****   };
 142:./eurorack/rings/dsp/fx/fx_engine.h **** 
 143:./eurorack/rings/dsp/fx/fx_engine.h ****   class Context {
 144:./eurorack/rings/dsp/fx/fx_engine.h ****    friend class FxEngine;
 145:./eurorack/rings/dsp/fx/fx_engine.h ****    public:
 146:./eurorack/rings/dsp/fx/fx_engine.h ****     Context() { }
 144              		.loc 9 146 5 view .LVU33
 145              		.loc 9 146 5 is_stmt 0 view .LVU34
 146              	.LBE576:
  77:./eurorack/rings/dsp/fx/reverb.h **** 
  78:./eurorack/rings/dsp/fx/reverb.h ****     const float kap = diffusion_;
 147              		.loc 8 78 5 is_stmt 1 view .LVU35
 148              		.loc 8 78 17 is_stmt 0 view .LVU36
 149 0000 90ED0D6A 		vldr.32	s12, [r0, #52]
 150              	.LVL3:
  79:./eurorack/rings/dsp/fx/reverb.h ****     const float klp = lp_;
 151              		.loc 8 79 5 is_stmt 1 view .LVU37
ARM GAS  C:\Users\pedro\AppData\Local\Temp\ccs9bf6f.s 			page 15


 152              		.loc 8 79 17 is_stmt 0 view .LVU38
 153 0004 90ED0E4A 		vldr.32	s8, [r0, #56]
 154              	.LVL4:
  80:./eurorack/rings/dsp/fx/reverb.h ****     const float krt = reverb_time_;
 155              		.loc 8 80 5 is_stmt 1 view .LVU39
 156              		.loc 8 80 17 is_stmt 0 view .LVU40
 157 0008 D0ED0C3A 		vldr.32	s7, [r0, #48]
 158              	.LVL5:
  81:./eurorack/rings/dsp/fx/reverb.h ****     const float amount = amount_;
 159              		.loc 8 81 5 is_stmt 1 view .LVU41
 160              		.loc 8 81 17 is_stmt 0 view .LVU42
 161 000c 90ED0A3A 		vldr.32	s6, [r0, #40]
 162              	.LVL6:
  82:./eurorack/rings/dsp/fx/reverb.h ****     const float gain = input_gain_;
 163              		.loc 8 82 5 is_stmt 1 view .LVU43
 164              		.loc 8 82 17 is_stmt 0 view .LVU44
 165 0010 D0ED0B2A 		vldr.32	s5, [r0, #44]
 166              	.LVL7:
  83:./eurorack/rings/dsp/fx/reverb.h **** 
  84:./eurorack/rings/dsp/fx/reverb.h ****     float lp_1 = lp_decay_1_;
 167              		.loc 8 84 5 is_stmt 1 view .LVU45
 168              		.loc 8 84 18 is_stmt 0 view .LVU46
 169 0014 D0ED0F4A 		vldr.32	s9, [r0, #60]
 170              	.LVL8:
  85:./eurorack/rings/dsp/fx/reverb.h ****     float lp_2 = lp_decay_2_;
 171              		.loc 8 85 5 is_stmt 1 view .LVU47
 172              		.loc 8 85 18 is_stmt 0 view .LVU48
 173 0018 90ED105A 		vldr.32	s10, [r0, #64]
 174              	.LVL9:
  86:./eurorack/rings/dsp/fx/reverb.h **** 
  87:./eurorack/rings/dsp/fx/reverb.h ****     while (size--) {
 175              		.loc 8 87 5 is_stmt 1 view .LVU49
 176              		.loc 8 87 16 view .LVU50
 177              		.loc 8 87 16 is_stmt 0 view .LVU51
 178 001c 002B     		cmp	r3, #0
 179 001e 00F0DE81 		beq	.L16
 180              	.LBB577:
  88:./eurorack/rings/dsp/fx/reverb.h ****       float wet;
  89:./eurorack/rings/dsp/fx/reverb.h ****       float apout = 0.0f;
  90:./eurorack/rings/dsp/fx/reverb.h ****       engine_.Start(&c);
  91:./eurorack/rings/dsp/fx/reverb.h ****       
  92:./eurorack/rings/dsp/fx/reverb.h ****       // Smear AP1 inside the loop.
  93:./eurorack/rings/dsp/fx/reverb.h ****       //c.Interpolate(ap1, 10.0f, LFO_1, 80.0f, 1.0f);
  94:./eurorack/rings/dsp/fx/reverb.h ****       //c.Write(ap1, 100, 0.0f);
  95:./eurorack/rings/dsp/fx/reverb.h ****       
  96:./eurorack/rings/dsp/fx/reverb.h ****       c.Read(*left + *right, gain);
  97:./eurorack/rings/dsp/fx/reverb.h **** 
  98:./eurorack/rings/dsp/fx/reverb.h ****       // Diffuse through 4 allpasses.
  99:./eurorack/rings/dsp/fx/reverb.h ****       c.Read(ap1 TAIL, kap);
 100:./eurorack/rings/dsp/fx/reverb.h ****       c.WriteAllPass(ap1, -kap);
 181              		.loc 8 100 21 view .LVU52
 182 0022 F1EE465A 		vneg.f32	s11, s12
 183              	.LBE577:
  51:./eurorack/rings/dsp/fx/reverb.h ****     // This is the Griesinger topology described in the Dattorro paper
 184              		.loc 8 51 8 view .LVU53
 185 0026 2DE9F04F 		push	{r4, r5, r6, r7, r8, r9, r10, fp, lr}
 186              		.cfi_def_cfa_offset 36
ARM GAS  C:\Users\pedro\AppData\Local\Temp\ccs9bf6f.s 			page 16


 187              		.cfi_offset 4, -36
 188              		.cfi_offset 5, -32
 189              		.cfi_offset 6, -28
 190              		.cfi_offset 7, -24
 191              		.cfi_offset 8, -20
 192              		.cfi_offset 9, -16
 193              		.cfi_offset 10, -12
 194              		.cfi_offset 11, -8
 195              		.cfi_offset 14, -4
 196 002a 5D1E     		subs	r5, r3, #1
 197              	.LVL10:
  51:./eurorack/rings/dsp/fx/reverb.h ****     // This is the Griesinger topology described in the Dattorro paper
 198              		.loc 8 51 8 view .LVU54
 199 002c 0C46     		mov	r4, r1
 200 002e 0368     		ldr	r3, [r0]
 201              	.LBB1214:
 202              	.LBB578:
 203              	.LBB579:
 147:./eurorack/rings/dsp/fx/fx_engine.h ****     ~Context() { }
 148:./eurorack/rings/dsp/fx/fx_engine.h ****     
 149:./eurorack/rings/dsp/fx/fx_engine.h ****     inline void Load(float value) {
 150:./eurorack/rings/dsp/fx/fx_engine.h ****       accumulator_ = value;
 151:./eurorack/rings/dsp/fx/fx_engine.h ****     }
 152:./eurorack/rings/dsp/fx/fx_engine.h **** 
 153:./eurorack/rings/dsp/fx/fx_engine.h ****     inline void Read(float value, float scale) {
 154:./eurorack/rings/dsp/fx/fx_engine.h ****       accumulator_ += value * scale;
 155:./eurorack/rings/dsp/fx/fx_engine.h ****     }
 156:./eurorack/rings/dsp/fx/fx_engine.h **** 
 157:./eurorack/rings/dsp/fx/fx_engine.h ****     inline void Read(float value) {
 158:./eurorack/rings/dsp/fx/fx_engine.h ****       accumulator_ += value;
 159:./eurorack/rings/dsp/fx/fx_engine.h ****     }
 160:./eurorack/rings/dsp/fx/fx_engine.h **** 
 161:./eurorack/rings/dsp/fx/fx_engine.h ****     inline void Write(float& value) {
 162:./eurorack/rings/dsp/fx/fx_engine.h ****       value = accumulator_;
 163:./eurorack/rings/dsp/fx/fx_engine.h ****     }
 164:./eurorack/rings/dsp/fx/fx_engine.h **** 
 165:./eurorack/rings/dsp/fx/fx_engine.h ****     inline void Write(float& value, float scale) {
 166:./eurorack/rings/dsp/fx/fx_engine.h ****       value = accumulator_;
 167:./eurorack/rings/dsp/fx/fx_engine.h ****       accumulator_ *= scale;
 168:./eurorack/rings/dsp/fx/fx_engine.h ****     }
 169:./eurorack/rings/dsp/fx/fx_engine.h ****     
 170:./eurorack/rings/dsp/fx/fx_engine.h ****     template<typename D>
 171:./eurorack/rings/dsp/fx/fx_engine.h ****     inline void Write(D& d, int32_t offset, float scale) {
 172:./eurorack/rings/dsp/fx/fx_engine.h ****       STATIC_ASSERT(D::base + D::length <= size, delay_memory_full);
 173:./eurorack/rings/dsp/fx/fx_engine.h ****       T w = DataType<format>::Compress(accumulator_);
 174:./eurorack/rings/dsp/fx/fx_engine.h ****       if (offset == -1) {
 175:./eurorack/rings/dsp/fx/fx_engine.h ****         buffer_[(write_ptr_ + D::base + D::length - 1) & MASK] = w;
 176:./eurorack/rings/dsp/fx/fx_engine.h ****       } else {
 177:./eurorack/rings/dsp/fx/fx_engine.h ****         buffer_[(write_ptr_ + D::base + offset) & MASK] = w;
 178:./eurorack/rings/dsp/fx/fx_engine.h ****       }
 179:./eurorack/rings/dsp/fx/fx_engine.h ****       accumulator_ *= scale;
 180:./eurorack/rings/dsp/fx/fx_engine.h ****     }
 181:./eurorack/rings/dsp/fx/fx_engine.h ****     
 182:./eurorack/rings/dsp/fx/fx_engine.h ****     template<typename D>
 183:./eurorack/rings/dsp/fx/fx_engine.h ****     inline void Write(D& d, float scale) {
 184:./eurorack/rings/dsp/fx/fx_engine.h ****       Write(d, 0, scale);
 185:./eurorack/rings/dsp/fx/fx_engine.h ****     }
ARM GAS  C:\Users\pedro\AppData\Local\Temp\ccs9bf6f.s 			page 17


 186:./eurorack/rings/dsp/fx/fx_engine.h **** 
 187:./eurorack/rings/dsp/fx/fx_engine.h ****     template<typename D>
 188:./eurorack/rings/dsp/fx/fx_engine.h ****     inline void WriteAllPass(D& d, int32_t offset, float scale) {
 189:./eurorack/rings/dsp/fx/fx_engine.h ****       Write(d, offset, scale);
 190:./eurorack/rings/dsp/fx/fx_engine.h ****       accumulator_ += previous_read_;
 191:./eurorack/rings/dsp/fx/fx_engine.h ****     }
 192:./eurorack/rings/dsp/fx/fx_engine.h ****     
 193:./eurorack/rings/dsp/fx/fx_engine.h ****     template<typename D>
 194:./eurorack/rings/dsp/fx/fx_engine.h ****     inline void WriteAllPass(D& d, float scale) {
 195:./eurorack/rings/dsp/fx/fx_engine.h ****       WriteAllPass(d, 0, scale);
 196:./eurorack/rings/dsp/fx/fx_engine.h ****     }
 197:./eurorack/rings/dsp/fx/fx_engine.h ****     
 198:./eurorack/rings/dsp/fx/fx_engine.h ****     template<typename D>
 199:./eurorack/rings/dsp/fx/fx_engine.h ****     inline void Read(D& d, int32_t offset, float scale) {
 200:./eurorack/rings/dsp/fx/fx_engine.h ****       STATIC_ASSERT(D::base + D::length <= size, delay_memory_full);
 201:./eurorack/rings/dsp/fx/fx_engine.h ****       T r;
 202:./eurorack/rings/dsp/fx/fx_engine.h ****       if (offset == -1) {
 203:./eurorack/rings/dsp/fx/fx_engine.h ****         r = buffer_[(write_ptr_ + D::base + D::length - 1) & MASK];
 204:./eurorack/rings/dsp/fx/fx_engine.h ****       } else {
 205:./eurorack/rings/dsp/fx/fx_engine.h ****         r = buffer_[(write_ptr_ + D::base + offset) & MASK];
 206:./eurorack/rings/dsp/fx/fx_engine.h ****       }
 207:./eurorack/rings/dsp/fx/fx_engine.h ****       float r_f = DataType<format>::Decompress(r);
 208:./eurorack/rings/dsp/fx/fx_engine.h ****       previous_read_ = r_f;
 209:./eurorack/rings/dsp/fx/fx_engine.h ****       accumulator_ += r_f * scale;
 210:./eurorack/rings/dsp/fx/fx_engine.h ****     }
 211:./eurorack/rings/dsp/fx/fx_engine.h ****     
 212:./eurorack/rings/dsp/fx/fx_engine.h ****     template<typename D>
 213:./eurorack/rings/dsp/fx/fx_engine.h ****     inline void Read(D& d, float scale) {
 214:./eurorack/rings/dsp/fx/fx_engine.h ****       Read(d, 0, scale);
 215:./eurorack/rings/dsp/fx/fx_engine.h ****     }
 216:./eurorack/rings/dsp/fx/fx_engine.h ****     
 217:./eurorack/rings/dsp/fx/fx_engine.h ****     inline void Lp(float& state, float coefficient) {
 218:./eurorack/rings/dsp/fx/fx_engine.h ****       state += coefficient * (accumulator_ - state);
 219:./eurorack/rings/dsp/fx/fx_engine.h ****       accumulator_ = state;
 220:./eurorack/rings/dsp/fx/fx_engine.h ****     }
 221:./eurorack/rings/dsp/fx/fx_engine.h **** 
 222:./eurorack/rings/dsp/fx/fx_engine.h ****     inline void Hp(float& state, float coefficient) {
 223:./eurorack/rings/dsp/fx/fx_engine.h ****       state += coefficient * (accumulator_ - state);
 224:./eurorack/rings/dsp/fx/fx_engine.h ****       accumulator_ -= state;
 225:./eurorack/rings/dsp/fx/fx_engine.h ****     }
 226:./eurorack/rings/dsp/fx/fx_engine.h ****     
 227:./eurorack/rings/dsp/fx/fx_engine.h ****     template<typename D>
 228:./eurorack/rings/dsp/fx/fx_engine.h ****     inline void Interpolate(D& d, float offset, float scale) {
 229:./eurorack/rings/dsp/fx/fx_engine.h ****       STATIC_ASSERT(D::base + D::length <= size, delay_memory_full);
 230:./eurorack/rings/dsp/fx/fx_engine.h ****       MAKE_INTEGRAL_FRACTIONAL(offset);
 231:./eurorack/rings/dsp/fx/fx_engine.h ****       float a = DataType<format>::Decompress(
 232:./eurorack/rings/dsp/fx/fx_engine.h ****           buffer_[(write_ptr_ + offset_integral + D::base) & MASK]);
 233:./eurorack/rings/dsp/fx/fx_engine.h ****       float b = DataType<format>::Decompress(
 234:./eurorack/rings/dsp/fx/fx_engine.h ****           buffer_[(write_ptr_ + offset_integral + D::base + 1) & MASK]);
 235:./eurorack/rings/dsp/fx/fx_engine.h ****       float x = a + (b - a) * offset_fractional;
 236:./eurorack/rings/dsp/fx/fx_engine.h ****       previous_read_ = x;
 237:./eurorack/rings/dsp/fx/fx_engine.h ****       accumulator_ += x * scale;
 238:./eurorack/rings/dsp/fx/fx_engine.h ****     }
 239:./eurorack/rings/dsp/fx/fx_engine.h ****     
 240:./eurorack/rings/dsp/fx/fx_engine.h ****     template<typename D>
 241:./eurorack/rings/dsp/fx/fx_engine.h ****     inline void Interpolate(
 242:./eurorack/rings/dsp/fx/fx_engine.h ****         D& d, float offset, LFOIndex index, float amplitude, float scale) {
ARM GAS  C:\Users\pedro\AppData\Local\Temp\ccs9bf6f.s 			page 18


 243:./eurorack/rings/dsp/fx/fx_engine.h ****       STATIC_ASSERT(D::base + D::length <= size, delay_memory_full);
 244:./eurorack/rings/dsp/fx/fx_engine.h ****       offset += amplitude * lfo_value_[index];
 245:./eurorack/rings/dsp/fx/fx_engine.h ****       MAKE_INTEGRAL_FRACTIONAL(offset);
 246:./eurorack/rings/dsp/fx/fx_engine.h ****       float a = DataType<format>::Decompress(
 247:./eurorack/rings/dsp/fx/fx_engine.h ****           buffer_[(write_ptr_ + offset_integral + D::base) & MASK]);
 248:./eurorack/rings/dsp/fx/fx_engine.h ****       float b = DataType<format>::Decompress(
 249:./eurorack/rings/dsp/fx/fx_engine.h ****           buffer_[(write_ptr_ + offset_integral + D::base + 1) & MASK]);
 250:./eurorack/rings/dsp/fx/fx_engine.h ****       float x = a + (b - a) * offset_fractional;
 251:./eurorack/rings/dsp/fx/fx_engine.h ****       previous_read_ = x;
 252:./eurorack/rings/dsp/fx/fx_engine.h ****       accumulator_ += x * scale;
 253:./eurorack/rings/dsp/fx/fx_engine.h ****     }
 254:./eurorack/rings/dsp/fx/fx_engine.h ****     
 255:./eurorack/rings/dsp/fx/fx_engine.h ****    private:
 256:./eurorack/rings/dsp/fx/fx_engine.h ****     float accumulator_;
 257:./eurorack/rings/dsp/fx/fx_engine.h ****     float previous_read_;
 258:./eurorack/rings/dsp/fx/fx_engine.h ****     float lfo_value_[2];
 259:./eurorack/rings/dsp/fx/fx_engine.h ****     T* buffer_;
 260:./eurorack/rings/dsp/fx/fx_engine.h ****     int32_t write_ptr_;
 261:./eurorack/rings/dsp/fx/fx_engine.h **** 
 262:./eurorack/rings/dsp/fx/fx_engine.h ****     DISALLOW_COPY_AND_ASSIGN(Context);
 263:./eurorack/rings/dsp/fx/fx_engine.h ****   };
 264:./eurorack/rings/dsp/fx/fx_engine.h ****   
 265:./eurorack/rings/dsp/fx/fx_engine.h ****   inline void SetLFOFrequency(LFOIndex index, float frequency) {
 266:./eurorack/rings/dsp/fx/fx_engine.h ****     lfo_[index].template Init<stmlib::COSINE_OSCILLATOR_APPROXIMATE>(frequency * 32.0f);
 267:./eurorack/rings/dsp/fx/fx_engine.h ****   }
 268:./eurorack/rings/dsp/fx/fx_engine.h ****   
 269:./eurorack/rings/dsp/fx/fx_engine.h ****   inline void Start(Context* c) {
 270:./eurorack/rings/dsp/fx/fx_engine.h ****     --write_ptr_;
 271:./eurorack/rings/dsp/fx/fx_engine.h ****     if (write_ptr_ < 0) {
 272:./eurorack/rings/dsp/fx/fx_engine.h ****       write_ptr_ += size;
 273:./eurorack/rings/dsp/fx/fx_engine.h ****     }
 274:./eurorack/rings/dsp/fx/fx_engine.h ****     c->accumulator_ = 0.0f;
 275:./eurorack/rings/dsp/fx/fx_engine.h ****     c->previous_read_ = 0.0f;
 276:./eurorack/rings/dsp/fx/fx_engine.h ****     c->buffer_ = buffer_;
 204              		.loc 9 276 18 view .LVU55
 205 0030 4168     		ldr	r1, [r0, #4]
 206              	.LVL11:
 207              		.loc 9 276 18 view .LVU56
 208              	.LBE579:
 209              	.LBE578:
 210              	.LBE1214:
  51:./eurorack/rings/dsp/fx/reverb.h ****     // This is the Griesinger topology described in the Dattorro paper
 211              		.loc 8 51 8 view .LVU57
 212 0032 2DED028B 		vpush.64	{d8}
 213              		.cfi_def_cfa_offset 44
 214              		.cfi_offset 80, -44
 215              		.cfi_offset 81, -40
 216 0036 B2E1     		b	.L10
 217              	.LVL12:
 218              	.L20:
 219              	.LBB1215:
 220              	.LBB617:
 221              	.LBB614:
 222              	.LBB580:
 223              	.LBI580:
 269:./eurorack/rings/dsp/fx/fx_engine.h ****     --write_ptr_;
 224              		.loc 9 269 15 is_stmt 1 view .LVU58
ARM GAS  C:\Users\pedro\AppData\Local\Temp\ccs9bf6f.s 			page 19


 225              	.LBB581:
 226              	.LBB582:
 227              	.LBI582:
 228              		.file 10 "./eurorack/stmlib/dsp/cosine_oscillator.h"
   1:./eurorack/stmlib/dsp/cosine_oscillator.h **** // Copyright 2014 Emilie Gillet.
   2:./eurorack/stmlib/dsp/cosine_oscillator.h **** //
   3:./eurorack/stmlib/dsp/cosine_oscillator.h **** // Author: Emilie Gillet (emilie.o.gillet@gmail.com)
   4:./eurorack/stmlib/dsp/cosine_oscillator.h **** //
   5:./eurorack/stmlib/dsp/cosine_oscillator.h **** // Permission is hereby granted, free of charge, to any person obtaining a copy
   6:./eurorack/stmlib/dsp/cosine_oscillator.h **** // of this software and associated documentation files (the "Software"), to deal
   7:./eurorack/stmlib/dsp/cosine_oscillator.h **** // in the Software without restriction, including without limitation the rights
   8:./eurorack/stmlib/dsp/cosine_oscillator.h **** // to use, copy, modify, merge, publish, distribute, sublicense, and/or sell
   9:./eurorack/stmlib/dsp/cosine_oscillator.h **** // copies of the Software, and to permit persons to whom the Software is
  10:./eurorack/stmlib/dsp/cosine_oscillator.h **** // furnished to do so, subject to the following conditions:
  11:./eurorack/stmlib/dsp/cosine_oscillator.h **** // 
  12:./eurorack/stmlib/dsp/cosine_oscillator.h **** // The above copyright notice and this permission notice shall be included in
  13:./eurorack/stmlib/dsp/cosine_oscillator.h **** // all copies or substantial portions of the Software.
  14:./eurorack/stmlib/dsp/cosine_oscillator.h **** // 
  15:./eurorack/stmlib/dsp/cosine_oscillator.h **** // THE SOFTWARE IS PROVIDED "AS IS", WITHOUT WARRANTY OF ANY KIND, EXPRESS OR
  16:./eurorack/stmlib/dsp/cosine_oscillator.h **** // IMPLIED, INCLUDING BUT NOT LIMITED TO THE WARRANTIES OF MERCHANTABILITY,
  17:./eurorack/stmlib/dsp/cosine_oscillator.h **** // FITNESS FOR A PARTICULAR PURPOSE AND NONINFRINGEMENT. IN NO EVENT SHALL THE
  18:./eurorack/stmlib/dsp/cosine_oscillator.h **** // AUTHORS OR COPYRIGHT HOLDERS BE LIABLE FOR ANY CLAIM, DAMAGES OR OTHER
  19:./eurorack/stmlib/dsp/cosine_oscillator.h **** // LIABILITY, WHETHER IN AN ACTION OF CONTRACT, TORT OR OTHERWISE, ARISING FROM,
  20:./eurorack/stmlib/dsp/cosine_oscillator.h **** // OUT OF OR IN CONNECTION WITH THE SOFTWARE OR THE USE OR OTHER DEALINGS IN
  21:./eurorack/stmlib/dsp/cosine_oscillator.h **** // THE SOFTWARE.
  22:./eurorack/stmlib/dsp/cosine_oscillator.h **** // 
  23:./eurorack/stmlib/dsp/cosine_oscillator.h **** // See http://creativecommons.org/licenses/MIT/ for more information.
  24:./eurorack/stmlib/dsp/cosine_oscillator.h **** //
  25:./eurorack/stmlib/dsp/cosine_oscillator.h **** // -----------------------------------------------------------------------------
  26:./eurorack/stmlib/dsp/cosine_oscillator.h **** //
  27:./eurorack/stmlib/dsp/cosine_oscillator.h **** // Cosine oscillator. Generates a cosine between 0.0 and 1.0 with minimal
  28:./eurorack/stmlib/dsp/cosine_oscillator.h **** // CPU use.
  29:./eurorack/stmlib/dsp/cosine_oscillator.h **** 
  30:./eurorack/stmlib/dsp/cosine_oscillator.h **** #ifndef STMLIB_DSP_COSINE_OSCILLATOR_H_
  31:./eurorack/stmlib/dsp/cosine_oscillator.h **** #define STMLIB_DSP_COSINE_OSCILLATOR_H_
  32:./eurorack/stmlib/dsp/cosine_oscillator.h **** 
  33:./eurorack/stmlib/dsp/cosine_oscillator.h **** #include "stmlib/stmlib.h"
  34:./eurorack/stmlib/dsp/cosine_oscillator.h **** 
  35:./eurorack/stmlib/dsp/cosine_oscillator.h **** #include <cmath>
  36:./eurorack/stmlib/dsp/cosine_oscillator.h **** 
  37:./eurorack/stmlib/dsp/cosine_oscillator.h **** namespace stmlib {
  38:./eurorack/stmlib/dsp/cosine_oscillator.h **** 
  39:./eurorack/stmlib/dsp/cosine_oscillator.h **** enum CosineOscillatorMode {
  40:./eurorack/stmlib/dsp/cosine_oscillator.h ****   COSINE_OSCILLATOR_APPROXIMATE,
  41:./eurorack/stmlib/dsp/cosine_oscillator.h ****   COSINE_OSCILLATOR_EXACT
  42:./eurorack/stmlib/dsp/cosine_oscillator.h **** };
  43:./eurorack/stmlib/dsp/cosine_oscillator.h **** 
  44:./eurorack/stmlib/dsp/cosine_oscillator.h **** class CosineOscillator {
  45:./eurorack/stmlib/dsp/cosine_oscillator.h ****  public:
  46:./eurorack/stmlib/dsp/cosine_oscillator.h ****   CosineOscillator() { }
  47:./eurorack/stmlib/dsp/cosine_oscillator.h ****   ~CosineOscillator() { }
  48:./eurorack/stmlib/dsp/cosine_oscillator.h **** 
  49:./eurorack/stmlib/dsp/cosine_oscillator.h ****   template<CosineOscillatorMode mode>
  50:./eurorack/stmlib/dsp/cosine_oscillator.h ****   inline void Init(float frequency) {
  51:./eurorack/stmlib/dsp/cosine_oscillator.h ****     if (mode == COSINE_OSCILLATOR_APPROXIMATE) {
  52:./eurorack/stmlib/dsp/cosine_oscillator.h ****       InitApproximate(frequency);
  53:./eurorack/stmlib/dsp/cosine_oscillator.h ****     } else {
ARM GAS  C:\Users\pedro\AppData\Local\Temp\ccs9bf6f.s 			page 20


  54:./eurorack/stmlib/dsp/cosine_oscillator.h ****       iir_coefficient_ = 2.0f * cosf(2.0f * M_PI * frequency);
  55:./eurorack/stmlib/dsp/cosine_oscillator.h ****       initial_amplitude_ = iir_coefficient_ * 0.25f;
  56:./eurorack/stmlib/dsp/cosine_oscillator.h ****     }
  57:./eurorack/stmlib/dsp/cosine_oscillator.h ****     Start();
  58:./eurorack/stmlib/dsp/cosine_oscillator.h ****   }
  59:./eurorack/stmlib/dsp/cosine_oscillator.h ****   
  60:./eurorack/stmlib/dsp/cosine_oscillator.h ****   inline void InitApproximate(float frequency) {
  61:./eurorack/stmlib/dsp/cosine_oscillator.h ****     float sign = 16.0f;
  62:./eurorack/stmlib/dsp/cosine_oscillator.h ****     frequency -= 0.25f;
  63:./eurorack/stmlib/dsp/cosine_oscillator.h ****     if (frequency < 0.0f) {
  64:./eurorack/stmlib/dsp/cosine_oscillator.h ****       frequency = -frequency;
  65:./eurorack/stmlib/dsp/cosine_oscillator.h ****     } else {
  66:./eurorack/stmlib/dsp/cosine_oscillator.h ****       if (frequency > 0.5f) {
  67:./eurorack/stmlib/dsp/cosine_oscillator.h ****         frequency -= 0.5f;
  68:./eurorack/stmlib/dsp/cosine_oscillator.h ****       } else {
  69:./eurorack/stmlib/dsp/cosine_oscillator.h ****         sign = -16.0f;
  70:./eurorack/stmlib/dsp/cosine_oscillator.h ****       }
  71:./eurorack/stmlib/dsp/cosine_oscillator.h ****     }
  72:./eurorack/stmlib/dsp/cosine_oscillator.h ****     iir_coefficient_ = sign * frequency * (1.0f - 2.0f * frequency);
  73:./eurorack/stmlib/dsp/cosine_oscillator.h ****     initial_amplitude_ = iir_coefficient_ * 0.25f;
  74:./eurorack/stmlib/dsp/cosine_oscillator.h ****   }
  75:./eurorack/stmlib/dsp/cosine_oscillator.h ****   
  76:./eurorack/stmlib/dsp/cosine_oscillator.h ****   inline void Start() {
  77:./eurorack/stmlib/dsp/cosine_oscillator.h ****     y1_ = initial_amplitude_;
  78:./eurorack/stmlib/dsp/cosine_oscillator.h ****     y0_ = 0.5f;
  79:./eurorack/stmlib/dsp/cosine_oscillator.h ****   }
  80:./eurorack/stmlib/dsp/cosine_oscillator.h ****   
  81:./eurorack/stmlib/dsp/cosine_oscillator.h ****   inline float value() const {
  82:./eurorack/stmlib/dsp/cosine_oscillator.h ****     return y1_ + 0.5f;
  83:./eurorack/stmlib/dsp/cosine_oscillator.h ****   }
  84:./eurorack/stmlib/dsp/cosine_oscillator.h **** 
  85:./eurorack/stmlib/dsp/cosine_oscillator.h ****   inline float Next() {
 229              		.loc 10 85 16 view .LVU59
 230              	.LBB583:
  86:./eurorack/stmlib/dsp/cosine_oscillator.h ****     float temp = y0_;
 231              		.loc 10 86 5 view .LVU60
 232              		.loc 10 86 11 is_stmt 0 view .LVU61
 233 0038 90ED030A 		vldr.32	s0, [r0, #12]
 234              	.LVL13:
  87:./eurorack/stmlib/dsp/cosine_oscillator.h ****     y0_ = iir_coefficient_ * y0_ - y1_;
 235              		.loc 10 87 5 is_stmt 1 view .LVU62
  88:./eurorack/stmlib/dsp/cosine_oscillator.h ****     y1_ = temp;
  89:./eurorack/stmlib/dsp/cosine_oscillator.h ****     return temp + 0.5f;
 236              		.loc 10 89 19 is_stmt 0 view .LVU63
 237 003c F6EE006A 		vmov.f32	s13, #5.0e-1
 238              	.LBE583:
 239              	.LBE582:
 240              	.LBB589:
 241              	.LBB590:
  86:./eurorack/stmlib/dsp/cosine_oscillator.h ****     y0_ = iir_coefficient_ * y0_ - y1_;
 242              		.loc 10 86 11 view .LVU64
 243 0040 90ED072A 		vldr.32	s4, [r0, #28]
 244              	.LBE590:
 245              	.LBE589:
 246              	.LBB596:
 247              	.LBB584:
  87:./eurorack/stmlib/dsp/cosine_oscillator.h ****     y0_ = iir_coefficient_ * y0_ - y1_;
ARM GAS  C:\Users\pedro\AppData\Local\Temp\ccs9bf6f.s 			page 21


 248              		.loc 10 87 34 view .LVU65
 249 0044 90ED027A 		vldr.32	s14, [r0, #8]
 250              	.LBE584:
 251              	.LBE596:
 252              	.LBB597:
 253              	.LBB591:
 254 0048 D0ED067A 		vldr.32	s15, [r0, #24]
 255              	.LBE591:
 256              	.LBE597:
 257              	.LBB598:
 258              	.LBB585:
 259 004c 90ED041A 		vldr.32	s2, [r0, #16]
 260              	.LBE585:
 261              	.LBE598:
 262              	.LBB599:
 263              	.LBB592:
 264 0050 D0ED081A 		vldr.32	s3, [r0, #32]
 265              	.LBE592:
 266              	.LBE599:
 267              	.LBB600:
 268              	.LBB586:
 269 0054 90EE017A 		vfnms.f32	s14, s0, s2
  88:./eurorack/stmlib/dsp/cosine_oscillator.h ****     y1_ = temp;
 270              		.loc 10 88 9 view .LVU66
 271 0058 80ED020A 		vstr.32	s0, [r0, #8]
 272              	.LBE586:
 273              	.LBE600:
 274              	.LBB601:
 275              	.LBB593:
  87:./eurorack/stmlib/dsp/cosine_oscillator.h ****     y0_ = iir_coefficient_ * y0_ - y1_;
 276              		.loc 10 87 34 view .LVU67
 277 005c D2EE217A 		vfnms.f32	s15, s4, s3
  88:./eurorack/stmlib/dsp/cosine_oscillator.h ****     y1_ = temp;
 278              		.loc 10 88 9 view .LVU68
 279 0060 80ED062A 		vstr.32	s4, [r0, #24]
 280              	.LBE593:
 281              	.LBE601:
 282              	.LBB602:
 283              	.LBB587:
 284              		.loc 10 89 19 view .LVU69
 285 0064 30EE260A 		vadd.f32	s0, s0, s13
 286              	.LVL14:
 287              		.loc 10 89 19 view .LVU70
 288              	.LBE587:
 289              	.LBE602:
 290              	.LBB603:
 291              	.LBB594:
 292 0068 32EE262A 		vadd.f32	s4, s4, s13
 293              	.LBE594:
 294              	.LBE603:
 295              	.LBB604:
 296              	.LBB588:
  87:./eurorack/stmlib/dsp/cosine_oscillator.h ****     y0_ = iir_coefficient_ * y0_ - y1_;
 297              		.loc 10 87 9 view .LVU71
 298 006c 80ED037A 		vstr.32	s14, [r0, #12]
 299              	.LVL15:
  88:./eurorack/stmlib/dsp/cosine_oscillator.h ****     y1_ = temp;
ARM GAS  C:\Users\pedro\AppData\Local\Temp\ccs9bf6f.s 			page 22


 300              		.loc 10 88 5 is_stmt 1 view .LVU72
 301              		.loc 10 89 5 view .LVU73
 302              		.loc 10 89 5 is_stmt 0 view .LVU74
 303              	.LBE588:
 304              	.LBE604:
 305              	.LBB605:
 306              	.LBI589:
  85:./eurorack/stmlib/dsp/cosine_oscillator.h ****     float temp = y0_;
 307              		.loc 10 85 16 is_stmt 1 view .LVU75
 308              	.LBB595:
  86:./eurorack/stmlib/dsp/cosine_oscillator.h ****     y0_ = iir_coefficient_ * y0_ - y1_;
 309              		.loc 10 86 5 view .LVU76
  87:./eurorack/stmlib/dsp/cosine_oscillator.h ****     y1_ = temp;
 310              		.loc 10 87 5 view .LVU77
  87:./eurorack/stmlib/dsp/cosine_oscillator.h ****     y1_ = temp;
 311              		.loc 10 87 9 is_stmt 0 view .LVU78
 312 0070 C0ED077A 		vstr.32	s15, [r0, #28]
 313              	.LVL16:
  88:./eurorack/stmlib/dsp/cosine_oscillator.h ****     return temp + 0.5f;
 314              		.loc 10 88 5 is_stmt 1 view .LVU79
 315              		.loc 10 89 5 view .LVU80
 316              	.L9:
 317              		.loc 10 89 5 is_stmt 0 view .LVU81
 318              	.LBE595:
 319              	.LBE605:
 320              	.LBE581:
 321              	.LBE580:
 322              	.LBE614:
 323              	.LBE617:
  96:./eurorack/rings/dsp/fx/reverb.h **** 
 324              		.loc 8 96 7 is_stmt 1 view .LVU82
 325              	.LBB618:
 326              	.LBB619:
 203:./eurorack/rings/dsp/fx/fx_engine.h ****       } else {
 327              		.loc 9 203 55 is_stmt 0 view .LVU83
 328 0074 03F19506 		add	r6, r3, #149
 329              	.LBE619:
 330              	.LBE618:
  96:./eurorack/rings/dsp/fx/reverb.h **** 
 331              		.loc 8 96 14 view .LVU84
 332 0078 D4ED001A 		vldr.32	s3, [r4]
 333              	.LVL17:
 334              	.LBB637:
 335              	.LBI637:
 153:./eurorack/rings/dsp/fx/fx_engine.h ****       accumulator_ += value * scale;
 336              		.loc 9 153 17 is_stmt 1 view .LVU85
 337              	.LBE637:
  96:./eurorack/rings/dsp/fx/reverb.h **** 
 338              		.loc 8 96 13 is_stmt 0 view .LVU86
 339 007c 92ED001A 		vldr.32	s2, [r2]
 340              	.LBB640:
 341              	.LBB641:
 203:./eurorack/rings/dsp/fx/fx_engine.h ****       } else {
 342              		.loc 9 203 55 view .LVU87
 343 0080 03F5B67C 		add	ip, r3, #364
 344              	.LBE641:
 345              	.LBE640:
ARM GAS  C:\Users\pedro\AppData\Local\Temp\ccs9bf6f.s 			page 23


 346              	.LBB658:
 347              	.LBB630:
 203:./eurorack/rings/dsp/fx/fx_engine.h ****       } else {
 348              		.loc 9 203 60 view .LVU88
 349 0084 C6F30E06 		ubfx	r6, r6, #0, #15
 350              	.LBE630:
 351              	.LBE658:
 352              	.LBB659:
 353              	.LBB638:
 154:./eurorack/rings/dsp/fx/fx_engine.h ****     }
 354              		.loc 9 154 20 view .LVU89
 355 0088 DFEDD76A 		vldr.32	s13, .L21
 356              	.LBE638:
 357              	.LBE659:
  96:./eurorack/rings/dsp/fx/reverb.h **** 
 358              		.loc 8 96 13 view .LVU90
 359 008c 31EE811A 		vadd.f32	s2, s3, s2
 360              	.LVL18:
 361              	.LBB660:
 362              	.LBB631:
 363              	.LBB620:
 364              	.LBB621:
  76:./eurorack/rings/dsp/fx/fx_engine.h ****   }
 365              		.loc 9 76 62 view .LVU91
 366 0090 9FEDD67A 		vldr.32	s14, .L21+4
  76:./eurorack/rings/dsp/fx/fx_engine.h ****   }
 367              		.loc 9 76 12 view .LVU92
 368 0094 31F91660 		ldrsh	r6, [r1, r6, lsl #1]
 369              	.LBE621:
 370              	.LBE620:
 371              	.LBE631:
 372              	.LBE660:
 373              	.LBB661:
 374              	.LBB662:
 375              	.LBB663:
 376              	.LBB664:
 377              	.LBB665:
 177:./eurorack/rings/dsp/fx/fx_engine.h ****       }
 378              		.loc 9 177 49 view .LVU93
 379 0098 CEF30E0E 		ubfx	lr, lr, #0, #15
 380              	.LBE665:
 381              	.LBE664:
 382              	.LBE663:
 383              	.LBE662:
 384              	.LBE661:
 385              	.LBB696:
 386              	.LBB697:
 244:./eurorack/rings/dsp/fx/fx_engine.h ****       MAKE_INTEGRAL_FRACTIONAL(offset);
 387              		.loc 9 244 14 view .LVU94
 388 009c DFEDD40A 		vldr.32	s1, .L21+8
 389              	.LBE697:
 390              	.LBE696:
 391              	.LBB734:
 392              	.LBB652:
 203:./eurorack/rings/dsp/fx/fx_engine.h ****       } else {
 393              		.loc 9 203 60 view .LVU95
 394 00a0 CCF30E0C 		ubfx	ip, ip, #0, #15
ARM GAS  C:\Users\pedro\AppData\Local\Temp\ccs9bf6f.s 			page 24


 395              	.LBE652:
 396              	.LBE734:
 397              	.LBB735:
 398              	.LBB632:
 399              	.LBB626:
 400              	.LBB622:
  76:./eurorack/rings/dsp/fx/fx_engine.h ****   }
 401              		.loc 9 76 12 view .LVU96
 402 00a4 07EE906A 		vmov	s15, r6	@ int
 403              	.LBE622:
 404              	.LBE626:
 405              	.LBE632:
 406              	.LBE735:
 407              	.LBB736:
 408              	.LBB639:
 154:./eurorack/rings/dsp/fx/fx_engine.h ****     }
 409              		.loc 9 154 20 view .LVU97
 410 00a8 E1EE226A 		vfma.f32	s13, s2, s5
 411              	.LVL19:
 154:./eurorack/rings/dsp/fx/fx_engine.h ****     }
 412              		.loc 9 154 20 view .LVU98
 413              	.LBE639:
 414              	.LBE736:
  99:./eurorack/rings/dsp/fx/reverb.h ****       c.WriteAllPass(ap1, -kap);
 415              		.loc 8 99 7 is_stmt 1 view .LVU99
 416              	.LBB737:
 417              	.LBI618:
 199:./eurorack/rings/dsp/fx/fx_engine.h ****       STATIC_ASSERT(D::base + D::length <= size, delay_memory_full);
 418              		.loc 9 199 17 view .LVU100
 419              	.LBB633:
 420              	.LBB627:
 421              	.LBI620:
  75:./eurorack/rings/dsp/fx/fx_engine.h ****     return static_cast<float>(static_cast<int16_t>(value)) / 32768.0f;
 422              		.loc 9 75 23 view .LVU101
 423              	.LBB623:
  76:./eurorack/rings/dsp/fx/fx_engine.h ****   }
 424              		.loc 9 76 5 view .LVU102
 425              	.LBE623:
 426              	.LBE627:
 427              	.LBE633:
 428              	.LBE737:
 429              	.LBB738:
 430              	.LBB716:
 244:./eurorack/rings/dsp/fx/fx_engine.h ****       MAKE_INTEGRAL_FRACTIONAL(offset);
 431              		.loc 9 244 14 is_stmt 0 view .LVU103
 432 00ac 9FEDD11A 		vldr.32	s2, .L21+12
 433              	.LBE716:
 434              	.LBE738:
 435              	.LBB739:
 436              	.LBB740:
 437              	.LBB741:
 438              	.LBB742:
 439              	.LBB743:
 177:./eurorack/rings/dsp/fx/fx_engine.h ****       }
 440              		.loc 9 177 29 view .LVU104
 441 00b0 03F1970A 		add	r10, r3, #151
 442              	.LBE743:
ARM GAS  C:\Users\pedro\AppData\Local\Temp\ccs9bf6f.s 			page 25


 443              	.LBE742:
 444              	.LBE741:
 445              	.LBE740:
 446              	.LBE739:
 447              	.LBB762:
 448              	.LBB634:
 449              	.LBB628:
 450              	.LBB624:
  76:./eurorack/rings/dsp/fx/fx_engine.h ****   }
 451              		.loc 9 76 12 view .LVU105
 452 00b4 F8EEE77A 		vcvt.f32.s32	s15, s15
 453              	.LBE624:
 454              	.LBE628:
 455              	.LBE634:
 456              	.LBE762:
 457              	.LBB763:
 458              	.LBB764:
 244:./eurorack/rings/dsp/fx/fx_engine.h ****       MAKE_INTEGRAL_FRACTIONAL(offset);
 459              		.loc 9 244 14 view .LVU106
 460 00b8 9FEDCF8A 		vldr.32	s16, .L21+16
 461              	.LBE764:
 462              	.LBE763:
 463              	.LBB799:
 464              	.LBB717:
 465 00bc E2EE010A 		vfma.f32	s1, s4, s2
 466              	.LBE717:
 467              	.LBE799:
 468              	.LBB800:
 469              	.LBB783:
 470 00c0 9FEDCE1A 		vldr.32	s2, .L21+20
 471              	.LBE783:
 472              	.LBE800:
 473              	.LBB801:
 474              	.LBB802:
 203:./eurorack/rings/dsp/fx/fx_engine.h ****       } else {
 475              		.loc 9 203 55 view .LVU107
 476 00c4 03F52B79 		add	r9, r3, #684
 477              	.LBE802:
 478              	.LBE801:
 479              	.LBB813:
 480              	.LBB760:
 481              	.LBB758:
 482              	.LBB755:
 483              	.LBB752:
 177:./eurorack/rings/dsp/fx/fx_engine.h ****       }
 484              		.loc 9 177 49 view .LVU108
 485 00c8 CAF30E0A 		ubfx	r10, r10, #0, #15
 486              	.LBE752:
 487              	.LBE755:
 488              	.LBE758:
 489              	.LBE760:
 490              	.LBE813:
 491              	.LBB814:
 492              	.LBB635:
 493              	.LBB629:
 494              	.LBB625:
  76:./eurorack/rings/dsp/fx/fx_engine.h ****   }
ARM GAS  C:\Users\pedro\AppData\Local\Temp\ccs9bf6f.s 			page 26


 495              		.loc 9 76 62 view .LVU109
 496 00cc 67EE877A 		vmul.f32	s15, s15, s14
 497              	.LVL20:
  76:./eurorack/rings/dsp/fx/fx_engine.h ****   }
 498              		.loc 9 76 62 view .LVU110
 499              	.LBE625:
 500              	.LBE629:
 501              	.LBE635:
 502              	.LBE814:
 503              	.LBB815:
 504              	.LBB816:
 505              	.LBB817:
 506              	.LBB818:
 507              	.LBB819:
 177:./eurorack/rings/dsp/fx/fx_engine.h ****       }
 508              		.loc 9 177 29 view .LVU111
 509 00d0 03F5B778 		add	r8, r3, #366
 510              	.LBE819:
 511              	.LBE818:
 512              	.LBE817:
 513              	.LBE816:
 514              	.LBE815:
 515              	.LBB838:
 516              	.LBB784:
 244:./eurorack/rings/dsp/fx/fx_engine.h ****       MAKE_INTEGRAL_FRACTIONAL(offset);
 517              		.loc 9 244 14 view .LVU112
 518 00d4 A0EE081A 		vfma.f32	s2, s0, s16
 519              	.LBE784:
 520              	.LBE838:
 521              	.LBB839:
 522              	.LBB809:
 203:./eurorack/rings/dsp/fx/fx_engine.h ****       } else {
 523              		.loc 9 203 60 view .LVU113
 524 00d8 C9F30E09 		ubfx	r9, r9, #0, #15
 525              	.LBE809:
 526              	.LBE839:
 527              	.LBB840:
 528              	.LBB841:
 203:./eurorack/rings/dsp/fx/fx_engine.h ****       } else {
 529              		.loc 9 203 55 view .LVU114
 530 00dc 03F2BC46 		addw	r6, r3, #1212
 531              	.LBE841:
 532              	.LBE840:
 533              	.LBB859:
 534              	.LBB836:
 535              	.LBB834:
 536              	.LBB831:
 537              	.LBB828:
 177:./eurorack/rings/dsp/fx/fx_engine.h ****       }
 538              		.loc 9 177 49 view .LVU115
 539 00e0 C8F30E08 		ubfx	r8, r8, #0, #15
 540              	.LBE828:
 541              	.LBE831:
 542              	.LBE834:
 543              	.LBE836:
 544              	.LBE859:
 545              	.LBB860:
ARM GAS  C:\Users\pedro\AppData\Local\Temp\ccs9bf6f.s 			page 27


 546              	.LBB636:
 209:./eurorack/rings/dsp/fx/fx_engine.h ****     }
 547              		.loc 9 209 20 view .LVU116
 548 00e4 E6EE276A 		vfma.f32	s13, s12, s15
 549              	.LVL21:
 209:./eurorack/rings/dsp/fx/fx_engine.h ****     }
 550              		.loc 9 209 20 view .LVU117
 551              	.LBE636:
 552              	.LBE860:
 553              		.loc 8 100 7 is_stmt 1 view .LVU118
 554              	.LBB861:
 555              	.LBI661:
 194:./eurorack/rings/dsp/fx/fx_engine.h ****       WriteAllPass(d, 0, scale);
 556              		.loc 9 194 17 view .LVU119
 557              	.LBB692:
 558              	.LBI662:
 188:./eurorack/rings/dsp/fx/fx_engine.h ****       Write(d, offset, scale);
 559              		.loc 9 188 17 view .LVU120
 560              	.LBB688:
 561              	.LBB683:
 562              	.LBI664:
 171:./eurorack/rings/dsp/fx/fx_engine.h ****       STATIC_ASSERT(D::base + D::length <= size, delay_memory_full);
 563              		.loc 9 171 17 view .LVU121
 564              	.LBB678:
 565              	.LBB666:
 566              	.LBI666:
  79:./eurorack/rings/dsp/fx/fx_engine.h ****     return static_cast<uint16_t>(
 567              		.loc 9 79 19 view .LVU122
 568              	.LBB667:
  80:./eurorack/rings/dsp/fx/fx_engine.h ****         stmlib::Clip16(static_cast<int32_t>(value * 32768.0f)));
 569              		.loc 9 80 5 view .LVU123
 570              	.LBB668:
 571              	.LBI668:
 572              		.file 11 "./eurorack/stmlib/dsp/dsp.h"
   1:./eurorack/stmlib/dsp/dsp.h **** // Copyright 2012 Emilie Gillet.
   2:./eurorack/stmlib/dsp/dsp.h **** //
   3:./eurorack/stmlib/dsp/dsp.h **** // Author: Emilie Gillet (emilie.o.gillet@gmail.com)
   4:./eurorack/stmlib/dsp/dsp.h **** //
   5:./eurorack/stmlib/dsp/dsp.h **** // Permission is hereby granted, free of charge, to any person obtaining a copy
   6:./eurorack/stmlib/dsp/dsp.h **** // of this software and associated documentation files (the "Software"), to deal
   7:./eurorack/stmlib/dsp/dsp.h **** // in the Software without restriction, including without limitation the rights
   8:./eurorack/stmlib/dsp/dsp.h **** // to use, copy, modify, merge, publish, distribute, sublicense, and/or sell
   9:./eurorack/stmlib/dsp/dsp.h **** // copies of the Software, and to permit persons to whom the Software is
  10:./eurorack/stmlib/dsp/dsp.h **** // furnished to do so, subject to the following conditions:
  11:./eurorack/stmlib/dsp/dsp.h **** // 
  12:./eurorack/stmlib/dsp/dsp.h **** // The above copyright notice and this permission notice shall be included in
  13:./eurorack/stmlib/dsp/dsp.h **** // all copies or substantial portions of the Software.
  14:./eurorack/stmlib/dsp/dsp.h **** // 
  15:./eurorack/stmlib/dsp/dsp.h **** // THE SOFTWARE IS PROVIDED "AS IS", WITHOUT WARRANTY OF ANY KIND, EXPRESS OR
  16:./eurorack/stmlib/dsp/dsp.h **** // IMPLIED, INCLUDING BUT NOT LIMITED TO THE WARRANTIES OF MERCHANTABILITY,
  17:./eurorack/stmlib/dsp/dsp.h **** // FITNESS FOR A PARTICULAR PURPOSE AND NONINFRINGEMENT. IN NO EVENT SHALL THE
  18:./eurorack/stmlib/dsp/dsp.h **** // AUTHORS OR COPYRIGHT HOLDERS BE LIABLE FOR ANY CLAIM, DAMAGES OR OTHER
  19:./eurorack/stmlib/dsp/dsp.h **** // LIABILITY, WHETHER IN AN ACTION OF CONTRACT, TORT OR OTHERWISE, ARISING FROM,
  20:./eurorack/stmlib/dsp/dsp.h **** // OUT OF OR IN CONNECTION WITH THE SOFTWARE OR THE USE OR OTHER DEALINGS IN
  21:./eurorack/stmlib/dsp/dsp.h **** // THE SOFTWARE.
  22:./eurorack/stmlib/dsp/dsp.h **** // 
  23:./eurorack/stmlib/dsp/dsp.h **** // See http://creativecommons.org/licenses/MIT/ for more information.
ARM GAS  C:\Users\pedro\AppData\Local\Temp\ccs9bf6f.s 			page 28


  24:./eurorack/stmlib/dsp/dsp.h **** //
  25:./eurorack/stmlib/dsp/dsp.h **** // -----------------------------------------------------------------------------
  26:./eurorack/stmlib/dsp/dsp.h **** //
  27:./eurorack/stmlib/dsp/dsp.h **** // DSP utility routines.
  28:./eurorack/stmlib/dsp/dsp.h **** 
  29:./eurorack/stmlib/dsp/dsp.h **** #ifndef STMLIB_UTILS_DSP_DSP_H_
  30:./eurorack/stmlib/dsp/dsp.h **** #define STMLIB_UTILS_DSP_DSP_H_
  31:./eurorack/stmlib/dsp/dsp.h **** 
  32:./eurorack/stmlib/dsp/dsp.h **** #include "stmlib/stmlib.h"
  33:./eurorack/stmlib/dsp/dsp.h **** 
  34:./eurorack/stmlib/dsp/dsp.h **** #include <cmath>
  35:./eurorack/stmlib/dsp/dsp.h **** #include <math.h>
  36:./eurorack/stmlib/dsp/dsp.h **** 
  37:./eurorack/stmlib/dsp/dsp.h **** namespace stmlib {
  38:./eurorack/stmlib/dsp/dsp.h **** 
  39:./eurorack/stmlib/dsp/dsp.h **** #define MAKE_INTEGRAL_FRACTIONAL(x) \
  40:./eurorack/stmlib/dsp/dsp.h ****   int32_t x ## _integral = static_cast<int32_t>(x); \
  41:./eurorack/stmlib/dsp/dsp.h ****   float x ## _fractional = x - static_cast<float>(x ## _integral);
  42:./eurorack/stmlib/dsp/dsp.h **** 
  43:./eurorack/stmlib/dsp/dsp.h **** inline float Interpolate(const float* table, float index, float size) {
  44:./eurorack/stmlib/dsp/dsp.h ****   index *= size;
  45:./eurorack/stmlib/dsp/dsp.h ****   MAKE_INTEGRAL_FRACTIONAL(index)
  46:./eurorack/stmlib/dsp/dsp.h ****   float a = table[index_integral];
  47:./eurorack/stmlib/dsp/dsp.h ****   float b = table[index_integral + 1];
  48:./eurorack/stmlib/dsp/dsp.h ****   return a + (b - a) * index_fractional;
  49:./eurorack/stmlib/dsp/dsp.h **** }
  50:./eurorack/stmlib/dsp/dsp.h **** 
  51:./eurorack/stmlib/dsp/dsp.h **** 
  52:./eurorack/stmlib/dsp/dsp.h **** inline float InterpolateHermite(const float* table, float index, float size) {
  53:./eurorack/stmlib/dsp/dsp.h ****   index *= size;
  54:./eurorack/stmlib/dsp/dsp.h ****   MAKE_INTEGRAL_FRACTIONAL(index)
  55:./eurorack/stmlib/dsp/dsp.h ****   const float xm1 = table[index_integral - 1];
  56:./eurorack/stmlib/dsp/dsp.h ****   const float x0 = table[index_integral + 0];
  57:./eurorack/stmlib/dsp/dsp.h ****   const float x1 = table[index_integral + 1];
  58:./eurorack/stmlib/dsp/dsp.h ****   const float x2 = table[index_integral + 2];
  59:./eurorack/stmlib/dsp/dsp.h ****   const float c = (x1 - xm1) * 0.5f;
  60:./eurorack/stmlib/dsp/dsp.h ****   const float v = x0 - x1;
  61:./eurorack/stmlib/dsp/dsp.h ****   const float w = c + v;
  62:./eurorack/stmlib/dsp/dsp.h ****   const float a = w + v + (x2 - x0) * 0.5f;
  63:./eurorack/stmlib/dsp/dsp.h ****   const float b_neg = w + a;
  64:./eurorack/stmlib/dsp/dsp.h ****   const float f = index_fractional;
  65:./eurorack/stmlib/dsp/dsp.h ****   return (((a * f) - b_neg) * f + c) * f + x0;
  66:./eurorack/stmlib/dsp/dsp.h **** }
  67:./eurorack/stmlib/dsp/dsp.h **** 
  68:./eurorack/stmlib/dsp/dsp.h **** inline float InterpolateWrap(const float* table, float index, float size) {
  69:./eurorack/stmlib/dsp/dsp.h ****   index -= static_cast<float>(static_cast<int32_t>(index));
  70:./eurorack/stmlib/dsp/dsp.h ****   index *= size;
  71:./eurorack/stmlib/dsp/dsp.h ****   MAKE_INTEGRAL_FRACTIONAL(index)
  72:./eurorack/stmlib/dsp/dsp.h ****   float a = table[index_integral];
  73:./eurorack/stmlib/dsp/dsp.h ****   float b = table[index_integral + 1];
  74:./eurorack/stmlib/dsp/dsp.h ****   return a + (b - a) * index_fractional;
  75:./eurorack/stmlib/dsp/dsp.h **** }
  76:./eurorack/stmlib/dsp/dsp.h **** 
  77:./eurorack/stmlib/dsp/dsp.h **** #define ONE_POLE(out, in, coefficient) out += (coefficient) * ((in) - out);
  78:./eurorack/stmlib/dsp/dsp.h **** #define SLOPE(out, in, positive, negative) { \
  79:./eurorack/stmlib/dsp/dsp.h ****   float error = (in) - out; \
  80:./eurorack/stmlib/dsp/dsp.h ****   out += (error > 0 ? positive : negative) * error; \
ARM GAS  C:\Users\pedro\AppData\Local\Temp\ccs9bf6f.s 			page 29


  81:./eurorack/stmlib/dsp/dsp.h **** }
  82:./eurorack/stmlib/dsp/dsp.h **** #define SLEW(out, in, delta) { \
  83:./eurorack/stmlib/dsp/dsp.h ****   float error = (in) - out; \
  84:./eurorack/stmlib/dsp/dsp.h ****   float d = (delta); \
  85:./eurorack/stmlib/dsp/dsp.h ****   if (error > d) { \
  86:./eurorack/stmlib/dsp/dsp.h ****     error = d; \
  87:./eurorack/stmlib/dsp/dsp.h ****   } else if (error < -d) { \
  88:./eurorack/stmlib/dsp/dsp.h ****     error = -d; \
  89:./eurorack/stmlib/dsp/dsp.h ****   } \
  90:./eurorack/stmlib/dsp/dsp.h ****   out += error; \
  91:./eurorack/stmlib/dsp/dsp.h **** }
  92:./eurorack/stmlib/dsp/dsp.h **** 
  93:./eurorack/stmlib/dsp/dsp.h **** inline float Crossfade(float a, float b, float fade) {
  94:./eurorack/stmlib/dsp/dsp.h ****   return a + (b - a) * fade;
  95:./eurorack/stmlib/dsp/dsp.h **** }
  96:./eurorack/stmlib/dsp/dsp.h **** 
  97:./eurorack/stmlib/dsp/dsp.h **** inline float SoftLimit(float x) {
  98:./eurorack/stmlib/dsp/dsp.h ****   return x * (27.0f + x * x) / (27.0f + 9.0f * x * x);
  99:./eurorack/stmlib/dsp/dsp.h **** }
 100:./eurorack/stmlib/dsp/dsp.h **** 
 101:./eurorack/stmlib/dsp/dsp.h **** inline float SoftClip(float x) {
 102:./eurorack/stmlib/dsp/dsp.h ****   if (x < -3.0f) {
 103:./eurorack/stmlib/dsp/dsp.h ****     return -1.0f;
 104:./eurorack/stmlib/dsp/dsp.h ****   } else if (x > 3.0f) {
 105:./eurorack/stmlib/dsp/dsp.h ****     return 1.0f;
 106:./eurorack/stmlib/dsp/dsp.h ****   } else {
 107:./eurorack/stmlib/dsp/dsp.h ****     return SoftLimit(x);
 108:./eurorack/stmlib/dsp/dsp.h ****   }
 109:./eurorack/stmlib/dsp/dsp.h **** }
 110:./eurorack/stmlib/dsp/dsp.h **** 
 111:./eurorack/stmlib/dsp/dsp.h **** #ifdef TEST
 112:./eurorack/stmlib/dsp/dsp.h ****   inline int32_t Clip16(int32_t x) {
 113:./eurorack/stmlib/dsp/dsp.h ****     if (x < -32768) {
 114:./eurorack/stmlib/dsp/dsp.h ****       return -32768;
 115:./eurorack/stmlib/dsp/dsp.h ****     } else if (x > 32767) {
 116:./eurorack/stmlib/dsp/dsp.h ****       return 32767;
 117:./eurorack/stmlib/dsp/dsp.h ****     } else {
 118:./eurorack/stmlib/dsp/dsp.h ****       return x;
 119:./eurorack/stmlib/dsp/dsp.h ****     }
 120:./eurorack/stmlib/dsp/dsp.h ****   }
 121:./eurorack/stmlib/dsp/dsp.h ****   inline uint16_t ClipU16(int32_t x) {
 122:./eurorack/stmlib/dsp/dsp.h ****     if (x < 0) {
 123:./eurorack/stmlib/dsp/dsp.h ****       return 0;
 124:./eurorack/stmlib/dsp/dsp.h ****     } else if (x > 65535) {
 125:./eurorack/stmlib/dsp/dsp.h ****       return 65535;
 126:./eurorack/stmlib/dsp/dsp.h ****     } else {
 127:./eurorack/stmlib/dsp/dsp.h ****       return x;
 128:./eurorack/stmlib/dsp/dsp.h ****     }
 129:./eurorack/stmlib/dsp/dsp.h ****   }
 130:./eurorack/stmlib/dsp/dsp.h **** #else
 131:./eurorack/stmlib/dsp/dsp.h ****   inline int32_t Clip16(int32_t x) {
 573              		.loc 11 131 18 view .LVU124
 574              	.LBB669:
 132:./eurorack/stmlib/dsp/dsp.h ****     int32_t result;
 575              		.loc 11 132 5 view .LVU125
 133:./eurorack/stmlib/dsp/dsp.h ****     __asm ("ssat %0, %1, %2" : "=r" (result) :  "I" (16), "r" (x) );
 576              		.loc 11 133 5 view .LVU126
ARM GAS  C:\Users\pedro\AppData\Local\Temp\ccs9bf6f.s 			page 30


 577              	.LBE669:
 578              	.LBE668:
 579              	.LBE667:
 580              	.LBE666:
 581              	.LBE678:
 582              	.LBE683:
 583              	.LBE688:
 584              	.LBE692:
 585              	.LBE861:
 586              	.LBB862:
 587              	.LBB863:
 588              	.LBB864:
 589              	.LBB865:
 590              	.LBB866:
 177:./eurorack/rings/dsp/fx/fx_engine.h ****       }
 591              		.loc 9 177 29 is_stmt 0 view .LVU127
 592 00e8 03F2AE27 		addw	r7, r3, #686
 593              	.LBE866:
 594              	.LBE865:
 595              	.LBE864:
 596              	.LBE863:
 597              	.LBE862:
 598              	.LBB885:
 599              	.LBB852:
 203:./eurorack/rings/dsp/fx/fx_engine.h ****       } else {
 600              		.loc 9 203 60 view .LVU128
 601 00ec C6F30E06 		ubfx	r6, r6, #0, #15
 602              	.LBE852:
 603              	.LBE885:
 101:./eurorack/rings/dsp/fx/reverb.h ****       c.Read(ap2 TAIL, kap);
 102:./eurorack/rings/dsp/fx/reverb.h ****       c.WriteAllPass(ap2, -kap);
 103:./eurorack/rings/dsp/fx/reverb.h ****       c.Read(ap3 TAIL, kap);
 104:./eurorack/rings/dsp/fx/reverb.h ****       c.WriteAllPass(ap3, -kap);
 105:./eurorack/rings/dsp/fx/reverb.h ****       c.Read(ap4 TAIL, kap);
 106:./eurorack/rings/dsp/fx/reverb.h ****       c.WriteAllPass(ap4, -kap);
 107:./eurorack/rings/dsp/fx/reverb.h ****       c.Write(apout);
 108:./eurorack/rings/dsp/fx/reverb.h ****       
 109:./eurorack/rings/dsp/fx/reverb.h ****       // Main reverb loop.
 110:./eurorack/rings/dsp/fx/reverb.h ****       c.Load(apout);
 111:./eurorack/rings/dsp/fx/reverb.h ****       c.Interpolate(del2, 6261.0f, LFO_2, 50.0f, krt);
 112:./eurorack/rings/dsp/fx/reverb.h ****       c.Lp(lp_1, klp);
 113:./eurorack/rings/dsp/fx/reverb.h ****       c.Read(dap1a TAIL, -kap);
 114:./eurorack/rings/dsp/fx/reverb.h ****       c.WriteAllPass(dap1a, kap);
 115:./eurorack/rings/dsp/fx/reverb.h ****       c.Read(dap1b TAIL, kap);
 116:./eurorack/rings/dsp/fx/reverb.h ****       c.WriteAllPass(dap1b, -kap);
 117:./eurorack/rings/dsp/fx/reverb.h ****       c.Write(del1, 2.0f);
 118:./eurorack/rings/dsp/fx/reverb.h ****       c.Write(wet, 0.0f);
 119:./eurorack/rings/dsp/fx/reverb.h **** 
 120:./eurorack/rings/dsp/fx/reverb.h ****       *left += (wet - *left) * amount;
 604              		.loc 8 120 21 view .LVU129
 605 00f0 B0EE002A 		vmov.f32	s4, #2.0e+0
 606              	.LVL22:
 607              	.LBB886:
 608              	.LBB883:
 609              	.LBB881:
 610              	.LBB878:
 611              	.LBB875:
ARM GAS  C:\Users\pedro\AppData\Local\Temp\ccs9bf6f.s 			page 31


 177:./eurorack/rings/dsp/fx/fx_engine.h ****       }
 612              		.loc 9 177 49 view .LVU130
 613 00f4 C7F30E07 		ubfx	r7, r7, #0, #15
 614              	.LBE875:
 615              	.LBE878:
 616              	.LBE881:
 617              	.LBE883:
 618              	.LBE886:
 619              	.LBE1215:
  87:./eurorack/rings/dsp/fx/reverb.h ****       float wet;
 620              		.loc 8 87 16 view .LVU131
 621 00f8 013D     		subs	r5, r5, #1
 622              	.LVL23:
 623              	.LBB1216:
 624              	.LBB887:
 625              	.LBB785:
 245:./eurorack/rings/dsp/fx/fx_engine.h ****       float a = DataType<format>::Decompress(
 626              		.loc 9 245 7 view .LVU132
 627 00fa BDEEC18A 		vcvt.s32.f32	s16, s2
 628              	.LBE785:
 629              	.LBE887:
 630              	.LBB888:
 631              	.LBB693:
 632              	.LBB689:
 633              	.LBB684:
 634              	.LBB679:
 635              	.LBB675:
 636              	.LBB672:
  81:./eurorack/rings/dsp/fx/fx_engine.h ****   }
 637              		.loc 9 81 23 view .LVU133
 638 00fe B0EE660A 		vmov.f32	s0, s13
 639              	.LVL24:
  81:./eurorack/rings/dsp/fx/fx_engine.h ****   }
 640              		.loc 9 81 23 view .LVU134
 641              	.LBE672:
 642              	.LBE675:
 643              	.LBE679:
 644              	.LBE684:
 190:./eurorack/rings/dsp/fx/fx_engine.h ****     }
 645              		.loc 9 190 20 view .LVU135
 646 0102 E5EEA67A 		vfma.f32	s15, s11, s13
 647              	.LVL25:
 648              	.LBB685:
 649              	.LBB680:
 650              	.LBB676:
 651              	.LBB673:
  81:./eurorack/rings/dsp/fx/fx_engine.h ****   }
 652              		.loc 9 81 23 view .LVU136
 653 0106 BEEEE80A 		vcvt.s32.f32	s0, s0, #15
 654 010a 10EE10BA 		vmov	fp, s0	@ int
 655              	.LBE673:
 656              	.LBE676:
 657              	.LBE680:
 658              	.LBE685:
 659              	.LBE689:
 660              	.LBE693:
 661              	.LBE888:
ARM GAS  C:\Users\pedro\AppData\Local\Temp\ccs9bf6f.s 			page 32


 662              	.LBB889:
 663              	.LBB718:
 245:./eurorack/rings/dsp/fx/fx_engine.h ****       float a = DataType<format>::Decompress(
 664              		.loc 9 245 7 view .LVU137
 665 010e BDEEE00A 		vcvt.s32.f32	s0, s1
 666              	.LBE718:
 667              	.LBE889:
 668              	.LBB890:
 669              	.LBB694:
 670              	.LBB690:
 671              	.LBB686:
 672              	.LBB681:
 673              	.LBB677:
 674              	.LBB674:
 675              	.LBB671:
 676              	.LBB670:
 677              		.loc 11 133 5 view .LVU138
 678              		.syntax unified
 679              	@ 133 "./eurorack/stmlib/dsp/dsp.h" 1
 680 0112 0BF30F0B 		ssat fp, #16, fp
 681              	@ 0 "" 2
 682              	.LVL26:
 134:./eurorack/stmlib/dsp/dsp.h ****     return result;
 683              		.loc 11 134 5 is_stmt 1 view .LVU139
 684              		.loc 11 134 5 is_stmt 0 view .LVU140
 685              		.thumb
 686              		.syntax unified
 687              	.LBE670:
 688              	.LBE671:
  81:./eurorack/rings/dsp/fx/fx_engine.h ****   }
 689              		.loc 9 81 63 view .LVU141
 690 0116 21F81EB0 		strh	fp, [r1, lr, lsl #1]	@ movhi
 691              	.LVL27:
  81:./eurorack/rings/dsp/fx/fx_engine.h ****   }
 692              		.loc 9 81 63 view .LVU142
 693              	.LBE674:
 694              	.LBE677:
 695              	.LBE681:
 696              	.LBE686:
 697              	.LBE690:
 698              	.LBE694:
 699              	.LBE890:
 101:./eurorack/rings/dsp/fx/reverb.h ****       c.WriteAllPass(ap2, -kap);
 700              		.loc 8 101 7 is_stmt 1 view .LVU143
 701              	.LBB891:
 702              	.LBI640:
 199:./eurorack/rings/dsp/fx/fx_engine.h ****       STATIC_ASSERT(D::base + D::length <= size, delay_memory_full);
 703              		.loc 9 199 17 view .LVU144
 704              	.LBB653:
 705              	.LBB642:
 706              	.LBI642:
  75:./eurorack/rings/dsp/fx/fx_engine.h ****     return static_cast<float>(static_cast<int16_t>(value)) / 32768.0f;
 707              		.loc 9 75 23 view .LVU145
 708              	.LBB643:
  76:./eurorack/rings/dsp/fx/fx_engine.h ****   }
 709              		.loc 9 76 5 view .LVU146
 710              	.LBE643:
ARM GAS  C:\Users\pedro\AppData\Local\Temp\ccs9bf6f.s 			page 33


 711              	.LBE642:
 712              	.LBE653:
 713              	.LBE891:
 714              	.LBB892:
 715              	.LBB719:
 247:./eurorack/rings/dsp/fx/fx_engine.h ****       float b = DataType<format>::Decompress(
 716              		.loc 9 247 49 is_stmt 0 view .LVU147
 717 011a 43F6D23E 		movw	lr, #15314
 718              	.LBE719:
 719              	.LBE892:
 720              	.LBB893:
 721              	.LBB654:
 722              	.LBB648:
 723              	.LBB644:
  76:./eurorack/rings/dsp/fx/fx_engine.h ****   }
 724              		.loc 9 76 12 view .LVU148
 725 011e 31F91CC0 		ldrsh	ip, [r1, ip, lsl #1]
 726              	.LBE644:
 727              	.LBE648:
 728              	.LBE654:
 729              	.LBE893:
 730              	.LBB894:
 731              	.LBB720:
 245:./eurorack/rings/dsp/fx/fx_engine.h ****       float a = DataType<format>::Decompress(
 732              		.loc 9 245 7 view .LVU149
 733 0122 F8EEC08A 		vcvt.f32.s32	s17, s0
 734              	.LBE720:
 735              	.LBE894:
 736              	.LBB895:
 737              	.LBB655:
 738              	.LBB649:
 739              	.LBB645:
  76:./eurorack/rings/dsp/fx/fx_engine.h ****   }
 740              		.loc 9 76 12 view .LVU150
 741 0126 06EE90CA 		vmov	s13, ip	@ int
 742              	.LBE645:
 743              	.LBE649:
 744              	.LBE655:
 745              	.LBE895:
 746              	.LBB896:
 747              	.LBB721:
 247:./eurorack/rings/dsp/fx/fx_engine.h ****       float b = DataType<format>::Decompress(
 748              		.loc 9 247 31 view .LVU151
 749 012a 10EE10CA 		vmov	ip, s0	@ int
 750              	.LBE721:
 751              	.LBE896:
 752              	.LBB897:
 753              	.LBB786:
 245:./eurorack/rings/dsp/fx/fx_engine.h ****       float a = DataType<format>::Decompress(
 754              		.loc 9 245 7 view .LVU152
 755 012e B8EEC80A 		vcvt.f32.s32	s0, s16
 756              	.LBE786:
 757              	.LBE897:
 758              	.LBB898:
 759              	.LBB656:
 760              	.LBB650:
 761              	.LBB646:
ARM GAS  C:\Users\pedro\AppData\Local\Temp\ccs9bf6f.s 			page 34


  76:./eurorack/rings/dsp/fx/fx_engine.h ****   }
 762              		.loc 9 76 12 view .LVU153
 763 0132 F8EEE66A 		vcvt.f32.s32	s13, s13
 764              	.LBE646:
 765              	.LBE650:
 766              	.LBE656:
 767              	.LBE898:
 768              	.LBB899:
 769              	.LBB722:
 247:./eurorack/rings/dsp/fx/fx_engine.h ****       float b = DataType<format>::Decompress(
 770              		.loc 9 247 31 view .LVU154
 771 0136 9C44     		add	ip, ip, r3
 245:./eurorack/rings/dsp/fx/fx_engine.h ****       float a = DataType<format>::Decompress(
 772              		.loc 9 245 7 view .LVU155
 773 0138 70EEE80A 		vsub.f32	s1, s1, s17
 774              	.LBE722:
 775              	.LBE899:
 776              	.LBB900:
 777              	.LBB787:
 778 013c 31EE401A 		vsub.f32	s2, s2, s0
 779              	.LBE787:
 780              	.LBE900:
 781              	.LBB901:
 782              	.LBB657:
 783              	.LBB651:
 784              	.LBB647:
  76:./eurorack/rings/dsp/fx/fx_engine.h ****   }
 785              		.loc 9 76 62 view .LVU156
 786 0140 66EE876A 		vmul.f32	s13, s13, s14
 787              	.LVL28:
  76:./eurorack/rings/dsp/fx/fx_engine.h ****   }
 788              		.loc 9 76 62 view .LVU157
 789              	.LBE647:
 790              	.LBE651:
 209:./eurorack/rings/dsp/fx/fx_engine.h ****     }
 791              		.loc 9 209 20 view .LVU158
 792 0144 E6EE267A 		vfma.f32	s15, s12, s13
 793              	.LVL29:
 209:./eurorack/rings/dsp/fx/fx_engine.h ****     }
 794              		.loc 9 209 20 view .LVU159
 795              	.LBE657:
 796              	.LBE901:
 102:./eurorack/rings/dsp/fx/reverb.h ****       c.Read(ap3 TAIL, kap);
 797              		.loc 8 102 7 is_stmt 1 view .LVU160
 798              	.LBB902:
 799              	.LBI739:
 194:./eurorack/rings/dsp/fx/fx_engine.h ****       WriteAllPass(d, 0, scale);
 800              		.loc 9 194 17 view .LVU161
 801              	.LBB761:
 802              	.LBI740:
 188:./eurorack/rings/dsp/fx/fx_engine.h ****       Write(d, offset, scale);
 803              		.loc 9 188 17 view .LVU162
 804              	.LBB759:
 805              	.LBB756:
 806              	.LBI742:
 171:./eurorack/rings/dsp/fx/fx_engine.h ****       STATIC_ASSERT(D::base + D::length <= size, delay_memory_full);
 807              		.loc 9 171 17 view .LVU163
ARM GAS  C:\Users\pedro\AppData\Local\Temp\ccs9bf6f.s 			page 35


 808              	.LBB753:
 809              	.LBB744:
 810              	.LBI744:
  79:./eurorack/rings/dsp/fx/fx_engine.h ****     return static_cast<uint16_t>(
 811              		.loc 9 79 19 view .LVU164
 812              	.LBB745:
  80:./eurorack/rings/dsp/fx/fx_engine.h ****         stmlib::Clip16(static_cast<int32_t>(value * 32768.0f)));
 813              		.loc 9 80 5 view .LVU165
 814              	.LBB746:
 815              	.LBI746:
 131:./eurorack/stmlib/dsp/dsp.h ****     int32_t result;
 816              		.loc 11 131 18 view .LVU166
 817              	.LBB747:
 132:./eurorack/stmlib/dsp/dsp.h ****     __asm ("ssat %0, %1, %2" : "=r" (result) :  "I" (16), "r" (x) );
 818              		.loc 11 132 5 view .LVU167
 133:./eurorack/stmlib/dsp/dsp.h ****     return result;
 819              		.loc 11 133 5 view .LVU168
 820              	.LBE747:
 821              	.LBE746:
  81:./eurorack/rings/dsp/fx/fx_engine.h ****   }
 822              		.loc 9 81 23 is_stmt 0 view .LVU169
 823 0148 B0EE670A 		vmov.f32	s0, s15
 824              	.LBE745:
 825              	.LBE744:
 826              	.LBE753:
 827              	.LBE756:
 190:./eurorack/rings/dsp/fx/fx_engine.h ****     }
 828              		.loc 9 190 20 view .LVU170
 829 014c E7EEA56A 		vfma.f32	s13, s15, s11
 830              	.LVL30:
 831              	.LBB757:
 832              	.LBB754:
 833              	.LBB751:
 834              	.LBB750:
  81:./eurorack/rings/dsp/fx/fx_engine.h ****   }
 835              		.loc 9 81 23 view .LVU171
 836 0150 BEEEE80A 		vcvt.s32.f32	s0, s0, #15
 837 0154 10EE10BA 		vmov	fp, s0	@ int
 838              	.LVL31:
 839              	.LBB749:
 840              	.LBB748:
 133:./eurorack/stmlib/dsp/dsp.h ****     return result;
 841              		.loc 11 133 5 view .LVU172
 842              		.syntax unified
 843              	@ 133 "./eurorack/stmlib/dsp/dsp.h" 1
 844 0158 0BF30F0B 		ssat fp, #16, fp
 845              	@ 0 "" 2
 846              	.LVL32:
 847              		.loc 11 134 5 is_stmt 1 view .LVU173
 848              		.loc 11 134 5 is_stmt 0 view .LVU174
 849              		.thumb
 850              		.syntax unified
 851              	.LBE748:
 852              	.LBE749:
  81:./eurorack/rings/dsp/fx/fx_engine.h ****   }
 853              		.loc 9 81 63 view .LVU175
 854 015c 21F81AB0 		strh	fp, [r1, r10, lsl #1]	@ movhi
ARM GAS  C:\Users\pedro\AppData\Local\Temp\ccs9bf6f.s 			page 36


 855              	.LVL33:
  81:./eurorack/rings/dsp/fx/fx_engine.h ****   }
 856              		.loc 9 81 63 view .LVU176
 857              	.LBE750:
 858              	.LBE751:
 859              	.LBE754:
 860              	.LBE757:
 861              	.LBE759:
 862              	.LBE761:
 863              	.LBE902:
 103:./eurorack/rings/dsp/fx/reverb.h ****       c.WriteAllPass(ap3, -kap);
 864              		.loc 8 103 7 is_stmt 1 view .LVU177
 865              	.LBB903:
 866              	.LBI801:
 199:./eurorack/rings/dsp/fx/fx_engine.h ****       STATIC_ASSERT(D::base + D::length <= size, delay_memory_full);
 867              		.loc 9 199 17 view .LVU178
 868              	.LBB810:
 869              	.LBB803:
 870              	.LBI803:
  75:./eurorack/rings/dsp/fx/fx_engine.h ****     return static_cast<float>(static_cast<int16_t>(value)) / 32768.0f;
 871              		.loc 9 75 23 view .LVU179
 872              	.LBB804:
  76:./eurorack/rings/dsp/fx/fx_engine.h ****   }
 873              		.loc 9 76 5 view .LVU180
 874              	.LBE804:
 875              	.LBE803:
 876              	.LBE810:
 877              	.LBE903:
 878              	.LBB904:
 879              	.LBB905:
 880              	.LBB906:
 881              	.LBB907:
 882              	.LBB908:
 177:./eurorack/rings/dsp/fx/fx_engine.h ****       }
 883              		.loc 9 177 29 is_stmt 0 view .LVU181
 884 0160 03F2BE4A 		addw	r10, r3, #1214
 885              	.LBE908:
 886              	.LBE907:
 887              	.LBE906:
 888              	.LBE905:
 889              	.LBE904:
 890              	.LBB927:
 891              	.LBB811:
 892              	.LBB807:
 893              	.LBB805:
  76:./eurorack/rings/dsp/fx/fx_engine.h ****   }
 894              		.loc 9 76 12 view .LVU182
 895 0164 31F91990 		ldrsh	r9, [r1, r9, lsl #1]
 896              	.LBE805:
 897              	.LBE807:
 898              	.LBE811:
 899              	.LBE927:
 900              	.LBB928:
 901              	.LBB925:
 902              	.LBB923:
 903              	.LBB920:
 904              	.LBB917:
ARM GAS  C:\Users\pedro\AppData\Local\Temp\ccs9bf6f.s 			page 37


 177:./eurorack/rings/dsp/fx/fx_engine.h ****       }
 905              		.loc 9 177 49 view .LVU183
 906 0168 CAF30E0A 		ubfx	r10, r10, #0, #15
 907              	.LBE917:
 908              	.LBE920:
 909              	.LBE923:
 910              	.LBE925:
 911              	.LBE928:
 912              	.LBB929:
 913              	.LBB812:
 914              	.LBB808:
 915              	.LBB806:
  76:./eurorack/rings/dsp/fx/fx_engine.h ****   }
 916              		.loc 9 76 12 view .LVU184
 917 016c 07EE909A 		vmov	s15, r9	@ int
 918 0170 F8EEE77A 		vcvt.f32.s32	s15, s15
  76:./eurorack/rings/dsp/fx/fx_engine.h ****   }
 919              		.loc 9 76 62 view .LVU185
 920 0174 67EE877A 		vmul.f32	s15, s15, s14
 921              	.LVL34:
  76:./eurorack/rings/dsp/fx/fx_engine.h ****   }
 922              		.loc 9 76 62 view .LVU186
 923              	.LBE806:
 924              	.LBE808:
 209:./eurorack/rings/dsp/fx/fx_engine.h ****     }
 925              		.loc 9 209 20 view .LVU187
 926 0178 E6EE276A 		vfma.f32	s13, s12, s15
 927              	.LVL35:
 209:./eurorack/rings/dsp/fx/fx_engine.h ****     }
 928              		.loc 9 209 20 view .LVU188
 929              	.LBE812:
 930              	.LBE929:
 104:./eurorack/rings/dsp/fx/reverb.h ****       c.Read(ap4 TAIL, kap);
 931              		.loc 8 104 7 is_stmt 1 view .LVU189
 932              	.LBB930:
 933              	.LBI815:
 194:./eurorack/rings/dsp/fx/fx_engine.h ****       WriteAllPass(d, 0, scale);
 934              		.loc 9 194 17 view .LVU190
 935              	.LBB837:
 936              	.LBI816:
 188:./eurorack/rings/dsp/fx/fx_engine.h ****       Write(d, offset, scale);
 937              		.loc 9 188 17 view .LVU191
 938              	.LBB835:
 939              	.LBB832:
 940              	.LBI818:
 171:./eurorack/rings/dsp/fx/fx_engine.h ****       STATIC_ASSERT(D::base + D::length <= size, delay_memory_full);
 941              		.loc 9 171 17 view .LVU192
 942              	.LBB829:
 943              	.LBB820:
 944              	.LBI820:
  79:./eurorack/rings/dsp/fx/fx_engine.h ****     return static_cast<uint16_t>(
 945              		.loc 9 79 19 view .LVU193
 946              	.LBB821:
  80:./eurorack/rings/dsp/fx/fx_engine.h ****         stmlib::Clip16(static_cast<int32_t>(value * 32768.0f)));
 947              		.loc 9 80 5 view .LVU194
 948              	.LBB822:
 949              	.LBI822:
ARM GAS  C:\Users\pedro\AppData\Local\Temp\ccs9bf6f.s 			page 38


 131:./eurorack/stmlib/dsp/dsp.h ****     int32_t result;
 950              		.loc 11 131 18 view .LVU195
 951              	.LBB823:
 132:./eurorack/stmlib/dsp/dsp.h ****     __asm ("ssat %0, %1, %2" : "=r" (result) :  "I" (16), "r" (x) );
 952              		.loc 11 132 5 view .LVU196
 133:./eurorack/stmlib/dsp/dsp.h ****     return result;
 953              		.loc 11 133 5 view .LVU197
 954              	.LBE823:
 955              	.LBE822:
  81:./eurorack/rings/dsp/fx/fx_engine.h ****   }
 956              		.loc 9 81 23 is_stmt 0 view .LVU198
 957 017c B0EE660A 		vmov.f32	s0, s13
 958              	.LBE821:
 959              	.LBE820:
 960              	.LBE829:
 961              	.LBE832:
 190:./eurorack/rings/dsp/fx/fx_engine.h ****     }
 962              		.loc 9 190 20 view .LVU199
 963 0180 E6EEA57A 		vfma.f32	s15, s13, s11
 964              	.LVL36:
 965              	.LBB833:
 966              	.LBB830:
 967              	.LBB827:
 968              	.LBB826:
  81:./eurorack/rings/dsp/fx/fx_engine.h ****   }
 969              		.loc 9 81 23 view .LVU200
 970 0184 BEEEE80A 		vcvt.s32.f32	s0, s0, #15
 971 0188 10EE109A 		vmov	r9, s0	@ int
 972              	.LVL37:
 973              	.LBB825:
 974              	.LBB824:
 133:./eurorack/stmlib/dsp/dsp.h ****     return result;
 975              		.loc 11 133 5 view .LVU201
 976              		.syntax unified
 977              	@ 133 "./eurorack/stmlib/dsp/dsp.h" 1
 978 018c 09F30F09 		ssat r9, #16, r9
 979              	@ 0 "" 2
 980              	.LVL38:
 981              		.loc 11 134 5 is_stmt 1 view .LVU202
 982              		.loc 11 134 5 is_stmt 0 view .LVU203
 983              		.thumb
 984              		.syntax unified
 985              	.LBE824:
 986              	.LBE825:
  81:./eurorack/rings/dsp/fx/fx_engine.h ****   }
 987              		.loc 9 81 63 view .LVU204
 988 0190 21F81890 		strh	r9, [r1, r8, lsl #1]	@ movhi
 989              	.LVL39:
  81:./eurorack/rings/dsp/fx/fx_engine.h ****   }
 990              		.loc 9 81 63 view .LVU205
 991              	.LBE826:
 992              	.LBE827:
 993              	.LBE830:
 994              	.LBE833:
 995              	.LBE835:
 996              	.LBE837:
 997              	.LBE930:
ARM GAS  C:\Users\pedro\AppData\Local\Temp\ccs9bf6f.s 			page 39


 105:./eurorack/rings/dsp/fx/reverb.h ****       c.WriteAllPass(ap4, -kap);
 998              		.loc 8 105 7 is_stmt 1 view .LVU206
 999              	.LBB931:
 1000              	.LBI840:
 199:./eurorack/rings/dsp/fx/fx_engine.h ****       STATIC_ASSERT(D::base + D::length <= size, delay_memory_full);
 1001              		.loc 9 199 17 view .LVU207
 1002              	.LBB853:
 1003              	.LBB842:
 1004              	.LBI842:
  75:./eurorack/rings/dsp/fx/fx_engine.h ****     return static_cast<float>(static_cast<int16_t>(value)) / 32768.0f;
 1005              		.loc 9 75 23 view .LVU208
 1006              	.LBB843:
  76:./eurorack/rings/dsp/fx/fx_engine.h ****   }
 1007              		.loc 9 76 5 view .LVU209
 1008              	.LBE843:
 1009              	.LBE842:
 1010              	.LBE853:
 1011              	.LBE931:
 1012              	.LBB932:
 1013              	.LBB723:
 249:./eurorack/rings/dsp/fx/fx_engine.h ****       float x = a + (b - a) * offset_fractional;
 1014              		.loc 9 249 59 is_stmt 0 view .LVU210
 1015 0194 43F6D338 		movw	r8, #15315
 1016              	.LBE723:
 1017              	.LBE932:
 1018              	.LBB933:
 1019              	.LBB854:
 1020              	.LBB848:
 1021              	.LBB844:
  76:./eurorack/rings/dsp/fx/fx_engine.h ****   }
 1022              		.loc 9 76 12 view .LVU211
 1023 0198 31F91660 		ldrsh	r6, [r1, r6, lsl #1]
 1024              	.LBE844:
 1025              	.LBE848:
 1026              	.LBE854:
 1027              	.LBE933:
 1028              	.LBB934:
 1029              	.LBB724:
 247:./eurorack/rings/dsp/fx/fx_engine.h ****       float b = DataType<format>::Decompress(
 1030              		.loc 9 247 49 view .LVU212
 1031 019c 0CEB0E09 		add	r9, ip, lr
 1032              	.LVL40:
 249:./eurorack/rings/dsp/fx/fx_engine.h ****       float x = a + (b - a) * offset_fractional;
 1033              		.loc 9 249 59 view .LVU213
 1034 01a0 E044     		add	r8, r8, ip
 1035              	.LBE724:
 1036              	.LBE934:
 1037              	.LBB935:
 1038              	.LBB936:
 203:./eurorack/rings/dsp/fx/fx_engine.h ****       } else {
 1039              		.loc 9 203 55 view .LVU214
 1040 01a2 41F2C67C 		movw	ip, #6086
 1041              	.LBE936:
 1042              	.LBE935:
 1043              	.LBB951:
 1044              	.LBB855:
 1045              	.LBB849:
ARM GAS  C:\Users\pedro\AppData\Local\Temp\ccs9bf6f.s 			page 40


 1046              	.LBB845:
  76:./eurorack/rings/dsp/fx/fx_engine.h ****   }
 1047              		.loc 9 76 12 view .LVU215
 1048 01a6 06EE906A 		vmov	s13, r6	@ int
 1049              	.LBE845:
 1050              	.LBE849:
 1051              	.LBE855:
 1052              	.LBE951:
 1053              	.LBB952:
 1054              	.LBB725:
 247:./eurorack/rings/dsp/fx/fx_engine.h ****       float b = DataType<format>::Decompress(
 1055              		.loc 9 247 60 view .LVU216
 1056 01aa C9F30E09 		ubfx	r9, r9, #0, #15
 249:./eurorack/rings/dsp/fx/fx_engine.h ****       float x = a + (b - a) * offset_fractional;
 1057              		.loc 9 249 64 view .LVU217
 1058 01ae C8F30E08 		ubfx	r8, r8, #0, #15
 1059              	.LBE725:
 1060              	.LBE952:
 1061              	.LBB953:
 1062              	.LBB954:
 203:./eurorack/rings/dsp/fx/fx_engine.h ****       } else {
 1063              		.loc 9 203 55 view .LVU218
 1064 01b2 03F64356 		addw	r6, r3, #3395
 1065              	.LBE954:
 1066              	.LBE953:
 1067              	.LBB971:
 1068              	.LBB856:
 1069              	.LBB850:
 1070              	.LBB846:
  76:./eurorack/rings/dsp/fx/fx_engine.h ****   }
 1071              		.loc 9 76 12 view .LVU219
 1072 01b6 F8EEE66A 		vcvt.f32.s32	s13, s13
 1073              	.LBE846:
 1074              	.LBE850:
 1075              	.LBE856:
 1076              	.LBE971:
 1077              	.LBB972:
 1078              	.LBB945:
 203:./eurorack/rings/dsp/fx/fx_engine.h ****       } else {
 1079              		.loc 9 203 55 view .LVU220
 1080 01ba 9C44     		add	ip, ip, r3
 1081              	.LBE945:
 1082              	.LBE972:
 1083              	.LBB973:
 1084              	.LBB965:
 203:./eurorack/rings/dsp/fx/fx_engine.h ****       } else {
 1085              		.loc 9 203 60 view .LVU221
 1086 01bc C6F30E06 		ubfx	r6, r6, #0, #15
 1087              	.LBE965:
 1088              	.LBE973:
 1089              	.LBB974:
 1090              	.LBB975:
 1091              	.LBB976:
 177:./eurorack/rings/dsp/fx/fx_engine.h ****       }
 1092              		.loc 9 177 29 view .LVU222
 1093 01c0 9E44     		add	lr, lr, r3
 1094              	.LBE976:
ARM GAS  C:\Users\pedro\AppData\Local\Temp\ccs9bf6f.s 			page 41


 1095              	.LBE975:
 1096              	.LBE974:
 1097              	.LBB995:
 1098              	.LBB946:
 203:./eurorack/rings/dsp/fx/fx_engine.h ****       } else {
 1099              		.loc 9 203 60 view .LVU223
 1100 01c2 CCF30E0C 		ubfx	ip, ip, #0, #15
 1101              	.LBE946:
 1102              	.LBE995:
 1103              	.LBB996:
 1104              	.LBB857:
 1105              	.LBB851:
 1106              	.LBB847:
  76:./eurorack/rings/dsp/fx/fx_engine.h ****   }
 1107              		.loc 9 76 62 view .LVU224
 1108 01c6 66EE876A 		vmul.f32	s13, s13, s14
 1109              	.LVL41:
  76:./eurorack/rings/dsp/fx/fx_engine.h ****   }
 1110              		.loc 9 76 62 view .LVU225
 1111              	.LBE847:
 1112              	.LBE851:
 1113              	.LBE857:
 1114              	.LBE996:
 1115              	.LBB997:
 1116              	.LBB991:
 1117              	.LBB987:
 177:./eurorack/rings/dsp/fx/fx_engine.h ****       }
 1118              		.loc 9 177 49 view .LVU226
 1119 01ca CEF30E0E 		ubfx	lr, lr, #0, #15
 1120              	.LBE987:
 1121              	.LBE991:
 1122              	.LBE997:
 1123              	.LBB998:
 1124              	.LBB858:
 209:./eurorack/rings/dsp/fx/fx_engine.h ****     }
 1125              		.loc 9 209 20 view .LVU227
 1126 01ce E6EE267A 		vfma.f32	s15, s12, s13
 1127              	.LVL42:
 209:./eurorack/rings/dsp/fx/fx_engine.h ****     }
 1128              		.loc 9 209 20 view .LVU228
 1129              	.LBE858:
 1130              	.LBE998:
 106:./eurorack/rings/dsp/fx/reverb.h ****       c.Write(apout);
 1131              		.loc 8 106 7 is_stmt 1 view .LVU229
 1132              	.LBB999:
 1133              	.LBI862:
 194:./eurorack/rings/dsp/fx/fx_engine.h ****       WriteAllPass(d, 0, scale);
 1134              		.loc 9 194 17 view .LVU230
 1135              	.LBB884:
 1136              	.LBI863:
 188:./eurorack/rings/dsp/fx/fx_engine.h ****       Write(d, offset, scale);
 1137              		.loc 9 188 17 view .LVU231
 1138              	.LBB882:
 1139              	.LBB879:
 1140              	.LBI865:
 171:./eurorack/rings/dsp/fx/fx_engine.h ****       STATIC_ASSERT(D::base + D::length <= size, delay_memory_full);
 1141              		.loc 9 171 17 view .LVU232
ARM GAS  C:\Users\pedro\AppData\Local\Temp\ccs9bf6f.s 			page 42


 1142              	.LBB876:
 1143              	.LBB867:
 1144              	.LBI867:
  79:./eurorack/rings/dsp/fx/fx_engine.h ****     return static_cast<uint16_t>(
 1145              		.loc 9 79 19 view .LVU233
 1146              	.LBB868:
  80:./eurorack/rings/dsp/fx/fx_engine.h ****         stmlib::Clip16(static_cast<int32_t>(value * 32768.0f)));
 1147              		.loc 9 80 5 view .LVU234
 1148              	.LBB869:
 1149              	.LBI869:
 131:./eurorack/stmlib/dsp/dsp.h ****     int32_t result;
 1150              		.loc 11 131 18 view .LVU235
 1151              	.LBB870:
 132:./eurorack/stmlib/dsp/dsp.h ****     __asm ("ssat %0, %1, %2" : "=r" (result) :  "I" (16), "r" (x) );
 1152              		.loc 11 132 5 view .LVU236
 133:./eurorack/stmlib/dsp/dsp.h ****     return result;
 1153              		.loc 11 133 5 view .LVU237
 1154              	.LBE870:
 1155              	.LBE869:
  81:./eurorack/rings/dsp/fx/fx_engine.h ****   }
 1156              		.loc 9 81 23 is_stmt 0 view .LVU238
 1157 01d2 B0EE670A 		vmov.f32	s0, s15
 1158              	.LBE868:
 1159              	.LBE867:
 1160              	.LBE876:
 1161              	.LBE879:
 190:./eurorack/rings/dsp/fx/fx_engine.h ****     }
 1162              		.loc 9 190 20 view .LVU239
 1163 01d6 E7EEA56A 		vfma.f32	s13, s15, s11
 1164              	.LVL43:
 1165              	.LBB880:
 1166              	.LBB877:
 1167              	.LBB874:
 1168              	.LBB873:
  81:./eurorack/rings/dsp/fx/fx_engine.h ****   }
 1169              		.loc 9 81 23 view .LVU240
 1170 01da BEEEE80A 		vcvt.s32.f32	s0, s0, #15
 1171 01de 10EE10BA 		vmov	fp, s0	@ int
 1172              	.LVL44:
 1173              	.LBB872:
 1174              	.LBB871:
 133:./eurorack/stmlib/dsp/dsp.h ****     return result;
 1175              		.loc 11 133 5 view .LVU241
 1176              		.syntax unified
 1177              	@ 133 "./eurorack/stmlib/dsp/dsp.h" 1
 1178 01e2 0BF30F0B 		ssat fp, #16, fp
 1179              	@ 0 "" 2
 1180              	.LVL45:
 1181              		.loc 11 134 5 is_stmt 1 view .LVU242
 1182              		.loc 11 134 5 is_stmt 0 view .LVU243
 1183              		.thumb
 1184              		.syntax unified
 1185              	.LBE871:
 1186              	.LBE872:
  81:./eurorack/rings/dsp/fx/fx_engine.h ****   }
 1187              		.loc 9 81 63 view .LVU244
 1188 01e6 21F817B0 		strh	fp, [r1, r7, lsl #1]	@ movhi
ARM GAS  C:\Users\pedro\AppData\Local\Temp\ccs9bf6f.s 			page 43


 1189              	.LVL46:
  81:./eurorack/rings/dsp/fx/fx_engine.h ****   }
 1190              		.loc 9 81 63 view .LVU245
 1191              	.LBE873:
 1192              	.LBE874:
 1193              	.LBE877:
 1194              	.LBE880:
 1195              	.LBE882:
 1196              	.LBE884:
 1197              	.LBE999:
 107:./eurorack/rings/dsp/fx/reverb.h ****       
 1198              		.loc 8 107 7 is_stmt 1 view .LVU246
 110:./eurorack/rings/dsp/fx/reverb.h ****       c.Interpolate(del2, 6261.0f, LFO_2, 50.0f, krt);
 1199              		.loc 8 110 7 view .LVU247
 111:./eurorack/rings/dsp/fx/reverb.h ****       c.Lp(lp_1, klp);
 1200              		.loc 8 111 7 view .LVU248
 1201              	.LBB1000:
 1202              	.LBI696:
 241:./eurorack/rings/dsp/fx/fx_engine.h ****         D& d, float offset, LFOIndex index, float amplitude, float scale) {
 1203              		.loc 9 241 17 view .LVU249
 1204              	.LBB726:
 1205              	.LBB698:
 1206              	.LBI698:
  75:./eurorack/rings/dsp/fx/fx_engine.h ****     return static_cast<float>(static_cast<int16_t>(value)) / 32768.0f;
 1207              		.loc 9 75 23 view .LVU250
 1208              	.LBB699:
  76:./eurorack/rings/dsp/fx/fx_engine.h ****   }
 1209              		.loc 9 76 5 view .LVU251
 1210              	.LBE699:
 1211              	.LBE698:
 1212              	.LBB703:
 1213              	.LBB704:
  76:./eurorack/rings/dsp/fx/fx_engine.h ****   }
 1214              		.loc 9 76 12 is_stmt 0 view .LVU252
 1215 01ea 31F91870 		ldrsh	r7, [r1, r8, lsl #1]
 1216              	.LBE704:
 1217              	.LBE703:
 1218              	.LBE726:
 1219              	.LBE1000:
 1220              	.LBB1001:
 1221              	.LBB788:
 249:./eurorack/rings/dsp/fx/fx_engine.h ****       float x = a + (b - a) * offset_fractional;
 1222              		.loc 9 249 59 view .LVU253
 1223 01ee 41F2C978 		movw	r8, #6089
 1224              	.LBE788:
 1225              	.LBE1001:
 1226              	.LBB1002:
 1227              	.LBB966:
 1228              	.LBB955:
 1229              	.LBB956:
  76:./eurorack/rings/dsp/fx/fx_engine.h ****   }
 1230              		.loc 9 76 12 view .LVU254
 1231 01f2 31F91660 		ldrsh	r6, [r1, r6, lsl #1]
 1232              	.LBE956:
 1233              	.LBE955:
 1234              	.LBE966:
 1235              	.LBE1002:
ARM GAS  C:\Users\pedro\AppData\Local\Temp\ccs9bf6f.s 			page 44


 1236              	.LBB1003:
 1237              	.LBB727:
 1238              	.LBB709:
 1239              	.LBB705:
 1240 01f6 00EE107A 		vmov	s0, r7	@ int
 1241              	.LBE705:
 1242              	.LBE709:
 1243              	.LBB710:
 1244              	.LBB700:
 1245 01fa 31F91970 		ldrsh	r7, [r1, r9, lsl #1]
 1246              	.LBE700:
 1247              	.LBE710:
 1248              	.LBE727:
 1249              	.LBE1003:
 1250              	.LBB1004:
 1251              	.LBB967:
 1252              	.LBB961:
 1253              	.LBB957:
 1254 01fe 07EE906A 		vmov	s15, r6	@ int
 1255              	.LBE957:
 1256              	.LBE961:
 1257              	.LBE967:
 1258              	.LBE1004:
 1259              	.LBB1005:
 1260              	.LBB789:
 247:./eurorack/rings/dsp/fx/fx_engine.h ****       float b = DataType<format>::Decompress(
 1261              		.loc 9 247 31 view .LVU255
 1262 0202 18EE106A 		vmov	r6, s16	@ int
 1263              	.LBE789:
 1264              	.LBE1005:
 1265              	.LBB1006:
 1266              	.LBB728:
 1267              	.LBB711:
 1268              	.LBB706:
  76:./eurorack/rings/dsp/fx/fx_engine.h ****   }
 1269              		.loc 9 76 12 view .LVU256
 1270 0206 B8EEC00A 		vcvt.f32.s32	s0, s0
 1271              	.LBE706:
 1272              	.LBE711:
 1273              	.LBB712:
 1274              	.LBB701:
 1275 020a 08EE907A 		vmov	s17, r7	@ int
 1276              	.LBE701:
 1277              	.LBE712:
 1278              	.LBE728:
 1279              	.LBE1006:
 1280              	.LBB1007:
 1281              	.LBB968:
 1282              	.LBB962:
 1283              	.LBB958:
 1284 020e F8EEE77A 		vcvt.f32.s32	s15, s15
 1285              	.LBE958:
 1286              	.LBE962:
 1287              	.LBE968:
 1288              	.LBE1007:
 1289              	.LBB1008:
 1290              	.LBB1009:
ARM GAS  C:\Users\pedro\AppData\Local\Temp\ccs9bf6f.s 			page 45


 1291              	.LBB1010:
 177:./eurorack/rings/dsp/fx/fx_engine.h ****       }
 1292              		.loc 9 177 29 view .LVU257
 1293 0212 41F2C877 		movw	r7, #6088
 1294              	.LBE1010:
 1295              	.LBE1009:
 1296              	.LBE1008:
 1297              	.LBB1039:
 1298              	.LBB729:
 1299              	.LBB713:
 1300              	.LBB702:
  76:./eurorack/rings/dsp/fx/fx_engine.h ****   }
 1301              		.loc 9 76 12 view .LVU258
 1302 0216 F8EEE88A 		vcvt.f32.s32	s17, s17
 1303              	.LVL47:
  76:./eurorack/rings/dsp/fx/fx_engine.h ****   }
 1304              		.loc 9 76 12 view .LVU259
 1305              	.LBE702:
 1306              	.LBE713:
 1307              	.LBB714:
 1308              	.LBI703:
  75:./eurorack/rings/dsp/fx/fx_engine.h ****     return static_cast<float>(static_cast<int16_t>(value)) / 32768.0f;
 1309              		.loc 9 75 23 is_stmt 1 view .LVU260
 1310              	.LBB707:
  76:./eurorack/rings/dsp/fx/fx_engine.h ****   }
 1311              		.loc 9 76 5 view .LVU261
  76:./eurorack/rings/dsp/fx/fx_engine.h ****   }
 1312              		.loc 9 76 5 is_stmt 0 view .LVU262
 1313              	.LBE707:
 1314              	.LBE714:
 1315              	.LBE729:
 1316              	.LBE1039:
 1317              	.LBB1040:
 1318              	.LBB790:
 247:./eurorack/rings/dsp/fx/fx_engine.h ****       float b = DataType<format>::Decompress(
 1319              		.loc 9 247 31 view .LVU263
 1320 021a 1E44     		add	r6, r6, r3
 1321              	.LBE790:
 1322              	.LBE1040:
 1323              	.LBB1041:
 1324              	.LBB730:
 1325              	.LBB715:
 1326              	.LBB708:
  76:./eurorack/rings/dsp/fx/fx_engine.h ****   }
 1327              		.loc 9 76 62 view .LVU264
 1328 021c 20EE070A 		vmul.f32	s0, s0, s14
 1329              	.LBE708:
 1330              	.LBE715:
 1331              	.LBE730:
 1332              	.LBE1041:
 1333              	.LBB1042:
 1334              	.LBB1043:
 1335              	.LBB1044:
 1336              	.LBB1045:
 1337              	.LBB1046:
 177:./eurorack/rings/dsp/fx/fx_engine.h ****       }
 1338              		.loc 9 177 29 view .LVU265
ARM GAS  C:\Users\pedro\AppData\Local\Temp\ccs9bf6f.s 			page 46


 1339 0220 03F64559 		addw	r9, r3, #3397
 1340              	.LBE1046:
 1341              	.LBE1045:
 1342              	.LBE1044:
 1343              	.LBE1043:
 1344              	.LBE1042:
 1345              	.LBB1071:
 1346              	.LBB969:
 1347              	.LBB963:
 1348              	.LBB959:
  76:./eurorack/rings/dsp/fx/fx_engine.h ****   }
 1349              		.loc 9 76 62 view .LVU266
 1350 0224 67EE877A 		vmul.f32	s15, s15, s14
 1351              	.LBE959:
 1352              	.LBE963:
 1353              	.LBE969:
 1354              	.LBE1071:
 1355              	.LBB1072:
 1356              	.LBB791:
 249:./eurorack/rings/dsp/fx/fx_engine.h ****       float x = a + (b - a) * offset_fractional;
 1357              		.loc 9 249 59 view .LVU267
 1358 0228 B044     		add	r8, r8, r6
 247:./eurorack/rings/dsp/fx/fx_engine.h ****       float b = DataType<format>::Decompress(
 1359              		.loc 9 247 49 view .LVU268
 1360 022a 3E44     		add	r6, r6, r7
 1361              	.LBE791:
 1362              	.LBE1072:
 1363              	.LBB1073:
 1364              	.LBB1032:
 1365              	.LBB1025:
 177:./eurorack/rings/dsp/fx/fx_engine.h ****       }
 1366              		.loc 9 177 29 view .LVU269
 1367 022c 1F44     		add	r7, r7, r3
 1368              	.LBE1025:
 1369              	.LBE1032:
 1370              	.LBE1073:
 1371              	.LBB1074:
 1372              	.LBB731:
 250:./eurorack/rings/dsp/fx/fx_engine.h ****       previous_read_ = x;
 1373              		.loc 9 250 24 view .LVU270
 1374 022e A8EEC70A 		vfms.f32	s0, s17, s14
 1375              	.LBE731:
 1376              	.LBE1074:
 1377              	.LBB1075:
 1378              	.LBB1068:
 1379              	.LBB1065:
 1380              	.LBB1061:
 1381              	.LBB1057:
 177:./eurorack/rings/dsp/fx/fx_engine.h ****       }
 1382              		.loc 9 177 49 view .LVU271
 1383 0232 C9F30E09 		ubfx	r9, r9, #0, #15
 1384              	.LBE1057:
 1385              	.LBE1061:
 1386              	.LBE1065:
 1387              	.LBE1068:
 1388              	.LBE1075:
 1389              	.LBB1076:
ARM GAS  C:\Users\pedro\AppData\Local\Temp\ccs9bf6f.s 			page 47


 1390              	.LBB1033:
 1391              	.LBB1026:
 1392 0236 C7F30E07 		ubfx	r7, r7, #0, #15
 1393              	.LBE1026:
 1394              	.LBE1033:
 1395              	.LBE1076:
 1396              	.LBB1077:
 1397              	.LBB792:
 249:./eurorack/rings/dsp/fx/fx_engine.h ****       float x = a + (b - a) * offset_fractional;
 1398              		.loc 9 249 64 view .LVU272
 1399 023a C8F30E08 		ubfx	r8, r8, #0, #15
 247:./eurorack/rings/dsp/fx/fx_engine.h ****       float b = DataType<format>::Decompress(
 1400              		.loc 9 247 60 view .LVU273
 1401 023e C6F30E06 		ubfx	r6, r6, #0, #15
 1402              	.LBE792:
 1403              	.LBE1077:
 1404              	.LBB1078:
 1405              	.LBB732:
 250:./eurorack/rings/dsp/fx/fx_engine.h ****       previous_read_ = x;
 1406              		.loc 9 250 29 view .LVU274
 1407 0242 60EE800A 		vmul.f32	s1, s1, s0
 1408              	.LVL48:
 252:./eurorack/rings/dsp/fx/fx_engine.h ****     }
 1409              		.loc 9 252 20 view .LVU275
 1410 0246 B0EE660A 		vmov.f32	s0, s13
 250:./eurorack/rings/dsp/fx/fx_engine.h ****       previous_read_ = x;
 1411              		.loc 9 250 13 view .LVU276
 1412 024a E8EE870A 		vfma.f32	s1, s17, s14
 1413              	.LVL49:
 250:./eurorack/rings/dsp/fx/fx_engine.h ****       previous_read_ = x;
 1414              		.loc 9 250 13 view .LVU277
 1415              	.LBE732:
 1416              	.LBE1078:
 1417              		.loc 8 120 21 view .LVU278
 1418 024e F0EE618A 		vmov.f32	s17, s3
 1419              	.LVL50:
 1420              	.LBB1079:
 1421              	.LBB733:
 252:./eurorack/rings/dsp/fx/fx_engine.h ****     }
 1422              		.loc 9 252 20 view .LVU279
 1423 0252 A3EEA00A 		vfma.f32	s0, s7, s1
 1424              	.LVL51:
 252:./eurorack/rings/dsp/fx/fx_engine.h ****     }
 1425              		.loc 9 252 20 view .LVU280
 1426              	.LBE733:
 1427              	.LBE1079:
 112:./eurorack/rings/dsp/fx/reverb.h ****       c.Read(dap1a TAIL, -kap);
 1428              		.loc 8 112 7 is_stmt 1 view .LVU281
 1429              	.LBB1080:
 1430              	.LBI1080:
 217:./eurorack/rings/dsp/fx/fx_engine.h ****       state += coefficient * (accumulator_ - state);
 1431              		.loc 9 217 17 view .LVU282
 1432              	.LBB1081:
 218:./eurorack/rings/dsp/fx/fx_engine.h ****       accumulator_ = state;
 1433              		.loc 9 218 44 is_stmt 0 view .LVU283
 1434 0256 70EE640A 		vsub.f32	s1, s0, s9
 218:./eurorack/rings/dsp/fx/fx_engine.h ****       accumulator_ = state;
ARM GAS  C:\Users\pedro\AppData\Local\Temp\ccs9bf6f.s 			page 48


 1435              		.loc 9 218 13 view .LVU284
 1436 025a E4EE204A 		vfma.f32	s9, s8, s1
 1437              	.LVL52:
 218:./eurorack/rings/dsp/fx/fx_engine.h ****       accumulator_ = state;
 1438              		.loc 9 218 13 view .LVU285
 1439              	.LBE1081:
 1440              	.LBE1080:
 113:./eurorack/rings/dsp/fx/reverb.h ****       c.WriteAllPass(dap1a, kap);
 1441              		.loc 8 113 7 is_stmt 1 view .LVU286
 1442              	.LBB1082:
 1443              	.LBI953:
 199:./eurorack/rings/dsp/fx/fx_engine.h ****       STATIC_ASSERT(D::base + D::length <= size, delay_memory_full);
 1444              		.loc 9 199 17 view .LVU287
 1445              	.LBB970:
 1446              	.LBB964:
 1447              	.LBI955:
  75:./eurorack/rings/dsp/fx/fx_engine.h ****     return static_cast<float>(static_cast<int16_t>(value)) / 32768.0f;
 1448              		.loc 9 75 23 view .LVU288
 1449              	.LBB960:
  76:./eurorack/rings/dsp/fx/fx_engine.h ****   }
 1450              		.loc 9 76 5 view .LVU289
  76:./eurorack/rings/dsp/fx/fx_engine.h ****   }
 1451              		.loc 9 76 5 is_stmt 0 view .LVU290
 1452              	.LBE960:
 1453              	.LBE964:
 209:./eurorack/rings/dsp/fx/fx_engine.h ****     }
 1454              		.loc 9 209 20 view .LVU291
 1455 025e F0EE640A 		vmov.f32	s1, s9
 1456 0262 E7EEA50A 		vfma.f32	s1, s15, s11
 1457              	.LVL53:
 209:./eurorack/rings/dsp/fx/fx_engine.h ****     }
 1458              		.loc 9 209 20 view .LVU292
 1459              	.LBE970:
 1460              	.LBE1082:
 114:./eurorack/rings/dsp/fx/reverb.h ****       c.Read(dap1b TAIL, kap);
 1461              		.loc 8 114 7 is_stmt 1 view .LVU293
 1462              	.LBB1083:
 1463              	.LBI904:
 194:./eurorack/rings/dsp/fx/fx_engine.h ****       WriteAllPass(d, 0, scale);
 1464              		.loc 9 194 17 view .LVU294
 1465              	.LBB926:
 1466              	.LBI905:
 188:./eurorack/rings/dsp/fx/fx_engine.h ****       Write(d, offset, scale);
 1467              		.loc 9 188 17 view .LVU295
 1468              	.LBB924:
 1469              	.LBB921:
 1470              	.LBI907:
 171:./eurorack/rings/dsp/fx/fx_engine.h ****       STATIC_ASSERT(D::base + D::length <= size, delay_memory_full);
 1471              		.loc 9 171 17 view .LVU296
 1472              	.LBB918:
 1473              	.LBB909:
 1474              	.LBI909:
  79:./eurorack/rings/dsp/fx/fx_engine.h ****     return static_cast<uint16_t>(
 1475              		.loc 9 79 19 view .LVU297
 1476              	.LBB910:
  80:./eurorack/rings/dsp/fx/fx_engine.h ****         stmlib::Clip16(static_cast<int32_t>(value * 32768.0f)));
 1477              		.loc 9 80 5 view .LVU298
ARM GAS  C:\Users\pedro\AppData\Local\Temp\ccs9bf6f.s 			page 49


 1478              	.LBB911:
 1479              	.LBI911:
 131:./eurorack/stmlib/dsp/dsp.h ****     int32_t result;
 1480              		.loc 11 131 18 view .LVU299
 1481              	.LBB912:
 132:./eurorack/stmlib/dsp/dsp.h ****     __asm ("ssat %0, %1, %2" : "=r" (result) :  "I" (16), "r" (x) );
 1482              		.loc 11 132 5 view .LVU300
 133:./eurorack/stmlib/dsp/dsp.h ****     return result;
 1483              		.loc 11 133 5 view .LVU301
 1484              	.LBE912:
 1485              	.LBE911:
 1486              	.LBE910:
 1487              	.LBE909:
 1488              	.LBE918:
 1489              	.LBE921:
 190:./eurorack/rings/dsp/fx/fx_engine.h ****     }
 1490              		.loc 9 190 20 is_stmt 0 view .LVU302
 1491 0266 E6EE207A 		vfma.f32	s15, s12, s1
 1492              	.LVL54:
 1493              	.LBB922:
 1494              	.LBB919:
 1495              	.LBB916:
 1496              	.LBB915:
  81:./eurorack/rings/dsp/fx/fx_engine.h ****   }
 1497              		.loc 9 81 23 view .LVU303
 1498 026a FEEEE80A 		vcvt.s32.f32	s1, s1, #15
 1499              	.LVL55:
 1500              	.LBB914:
 1501              	.LBB913:
 133:./eurorack/stmlib/dsp/dsp.h ****     return result;
 1502              		.loc 11 133 5 view .LVU304
 1503 026e 10EE90BA 		vmov	fp, s1	@ int
 1504              	.LVL56:
 133:./eurorack/stmlib/dsp/dsp.h ****     return result;
 1505              		.loc 11 133 5 view .LVU305
 1506              		.syntax unified
 1507              	@ 133 "./eurorack/stmlib/dsp/dsp.h" 1
 1508 0272 0BF30F0B 		ssat fp, #16, fp
 1509              	@ 0 "" 2
 1510              	.LVL57:
 1511              		.loc 11 134 5 is_stmt 1 view .LVU306
 1512              		.loc 11 134 5 is_stmt 0 view .LVU307
 1513              		.thumb
 1514              		.syntax unified
 1515              	.LBE913:
 1516              	.LBE914:
  81:./eurorack/rings/dsp/fx/fx_engine.h ****   }
 1517              		.loc 9 81 63 view .LVU308
 1518 0276 21F81AB0 		strh	fp, [r1, r10, lsl #1]	@ movhi
 1519              	.LVL58:
  81:./eurorack/rings/dsp/fx/fx_engine.h ****   }
 1520              		.loc 9 81 63 view .LVU309
 1521              	.LBE915:
 1522              	.LBE916:
 1523              	.LBE919:
 1524              	.LBE922:
 1525              	.LBE924:
ARM GAS  C:\Users\pedro\AppData\Local\Temp\ccs9bf6f.s 			page 50


 1526              	.LBE926:
 1527              	.LBE1083:
 115:./eurorack/rings/dsp/fx/reverb.h ****       c.WriteAllPass(dap1b, -kap);
 1528              		.loc 8 115 7 is_stmt 1 view .LVU310
 1529              	.LBB1084:
 1530              	.LBI935:
 199:./eurorack/rings/dsp/fx/fx_engine.h ****       STATIC_ASSERT(D::base + D::length <= size, delay_memory_full);
 1531              		.loc 9 199 17 view .LVU311
 1532              	.LBB947:
 1533              	.LBB937:
 1534              	.LBI937:
  75:./eurorack/rings/dsp/fx/fx_engine.h ****     return static_cast<float>(static_cast<int16_t>(value)) / 32768.0f;
 1535              		.loc 9 75 23 view .LVU312
 1536              	.LBB938:
  76:./eurorack/rings/dsp/fx/fx_engine.h ****   }
 1537              		.loc 9 76 5 view .LVU313
 1538              	.LBE938:
 1539              	.LBE937:
 1540              	.LBE947:
 1541              	.LBE1084:
 1542              	.LBB1085:
 1543              	.LBB1086:
 203:./eurorack/rings/dsp/fx/fx_engine.h ****       } else {
 1544              		.loc 9 203 55 is_stmt 0 view .LVU314
 1545 027a 43F23A3A 		movw	r10, #13114
 1546              	.LBE1086:
 1547              	.LBE1085:
 1548              	.LBB1104:
 1549              	.LBB948:
 1550              	.LBB942:
 1551              	.LBB939:
  76:./eurorack/rings/dsp/fx/fx_engine.h ****   }
 1552              		.loc 9 76 12 view .LVU315
 1553 027e 31F91CC0 		ldrsh	ip, [r1, ip, lsl #1]
 1554              	.LBE939:
 1555              	.LBE942:
 1556              	.LBE948:
 1557              	.LBE1104:
 1558              	.LBB1105:
 1559              	.LBB1097:
 203:./eurorack/rings/dsp/fx/fx_engine.h ****       } else {
 1560              		.loc 9 203 55 view .LVU316
 1561 0282 9A44     		add	r10, r10, r3
 1562              	.LBE1097:
 1563              	.LBE1105:
 1564              	.LBB1106:
 1565              	.LBB949:
 1566              	.LBB943:
 1567              	.LBB940:
  76:./eurorack/rings/dsp/fx/fx_engine.h ****   }
 1568              		.loc 9 76 12 view .LVU317
 1569 0284 00EE90CA 		vmov	s1, ip	@ int
 1570              	.LBE940:
 1571              	.LBE943:
 1572              	.LBE949:
 1573              	.LBE1106:
 1574              	.LBB1107:
ARM GAS  C:\Users\pedro\AppData\Local\Temp\ccs9bf6f.s 			page 51


 1575              	.LBB1098:
 203:./eurorack/rings/dsp/fx/fx_engine.h ****       } else {
 1576              		.loc 9 203 60 view .LVU318
 1577 0288 CAF30E0A 		ubfx	r10, r10, #0, #15
 1578              	.LBE1098:
 1579              	.LBE1107:
 1580              	.LBB1108:
 1581              	.LBB950:
 1582              	.LBB944:
 1583              	.LBB941:
  76:./eurorack/rings/dsp/fx/fx_engine.h ****   }
 1584              		.loc 9 76 12 view .LVU319
 1585 028c F8EEE00A 		vcvt.f32.s32	s1, s1
  76:./eurorack/rings/dsp/fx/fx_engine.h ****   }
 1586              		.loc 9 76 62 view .LVU320
 1587 0290 60EE870A 		vmul.f32	s1, s1, s14
 1588              	.LVL59:
  76:./eurorack/rings/dsp/fx/fx_engine.h ****   }
 1589              		.loc 9 76 62 view .LVU321
 1590              	.LBE941:
 1591              	.LBE944:
 209:./eurorack/rings/dsp/fx/fx_engine.h ****     }
 1592              		.loc 9 209 20 view .LVU322
 1593 0294 E6EE207A 		vfma.f32	s15, s12, s1
 1594              	.LVL60:
 209:./eurorack/rings/dsp/fx/fx_engine.h ****     }
 1595              		.loc 9 209 20 view .LVU323
 1596              	.LBE950:
 1597              	.LBE1108:
 116:./eurorack/rings/dsp/fx/reverb.h ****       c.Write(del1, 2.0f);
 1598              		.loc 8 116 7 is_stmt 1 view .LVU324
 1599              	.LBB1109:
 1600              	.LBI1042:
 194:./eurorack/rings/dsp/fx/fx_engine.h ****       WriteAllPass(d, 0, scale);
 1601              		.loc 9 194 17 view .LVU325
 1602              	.LBB1069:
 1603              	.LBI1043:
 188:./eurorack/rings/dsp/fx/fx_engine.h ****       Write(d, offset, scale);
 1604              		.loc 9 188 17 view .LVU326
 1605              	.LBB1066:
 1606              	.LBB1062:
 1607              	.LBI1045:
 171:./eurorack/rings/dsp/fx/fx_engine.h ****       STATIC_ASSERT(D::base + D::length <= size, delay_memory_full);
 1608              		.loc 9 171 17 view .LVU327
 1609              	.LBB1058:
 1610              	.LBB1047:
 1611              	.LBI1047:
  79:./eurorack/rings/dsp/fx/fx_engine.h ****     return static_cast<uint16_t>(
 1612              		.loc 9 79 19 view .LVU328
 1613              	.LBB1048:
  80:./eurorack/rings/dsp/fx/fx_engine.h ****         stmlib::Clip16(static_cast<int32_t>(value * 32768.0f)));
 1614              		.loc 9 80 5 view .LVU329
 1615              	.LBB1049:
 1616              	.LBI1049:
 131:./eurorack/stmlib/dsp/dsp.h ****     int32_t result;
 1617              		.loc 11 131 18 view .LVU330
 1618              	.LBB1050:
ARM GAS  C:\Users\pedro\AppData\Local\Temp\ccs9bf6f.s 			page 52


 132:./eurorack/stmlib/dsp/dsp.h ****     __asm ("ssat %0, %1, %2" : "=r" (result) :  "I" (16), "r" (x) );
 1619              		.loc 11 132 5 view .LVU331
 133:./eurorack/stmlib/dsp/dsp.h ****     return result;
 1620              		.loc 11 133 5 view .LVU332
 1621              	.LBE1050:
 1622              	.LBE1049:
 1623              	.LBE1048:
 1624              	.LBE1047:
 1625              	.LBE1058:
 1626              	.LBE1062:
 190:./eurorack/rings/dsp/fx/fx_engine.h ****     }
 1627              		.loc 9 190 20 is_stmt 0 view .LVU333
 1628 0298 E7EEA50A 		vfma.f32	s1, s15, s11
 1629              	.LVL61:
 1630              	.LBB1063:
 1631              	.LBB1059:
 1632              	.LBB1055:
 1633              	.LBB1053:
  81:./eurorack/rings/dsp/fx/fx_engine.h ****   }
 1634              		.loc 9 81 23 view .LVU334
 1635 029c FEEEE87A 		vcvt.s32.f32	s15, s15, #15
 1636              	.LVL62:
 1637              	.LBB1052:
 1638              	.LBB1051:
 133:./eurorack/stmlib/dsp/dsp.h ****     return result;
 1639              		.loc 11 133 5 view .LVU335
 1640 02a0 17EE90CA 		vmov	ip, s15	@ int
 1641              	.LVL63:
 133:./eurorack/stmlib/dsp/dsp.h ****     return result;
 1642              		.loc 11 133 5 view .LVU336
 1643              		.syntax unified
 1644              	@ 133 "./eurorack/stmlib/dsp/dsp.h" 1
 1645 02a4 0CF30F0C 		ssat ip, #16, ip
 1646              	@ 0 "" 2
 1647              	.LVL64:
 1648              		.loc 11 134 5 is_stmt 1 view .LVU337
 1649              		.loc 11 134 5 is_stmt 0 view .LVU338
 1650              		.thumb
 1651              		.syntax unified
 1652              	.LBE1051:
 1653              	.LBE1052:
 1654              	.LBE1053:
 1655              	.LBE1055:
 1656              	.LBE1059:
 1657              	.LBE1063:
 1658              	.LBE1066:
 1659              	.LBE1069:
 1660              	.LBE1109:
 1661              	.LBB1110:
 1662              	.LBB1034:
 1663              	.LBB1027:
 1664              	.LBB1011:
 1665              	.LBB1012:
  81:./eurorack/rings/dsp/fx/fx_engine.h ****   }
 1666              		.loc 9 81 23 view .LVU339
 1667 02a8 F0EE607A 		vmov.f32	s15, s1
 1668              	.LBE1012:
ARM GAS  C:\Users\pedro\AppData\Local\Temp\ccs9bf6f.s 			page 53


 1669              	.LBE1011:
 1670              	.LBE1027:
 1671              	.LBE1034:
 1672              	.LBE1110:
 1673              	.LBB1111:
 1674              	.LBB1070:
 1675              	.LBB1067:
 1676              	.LBB1064:
 1677              	.LBB1060:
 1678              	.LBB1056:
 1679              	.LBB1054:
  81:./eurorack/rings/dsp/fx/fx_engine.h ****   }
 1680              		.loc 9 81 63 view .LVU340
 1681 02ac 21F819C0 		strh	ip, [r1, r9, lsl #1]	@ movhi
 1682              	.LVL65:
  81:./eurorack/rings/dsp/fx/fx_engine.h ****   }
 1683              		.loc 9 81 63 view .LVU341
 1684              	.LBE1054:
 1685              	.LBE1056:
 1686              	.LBE1060:
 1687              	.LBE1064:
 1688              	.LBE1067:
 1689              	.LBE1070:
 1690              	.LBE1111:
 117:./eurorack/rings/dsp/fx/reverb.h ****       c.Write(wet, 0.0f);
 1691              		.loc 8 117 7 is_stmt 1 view .LVU342
 1692              	.LBB1112:
 1693              	.LBI1008:
 183:./eurorack/rings/dsp/fx/fx_engine.h ****       Write(d, 0, scale);
 1694              		.loc 9 183 17 view .LVU343
 1695              	.LBB1035:
 1696              	.LBI1009:
 171:./eurorack/rings/dsp/fx/fx_engine.h ****       STATIC_ASSERT(D::base + D::length <= size, delay_memory_full);
 1697              		.loc 9 171 17 view .LVU344
 1698              	.LBB1028:
 1699              	.LBB1021:
 1700              	.LBI1011:
  79:./eurorack/rings/dsp/fx/fx_engine.h ****     return static_cast<uint16_t>(
 1701              		.loc 9 79 19 view .LVU345
 1702              	.LBB1017:
  80:./eurorack/rings/dsp/fx/fx_engine.h ****         stmlib::Clip16(static_cast<int32_t>(value * 32768.0f)));
 1703              		.loc 9 80 5 view .LVU346
 1704              	.LBB1013:
 1705              	.LBI1013:
 131:./eurorack/stmlib/dsp/dsp.h ****     int32_t result;
 1706              		.loc 11 131 18 view .LVU347
 1707              	.LBB1014:
 132:./eurorack/stmlib/dsp/dsp.h ****     __asm ("ssat %0, %1, %2" : "=r" (result) :  "I" (16), "r" (x) );
 1708              		.loc 11 132 5 view .LVU348
 133:./eurorack/stmlib/dsp/dsp.h ****     return result;
 1709              		.loc 11 133 5 view .LVU349
 1710              	.LBE1014:
 1711              	.LBE1013:
 1712              	.LBE1017:
 1713              	.LBE1021:
 1714              	.LBE1028:
 1715              	.LBE1035:
ARM GAS  C:\Users\pedro\AppData\Local\Temp\ccs9bf6f.s 			page 54


 1716              	.LBE1112:
 1717              		.loc 8 120 21 is_stmt 0 view .LVU350
 1718 02b0 D0EE828A 		vfnms.f32	s17, s1, s4
 1719              	.LBB1113:
 1720              	.LBB1114:
 1721              	.LBB1115:
 1722              	.LBB1116:
 1723              	.LBB1117:
 177:./eurorack/rings/dsp/fx/fx_engine.h ****       }
 1724              		.loc 9 177 29 view .LVU351
 1725 02b4 42F65E19 		movw	r9, #10590
 1726              	.LBE1117:
 1727              	.LBE1116:
 1728              	.LBE1115:
 1729              	.LBE1114:
 1730              	.LBE1113:
 1731              	.LBB1140:
 1732              	.LBB1141:
 203:./eurorack/rings/dsp/fx/fx_engine.h ****       } else {
 1733              		.loc 9 203 55 view .LVU352
 1734 02b8 43F6D03C 		movw	ip, #15312
 1735              	.LVL66:
 203:./eurorack/rings/dsp/fx/fx_engine.h ****       } else {
 1736              		.loc 9 203 55 view .LVU353
 1737              	.LBE1141:
 1738              	.LBE1140:
 1739              	.LBB1147:
 1740              	.LBB1036:
 1741              	.LBB1029:
 1742              	.LBB1022:
 1743              	.LBB1018:
  81:./eurorack/rings/dsp/fx/fx_engine.h ****   }
 1744              		.loc 9 81 23 view .LVU354
 1745 02bc FEEEE87A 		vcvt.s32.f32	s15, s15, #15
 1746              	.LBE1018:
 1747              	.LBE1022:
 1748              	.LBE1029:
 1749              	.LBE1036:
 1750              	.LBE1147:
 1751              	.LBB1148:
 1752              	.LBB1137:
 1753              	.LBB1134:
 1754              	.LBB1130:
 1755              	.LBB1126:
 177:./eurorack/rings/dsp/fx/fx_engine.h ****       }
 1756              		.loc 9 177 29 view .LVU355
 1757 02c0 9944     		add	r9, r9, r3
 1758              	.LBE1126:
 1759              	.LBE1130:
 1760              	.LBE1134:
 1761              	.LBE1137:
 1762              	.LBE1148:
 1763              	.LBB1149:
 1764              	.LBB1144:
 203:./eurorack/rings/dsp/fx/fx_engine.h ****       } else {
 1765              		.loc 9 203 55 view .LVU356
 1766 02c2 9C44     		add	ip, ip, r3
ARM GAS  C:\Users\pedro\AppData\Local\Temp\ccs9bf6f.s 			page 55


 1767              	.LBE1144:
 1768              	.LBE1149:
 1769              	.LBB1150:
 1770              	.LBB1138:
 1771              	.LBB1135:
 1772              	.LBB1131:
 1773              	.LBB1127:
 177:./eurorack/rings/dsp/fx/fx_engine.h ****       }
 1774              		.loc 9 177 49 view .LVU357
 1775 02c4 C9F30E09 		ubfx	r9, r9, #0, #15
 1776              	.LBE1127:
 1777              	.LBE1131:
 1778              	.LBE1135:
 1779              	.LBE1138:
 1780              	.LBE1150:
 1781              	.LBB1151:
 1782              	.LBB1037:
 1783              	.LBB1030:
 1784              	.LBB1023:
 1785              	.LBB1019:
  81:./eurorack/rings/dsp/fx/fx_engine.h ****   }
 1786              		.loc 9 81 23 view .LVU358
 1787 02c8 17EE90BA 		vmov	fp, s15	@ int
 1788              	.LVL67:
  81:./eurorack/rings/dsp/fx/fx_engine.h ****   }
 1789              		.loc 9 81 23 view .LVU359
 1790              	.LBE1019:
 1791              	.LBE1023:
 1792              	.LBE1030:
 1793              	.LBE1037:
 1794              	.LBE1151:
 1795              	.LBB1152:
 1796              	.LBB1145:
 203:./eurorack/rings/dsp/fx/fx_engine.h ****       } else {
 1797              		.loc 9 203 60 view .LVU360
 1798 02cc CCF30E0C 		ubfx	ip, ip, #0, #15
 1799              	.LBE1145:
 1800              	.LBE1152:
 1801              	.LBB1153:
 1802              	.LBB1038:
 1803              	.LBB1031:
 1804              	.LBB1024:
 1805              	.LBB1020:
 1806              	.LBB1016:
 1807              	.LBB1015:
 133:./eurorack/stmlib/dsp/dsp.h ****     return result;
 1808              		.loc 11 133 5 view .LVU361
 1809              		.syntax unified
 1810              	@ 133 "./eurorack/stmlib/dsp/dsp.h" 1
 1811 02d0 0BF30F0B 		ssat fp, #16, fp
 1812              	@ 0 "" 2
 1813              	.LVL68:
 1814              		.loc 11 134 5 is_stmt 1 view .LVU362
 1815              		.loc 11 134 5 is_stmt 0 view .LVU363
 1816              		.thumb
 1817              		.syntax unified
 1818              	.LBE1015:
ARM GAS  C:\Users\pedro\AppData\Local\Temp\ccs9bf6f.s 			page 56


 1819              	.LBE1016:
  81:./eurorack/rings/dsp/fx/fx_engine.h ****   }
 1820              		.loc 9 81 63 view .LVU364
 1821 02d4 21F817B0 		strh	fp, [r1, r7, lsl #1]	@ movhi
 1822              	.LVL69:
  81:./eurorack/rings/dsp/fx/fx_engine.h ****   }
 1823              		.loc 9 81 63 view .LVU365
 1824              	.LBE1020:
 1825              	.LBE1024:
 1826              	.LBE1031:
 1827              	.LBE1038:
 1828              	.LBE1153:
 118:./eurorack/rings/dsp/fx/reverb.h **** 
 1829              		.loc 8 118 7 is_stmt 1 view .LVU366
 1830              		.loc 8 120 7 view .LVU367
 1831              		.loc 8 120 13 is_stmt 0 view .LVU368
 1832 02d8 E8EE831A 		vfma.f32	s3, s17, s6
 1833              	.LBB1154:
 1834              	.LBB793:
 1835              	.LBB765:
 1836              	.LBB766:
  76:./eurorack/rings/dsp/fx/fx_engine.h ****   }
 1837              		.loc 9 76 12 view .LVU369
 1838 02dc 31F91870 		ldrsh	r7, [r1, r8, lsl #1]
 1839              	.LBE766:
 1840              	.LBE765:
 1841              	.LBB771:
 1842              	.LBB772:
 1843 02e0 31F91660 		ldrsh	r6, [r1, r6, lsl #1]
 1844              	.LBE772:
 1845              	.LBE771:
 1846              	.LBB776:
 1847              	.LBB767:
 1848 02e4 00EE107A 		vmov	s0, r7	@ int
 1849              	.LBE767:
 1850              	.LBE776:
 1851              	.LBB777:
 1852              	.LBB773:
 1853 02e8 08EE106A 		vmov	s16, r6	@ int
 1854              	.LBE773:
 1855              	.LBE777:
 1856              	.LBE793:
 1857              	.LBE1154:
 1858              	.LBB1155:
 1859              	.LBB1099:
 1860              	.LBB1087:
 1861              	.LBB1088:
 1862 02ec 31F91A60 		ldrsh	r6, [r1, r10, lsl #1]
 1863              	.LBE1088:
 1864              	.LBE1087:
 1865              	.LBE1099:
 1866              	.LBE1155:
 1867              	.LBB1156:
 1868              	.LBB794:
 1869              	.LBB778:
 1870              	.LBB768:
 1871 02f0 B8EEC00A 		vcvt.f32.s32	s0, s0
ARM GAS  C:\Users\pedro\AppData\Local\Temp\ccs9bf6f.s 			page 57


 1872              	.LBE768:
 1873              	.LBE778:
 1874              	.LBB779:
 1875              	.LBB774:
 1876 02f4 B8EEC88A 		vcvt.f32.s32	s16, s16
 1877              	.LBE774:
 1878              	.LBE779:
 1879              	.LBE794:
 1880              	.LBE1156:
 1881              	.LBB1157:
 1882              	.LBB1100:
 1883              	.LBB1093:
 1884              	.LBB1089:
 1885 02f8 07EE906A 		vmov	s15, r6	@ int
 1886              	.LBE1089:
 1887              	.LBE1093:
 1888              	.LBE1100:
 1889              	.LBE1157:
 1890              		.loc 8 120 13 view .LVU370
 1891 02fc E4EC011A 		vstmia.32	r4!, {s3}
 1892              	.LVL70:
 1893              	.LBB1158:
 1894              	.LBB1159:
 1895              	.LBB1160:
 1896              	.LBB1161:
 1897              	.LBB1162:
 177:./eurorack/rings/dsp/fx/fx_engine.h ****       }
 1898              		.loc 9 177 29 view .LVU371
 1899 0300 43F23C36 		movw	r6, #13116
 1900              	.LBE1162:
 1901              	.LBE1161:
 1902              	.LBE1160:
 1903              	.LBE1159:
 1904              	.LBE1158:
 1905              	.LBB1193:
 1906              	.LBB795:
 1907              	.LBB780:
 1908              	.LBB769:
  76:./eurorack/rings/dsp/fx/fx_engine.h ****   }
 1909              		.loc 9 76 62 view .LVU372
 1910 0304 60EE070A 		vmul.f32	s1, s0, s14
 1911              	.LVL71:
  76:./eurorack/rings/dsp/fx/fx_engine.h ****   }
 1912              		.loc 9 76 62 view .LVU373
 1913              	.LBE769:
 1914              	.LBE780:
 1915              	.LBE795:
 1916              	.LBE1193:
 121:./eurorack/rings/dsp/fx/reverb.h **** 
 122:./eurorack/rings/dsp/fx/reverb.h ****       c.Load(apout);
 123:./eurorack/rings/dsp/fx/reverb.h ****       c.Interpolate(del1, 4460.0f, LFO_1, 40.0f, krt);
 124:./eurorack/rings/dsp/fx/reverb.h ****       c.Lp(lp_2, klp);
 125:./eurorack/rings/dsp/fx/reverb.h ****       c.Read(dap2a TAIL, kap);
 126:./eurorack/rings/dsp/fx/reverb.h ****       c.WriteAllPass(dap2a, -kap);
 127:./eurorack/rings/dsp/fx/reverb.h ****       c.Read(dap2b TAIL, -kap);
 128:./eurorack/rings/dsp/fx/reverb.h ****       c.WriteAllPass(dap2b, kap);
 129:./eurorack/rings/dsp/fx/reverb.h ****       c.Write(del2, 2.0f);
ARM GAS  C:\Users\pedro\AppData\Local\Temp\ccs9bf6f.s 			page 58


 130:./eurorack/rings/dsp/fx/reverb.h ****       c.Write(wet, 0.0f);
 131:./eurorack/rings/dsp/fx/reverb.h **** 
 132:./eurorack/rings/dsp/fx/reverb.h ****       *right += (wet - *right) * amount;
 1917              		.loc 8 132 14 view .LVU374
 1918 0308 D2ED001A 		vldr.32	s3, [r2]
 1919              	.LBB1194:
 1920              	.LBB1101:
 1921              	.LBB1094:
 1922              	.LBB1090:
  76:./eurorack/rings/dsp/fx/fx_engine.h ****   }
 1923              		.loc 9 76 12 view .LVU375
 1924 030c F8EEE77A 		vcvt.f32.s32	s15, s15
 1925              	.LBE1090:
 1926              	.LBE1094:
 1927              	.LBE1101:
 1928              	.LBE1194:
 1929              	.LBB1195:
 1930              	.LBB1189:
 1931              	.LBB1185:
 1932              	.LBB1180:
 1933              	.LBB1175:
 177:./eurorack/rings/dsp/fx/fx_engine.h ****       }
 1934              		.loc 9 177 29 view .LVU376
 1935 0310 1E44     		add	r6, r6, r3
 1936              	.LBE1175:
 1937              	.LBE1180:
 1938              	.LBE1185:
 1939              	.LBE1189:
 1940              	.LBE1195:
 1941              	.LBB1196:
 1942              	.LBB796:
 250:./eurorack/rings/dsp/fx/fx_engine.h ****       previous_read_ = x;
 1943              		.loc 9 250 24 view .LVU377
 1944 0312 E8EE470A 		vfms.f32	s1, s16, s14
 1945              	.LBE796:
 1946              	.LBE1196:
 1947              	.LBB1197:
 1948              	.LBB1190:
 1949              	.LBB1186:
 1950              	.LBB1181:
 1951              	.LBB1176:
 177:./eurorack/rings/dsp/fx/fx_engine.h ****       }
 1952              		.loc 9 177 49 view .LVU378
 1953 0316 C6F30E06 		ubfx	r6, r6, #0, #15
 1954              	.LBE1176:
 1955              	.LBE1181:
 1956              	.LBE1186:
 1957              	.LBE1190:
 1958              	.LBE1197:
 122:./eurorack/rings/dsp/fx/reverb.h ****       c.Interpolate(del1, 4460.0f, LFO_1, 40.0f, krt);
 1959              		.loc 8 122 7 is_stmt 1 view .LVU379
 123:./eurorack/rings/dsp/fx/reverb.h ****       c.Lp(lp_2, klp);
 1960              		.loc 8 123 7 view .LVU380
 1961              	.LVL72:
 1962              	.LBB1198:
 1963              	.LBI763:
 241:./eurorack/rings/dsp/fx/fx_engine.h ****         D& d, float offset, LFOIndex index, float amplitude, float scale) {
ARM GAS  C:\Users\pedro\AppData\Local\Temp\ccs9bf6f.s 			page 59


 1964              		.loc 9 241 17 view .LVU381
 1965              	.LBB797:
 1966              	.LBB781:
 1967              	.LBI771:
  75:./eurorack/rings/dsp/fx/fx_engine.h ****     return static_cast<float>(static_cast<int16_t>(value)) / 32768.0f;
 1968              		.loc 9 75 23 view .LVU382
 1969              	.LBB775:
  76:./eurorack/rings/dsp/fx/fx_engine.h ****   }
 1970              		.loc 9 76 5 view .LVU383
  76:./eurorack/rings/dsp/fx/fx_engine.h ****   }
 1971              		.loc 9 76 5 is_stmt 0 view .LVU384
 1972              	.LBE775:
 1973              	.LBE781:
 1974              	.LBB782:
 1975              	.LBI765:
  75:./eurorack/rings/dsp/fx/fx_engine.h ****     return static_cast<float>(static_cast<int16_t>(value)) / 32768.0f;
 1976              		.loc 9 75 23 is_stmt 1 view .LVU385
 1977              	.LBB770:
  76:./eurorack/rings/dsp/fx/fx_engine.h ****   }
 1978              		.loc 9 76 5 view .LVU386
  76:./eurorack/rings/dsp/fx/fx_engine.h ****   }
 1979              		.loc 9 76 5 is_stmt 0 view .LVU387
 1980              	.LBE770:
 1981              	.LBE782:
 1982              	.LBE797:
 1983              	.LBE1198:
 1984              	.LBB1199:
 1985              	.LBB1102:
 1986              	.LBB1095:
 1987              	.LBB1091:
  76:./eurorack/rings/dsp/fx/fx_engine.h ****   }
 1988              		.loc 9 76 62 view .LVU388
 1989 031a 67EE877A 		vmul.f32	s15, s15, s14
 1990              	.LBE1091:
 1991              	.LBE1095:
 1992              	.LBE1102:
 1993              	.LBE1199:
 1994              	.LBB1200:
 1995              	.LBB798:
 250:./eurorack/rings/dsp/fx/fx_engine.h ****       previous_read_ = x;
 1996              		.loc 9 250 29 view .LVU389
 1997 031e 21EE201A 		vmul.f32	s2, s2, s1
 1998              	.LVL73:
 250:./eurorack/rings/dsp/fx/fx_engine.h ****       previous_read_ = x;
 1999              		.loc 9 250 13 view .LVU390
 2000 0322 A8EE071A 		vfma.f32	s2, s16, s14
 2001              	.LVL74:
 252:./eurorack/rings/dsp/fx/fx_engine.h ****     }
 2002              		.loc 9 252 20 view .LVU391
 2003 0326 E3EE816A 		vfma.f32	s13, s7, s2
 2004              	.LVL75:
 252:./eurorack/rings/dsp/fx/fx_engine.h ****     }
 2005              		.loc 9 252 20 view .LVU392
 2006              	.LBE798:
 2007              	.LBE1200:
 124:./eurorack/rings/dsp/fx/reverb.h ****       c.Read(dap2a TAIL, kap);
 2008              		.loc 8 124 7 is_stmt 1 view .LVU393
ARM GAS  C:\Users\pedro\AppData\Local\Temp\ccs9bf6f.s 			page 60


 2009              	.LBB1201:
 2010              	.LBI1201:
 217:./eurorack/rings/dsp/fx/fx_engine.h ****       state += coefficient * (accumulator_ - state);
 2011              		.loc 9 217 17 view .LVU394
 2012              	.LBB1202:
 218:./eurorack/rings/dsp/fx/fx_engine.h ****       accumulator_ = state;
 2013              		.loc 9 218 44 is_stmt 0 view .LVU395
 2014 032a 76EEC56A 		vsub.f32	s13, s13, s10
 218:./eurorack/rings/dsp/fx/fx_engine.h ****       accumulator_ = state;
 2015              		.loc 9 218 13 view .LVU396
 2016 032e A4EE265A 		vfma.f32	s10, s8, s13
 2017              	.LVL76:
 218:./eurorack/rings/dsp/fx/fx_engine.h ****       accumulator_ = state;
 2018              		.loc 9 218 13 view .LVU397
 2019              	.LBE1202:
 2020              	.LBE1201:
 125:./eurorack/rings/dsp/fx/reverb.h ****       c.WriteAllPass(dap2a, -kap);
 2021              		.loc 8 125 7 is_stmt 1 view .LVU398
 2022              	.LBB1203:
 2023              	.LBI1085:
 199:./eurorack/rings/dsp/fx/fx_engine.h ****       STATIC_ASSERT(D::base + D::length <= size, delay_memory_full);
 2024              		.loc 9 199 17 view .LVU399
 2025              	.LBB1103:
 2026              	.LBB1096:
 2027              	.LBI1087:
  75:./eurorack/rings/dsp/fx/fx_engine.h ****     return static_cast<float>(static_cast<int16_t>(value)) / 32768.0f;
 2028              		.loc 9 75 23 view .LVU400
 2029              	.LBB1092:
  76:./eurorack/rings/dsp/fx/fx_engine.h ****   }
 2030              		.loc 9 76 5 view .LVU401
  76:./eurorack/rings/dsp/fx/fx_engine.h ****   }
 2031              		.loc 9 76 5 is_stmt 0 view .LVU402
 2032              	.LBE1092:
 2033              	.LBE1096:
 209:./eurorack/rings/dsp/fx/fx_engine.h ****     }
 2034              		.loc 9 209 20 view .LVU403
 2035 0332 F0EE456A 		vmov.f32	s13, s10
 2036 0336 E6EE276A 		vfma.f32	s13, s12, s15
 2037              	.LVL77:
 209:./eurorack/rings/dsp/fx/fx_engine.h ****     }
 2038              		.loc 9 209 20 view .LVU404
 2039              	.LBE1103:
 2040              	.LBE1203:
 126:./eurorack/rings/dsp/fx/reverb.h ****       c.Read(dap2b TAIL, -kap);
 2041              		.loc 8 126 7 is_stmt 1 view .LVU405
 2042              	.LBB1204:
 2043              	.LBI1113:
 194:./eurorack/rings/dsp/fx/fx_engine.h ****       WriteAllPass(d, 0, scale);
 2044              		.loc 9 194 17 view .LVU406
 2045              	.LBB1139:
 2046              	.LBI1114:
 188:./eurorack/rings/dsp/fx/fx_engine.h ****       Write(d, offset, scale);
 2047              		.loc 9 188 17 view .LVU407
 2048              	.LBB1136:
 2049              	.LBB1132:
 2050              	.LBI1116:
 171:./eurorack/rings/dsp/fx/fx_engine.h ****       STATIC_ASSERT(D::base + D::length <= size, delay_memory_full);
ARM GAS  C:\Users\pedro\AppData\Local\Temp\ccs9bf6f.s 			page 61


 2051              		.loc 9 171 17 view .LVU408
 2052              	.LBB1128:
 2053              	.LBB1118:
 2054              	.LBI1118:
  79:./eurorack/rings/dsp/fx/fx_engine.h ****     return static_cast<uint16_t>(
 2055              		.loc 9 79 19 view .LVU409
 2056              	.LBB1119:
  80:./eurorack/rings/dsp/fx/fx_engine.h ****         stmlib::Clip16(static_cast<int32_t>(value * 32768.0f)));
 2057              		.loc 9 80 5 view .LVU410
 2058              	.LBB1120:
 2059              	.LBI1120:
 131:./eurorack/stmlib/dsp/dsp.h ****     int32_t result;
 2060              		.loc 11 131 18 view .LVU411
 2061              	.LBB1121:
 132:./eurorack/stmlib/dsp/dsp.h ****     __asm ("ssat %0, %1, %2" : "=r" (result) :  "I" (16), "r" (x) );
 2062              		.loc 11 132 5 view .LVU412
 133:./eurorack/stmlib/dsp/dsp.h ****     return result;
 2063              		.loc 11 133 5 view .LVU413
 2064              	.LBE1121:
 2065              	.LBE1120:
  81:./eurorack/rings/dsp/fx/fx_engine.h ****   }
 2066              		.loc 9 81 23 is_stmt 0 view .LVU414
 2067 033a B0EE661A 		vmov.f32	s2, s13
 2068              	.LBE1119:
 2069              	.LBE1118:
 2070              	.LBE1128:
 2071              	.LBE1132:
 190:./eurorack/rings/dsp/fx/fx_engine.h ****     }
 2072              		.loc 9 190 20 view .LVU415
 2073 033e E6EEA57A 		vfma.f32	s15, s13, s11
 2074              	.LVL78:
 2075              	.LBB1133:
 2076              	.LBB1129:
 2077              	.LBB1125:
 2078              	.LBB1124:
  81:./eurorack/rings/dsp/fx/fx_engine.h ****   }
 2079              		.loc 9 81 23 view .LVU416
 2080 0342 BEEEE81A 		vcvt.s32.f32	s2, s2, #15
 2081 0346 11EE107A 		vmov	r7, s2	@ int
 2082              	.LBB1123:
 2083              	.LBB1122:
 133:./eurorack/stmlib/dsp/dsp.h ****     return result;
 2084              		.loc 11 133 5 view .LVU417
 2085              		.syntax unified
 2086              	@ 133 "./eurorack/stmlib/dsp/dsp.h" 1
 2087 034a 07F30F07 		ssat r7, #16, r7
 2088              	@ 0 "" 2
 2089              	.LVL79:
 2090              		.loc 11 134 5 is_stmt 1 view .LVU418
 2091              		.loc 11 134 5 is_stmt 0 view .LVU419
 2092              		.thumb
 2093              		.syntax unified
 2094              	.LBE1122:
 2095              	.LBE1123:
  81:./eurorack/rings/dsp/fx/fx_engine.h ****   }
 2096              		.loc 9 81 63 view .LVU420
 2097 034e 21F81970 		strh	r7, [r1, r9, lsl #1]	@ movhi
ARM GAS  C:\Users\pedro\AppData\Local\Temp\ccs9bf6f.s 			page 62


 2098              	.LVL80:
  81:./eurorack/rings/dsp/fx/fx_engine.h ****   }
 2099              		.loc 9 81 63 view .LVU421
 2100              	.LBE1124:
 2101              	.LBE1125:
 2102              	.LBE1129:
 2103              	.LBE1133:
 2104              	.LBE1136:
 2105              	.LBE1139:
 2106              	.LBE1204:
 127:./eurorack/rings/dsp/fx/reverb.h ****       c.WriteAllPass(dap2b, kap);
 2107              		.loc 8 127 7 is_stmt 1 view .LVU422
 2108              	.LBB1205:
 2109              	.LBI1140:
 199:./eurorack/rings/dsp/fx/fx_engine.h ****       STATIC_ASSERT(D::base + D::length <= size, delay_memory_full);
 2110              		.loc 9 199 17 view .LVU423
 2111              	.LBB1146:
 2112              	.LBB1142:
 2113              	.LBI1142:
  75:./eurorack/rings/dsp/fx/fx_engine.h ****     return static_cast<float>(static_cast<int16_t>(value)) / 32768.0f;
 2114              		.loc 9 75 23 view .LVU424
 2115              	.LBB1143:
  76:./eurorack/rings/dsp/fx/fx_engine.h ****   }
 2116              		.loc 9 76 5 view .LVU425
  76:./eurorack/rings/dsp/fx/fx_engine.h ****   }
 2117              		.loc 9 76 12 is_stmt 0 view .LVU426
 2118 0352 31F91C70 		ldrsh	r7, [r1, ip, lsl #1]
 2119              	.LVL81:
  76:./eurorack/rings/dsp/fx/fx_engine.h ****   }
 2120              		.loc 9 76 12 view .LVU427
 2121 0356 06EE907A 		vmov	s13, r7	@ int
 2122 035a F8EEE66A 		vcvt.f32.s32	s13, s13
  76:./eurorack/rings/dsp/fx/fx_engine.h ****   }
 2123              		.loc 9 76 62 view .LVU428
 2124 035e 26EE877A 		vmul.f32	s14, s13, s14
 2125              	.LVL82:
  76:./eurorack/rings/dsp/fx/fx_engine.h ****   }
 2126              		.loc 9 76 62 view .LVU429
 2127              	.LBE1143:
 2128              	.LBE1142:
 209:./eurorack/rings/dsp/fx/fx_engine.h ****     }
 2129              		.loc 9 209 20 view .LVU430
 2130 0362 E7EE257A 		vfma.f32	s15, s14, s11
 2131              	.LVL83:
 209:./eurorack/rings/dsp/fx/fx_engine.h ****     }
 2132              		.loc 9 209 20 view .LVU431
 2133              	.LBE1146:
 2134              	.LBE1205:
 128:./eurorack/rings/dsp/fx/reverb.h ****       c.Write(del2, 2.0f);
 2135              		.loc 8 128 7 is_stmt 1 view .LVU432
 2136              	.LBB1206:
 2137              	.LBI1158:
 194:./eurorack/rings/dsp/fx/fx_engine.h ****       WriteAllPass(d, 0, scale);
 2138              		.loc 9 194 17 view .LVU433
 2139              	.LBB1191:
 2140              	.LBI1159:
 188:./eurorack/rings/dsp/fx/fx_engine.h ****       Write(d, offset, scale);
ARM GAS  C:\Users\pedro\AppData\Local\Temp\ccs9bf6f.s 			page 63


 2141              		.loc 9 188 17 view .LVU434
 2142              	.LBB1187:
 2143              	.LBB1182:
 2144              	.LBI1161:
 171:./eurorack/rings/dsp/fx/fx_engine.h ****       STATIC_ASSERT(D::base + D::length <= size, delay_memory_full);
 2145              		.loc 9 171 17 view .LVU435
 2146              	.LBB1177:
 2147              	.LBB1163:
 2148              	.LBI1163:
  79:./eurorack/rings/dsp/fx/fx_engine.h ****     return static_cast<uint16_t>(
 2149              		.loc 9 79 19 view .LVU436
 2150              	.LBB1164:
  80:./eurorack/rings/dsp/fx/fx_engine.h ****         stmlib::Clip16(static_cast<int32_t>(value * 32768.0f)));
 2151              		.loc 9 80 5 view .LVU437
 2152              	.LBB1165:
 2153              	.LBI1165:
 131:./eurorack/stmlib/dsp/dsp.h ****     int32_t result;
 2154              		.loc 11 131 18 view .LVU438
 2155              	.LBB1166:
 132:./eurorack/stmlib/dsp/dsp.h ****     __asm ("ssat %0, %1, %2" : "=r" (result) :  "I" (16), "r" (x) );
 2156              		.loc 11 132 5 view .LVU439
 133:./eurorack/stmlib/dsp/dsp.h ****     return result;
 2157              		.loc 11 133 5 view .LVU440
 2158              	.LBE1166:
 2159              	.LBE1165:
 2160              	.LBE1164:
 2161              	.LBE1163:
 2162              	.LBE1177:
 2163              	.LBE1182:
 190:./eurorack/rings/dsp/fx/fx_engine.h ****     }
 2164              		.loc 9 190 20 is_stmt 0 view .LVU441
 2165 0366 A6EE277A 		vfma.f32	s14, s12, s15
 2166              	.LVL84:
 2167              	.LBB1183:
 2168              	.LBB1178:
 2169              	.LBB1173:
 2170              	.LBB1171:
  81:./eurorack/rings/dsp/fx/fx_engine.h ****   }
 2171              		.loc 9 81 23 view .LVU442
 2172 036a FEEEE87A 		vcvt.s32.f32	s15, s15, #15
 2173              	.LVL85:
 2174              	.LBB1169:
 2175              	.LBB1167:
 133:./eurorack/stmlib/dsp/dsp.h ****     return result;
 2176              		.loc 11 133 5 view .LVU443
 2177 036e 17EE907A 		vmov	r7, s15	@ int
 2178              	.LBE1167:
 2179              	.LBE1169:
 2180              	.LBE1171:
 2181              	.LBE1173:
 2182              	.LBE1178:
 2183              	.LBE1183:
 2184              	.LBE1187:
 2185              	.LBE1191:
 2186              	.LBE1206:
 2187              		.loc 8 132 22 view .LVU444
 2188 0372 F0EE617A 		vmov.f32	s15, s3
ARM GAS  C:\Users\pedro\AppData\Local\Temp\ccs9bf6f.s 			page 64


 2189              	.LBB1207:
 2190              	.LBB1192:
 2191              	.LBB1188:
 2192              	.LBB1184:
 2193              	.LBB1179:
 2194              	.LBB1174:
 2195              	.LBB1172:
 2196              	.LBB1170:
 2197              	.LBB1168:
 133:./eurorack/stmlib/dsp/dsp.h ****     return result;
 2198              		.loc 11 133 5 view .LVU445
 2199              		.syntax unified
 2200              	@ 133 "./eurorack/stmlib/dsp/dsp.h" 1
 2201 0376 07F30F0C 		ssat ip, #16, r7
 2202              	@ 0 "" 2
 2203              	.LVL86:
 2204              		.loc 11 134 5 is_stmt 1 view .LVU446
 2205              		.loc 11 134 5 is_stmt 0 view .LVU447
 2206              		.thumb
 2207              		.syntax unified
 2208              	.LBE1168:
 2209              	.LBE1170:
  81:./eurorack/rings/dsp/fx/fx_engine.h ****   }
 2210              		.loc 9 81 63 view .LVU448
 2211 037a 21F816C0 		strh	ip, [r1, r6, lsl #1]	@ movhi
 2212              	.LVL87:
  81:./eurorack/rings/dsp/fx/fx_engine.h ****   }
 2213              		.loc 9 81 63 view .LVU449
 2214              	.LBE1172:
 2215              	.LBE1174:
 2216              	.LBE1179:
 2217              	.LBE1184:
 2218              	.LBE1188:
 2219              	.LBE1192:
 2220              	.LBE1207:
 129:./eurorack/rings/dsp/fx/reverb.h ****       c.Write(wet, 0.0f);
 2221              		.loc 8 129 7 is_stmt 1 view .LVU450
 2222              	.LBB1208:
 2223              	.LBI974:
 183:./eurorack/rings/dsp/fx/fx_engine.h ****       Write(d, 0, scale);
 2224              		.loc 9 183 17 view .LVU451
 2225              	.LBB992:
 2226              	.LBI975:
 171:./eurorack/rings/dsp/fx/fx_engine.h ****       STATIC_ASSERT(D::base + D::length <= size, delay_memory_full);
 2227              		.loc 9 171 17 view .LVU452
 2228              	.LBB988:
 2229              	.LBB977:
 2230              	.LBI977:
  79:./eurorack/rings/dsp/fx/fx_engine.h ****     return static_cast<uint16_t>(
 2231              		.loc 9 79 19 view .LVU453
 2232              	.LBB978:
  80:./eurorack/rings/dsp/fx/fx_engine.h ****         stmlib::Clip16(static_cast<int32_t>(value * 32768.0f)));
 2233              		.loc 9 80 5 view .LVU454
 2234              	.LBB979:
 2235              	.LBI979:
 131:./eurorack/stmlib/dsp/dsp.h ****     int32_t result;
 2236              		.loc 11 131 18 view .LVU455
ARM GAS  C:\Users\pedro\AppData\Local\Temp\ccs9bf6f.s 			page 65


 2237              	.LBB980:
 132:./eurorack/stmlib/dsp/dsp.h ****     __asm ("ssat %0, %1, %2" : "=r" (result) :  "I" (16), "r" (x) );
 2238              		.loc 11 132 5 view .LVU456
 133:./eurorack/stmlib/dsp/dsp.h ****     return result;
 2239              		.loc 11 133 5 view .LVU457
 2240              	.LBE980:
 2241              	.LBE979:
 2242              	.LBE978:
 2243              	.LBE977:
 2244              	.LBE988:
 2245              	.LBE992:
 2246              	.LBE1208:
 2247              		.loc 8 132 22 is_stmt 0 view .LVU458
 2248 037e D7EE027A 		vfnms.f32	s15, s14, s4
 2249              	.LBB1209:
 2250              	.LBB993:
 2251              	.LBB989:
 2252              	.LBB985:
 2253              	.LBB983:
  81:./eurorack/rings/dsp/fx/fx_engine.h ****   }
 2254              		.loc 9 81 23 view .LVU459
 2255 0382 BEEEE87A 		vcvt.s32.f32	s14, s14, #15
 2256              	.LVL88:
 2257              	.LBB982:
 2258              	.LBB981:
 133:./eurorack/stmlib/dsp/dsp.h ****     return result;
 2259              		.loc 11 133 5 view .LVU460
 2260 0386 17EE106A 		vmov	r6, s14	@ int
 2261              		.syntax unified
 2262              	@ 133 "./eurorack/stmlib/dsp/dsp.h" 1
 2263 038a 06F30F0C 		ssat ip, #16, r6
 2264              	@ 0 "" 2
 2265              	.LVL89:
 2266              		.loc 11 134 5 is_stmt 1 view .LVU461
 2267              		.loc 11 134 5 is_stmt 0 view .LVU462
 2268              		.thumb
 2269              		.syntax unified
 2270              	.LBE981:
 2271              	.LBE982:
 2272              	.LBE983:
 2273              	.LBE985:
 2274              	.LBE989:
 2275              	.LBE993:
 2276              	.LBE1209:
 2277              		.loc 8 132 14 view .LVU463
 2278 038e E7EE831A 		vfma.f32	s3, s15, s6
 2279              	.LBE1216:
  87:./eurorack/rings/dsp/fx/reverb.h ****       float wet;
 2280              		.loc 8 87 16 view .LVU464
 2281 0392 6E1C     		adds	r6, r5, #1
 2282              	.LBB1217:
 2283              	.LBB1210:
 2284              	.LBB994:
 2285              	.LBB990:
 2286              	.LBB986:
 2287              	.LBB984:
  81:./eurorack/rings/dsp/fx/fx_engine.h ****   }
ARM GAS  C:\Users\pedro\AppData\Local\Temp\ccs9bf6f.s 			page 66


 2288              		.loc 9 81 63 view .LVU465
 2289 0394 21F81EC0 		strh	ip, [r1, lr, lsl #1]	@ movhi
 2290              	.LVL90:
  81:./eurorack/rings/dsp/fx/fx_engine.h ****   }
 2291              		.loc 9 81 63 view .LVU466
 2292              	.LBE984:
 2293              	.LBE986:
 2294              	.LBE990:
 2295              	.LBE994:
 2296              	.LBE1210:
 130:./eurorack/rings/dsp/fx/reverb.h **** 
 2297              		.loc 8 130 7 is_stmt 1 view .LVU467
 2298              		.loc 8 132 7 view .LVU468
 2299              		.loc 8 132 14 is_stmt 0 view .LVU469
 2300 0398 E2EC011A 		vstmia.32	r2!, {s3}
 2301              	.LVL91:
 133:./eurorack/rings/dsp/fx/reverb.h ****       
 134:./eurorack/rings/dsp/fx/reverb.h ****       ++left;
 2302              		.loc 8 134 7 is_stmt 1 view .LVU470
 135:./eurorack/rings/dsp/fx/reverb.h ****       ++right;
 2303              		.loc 8 135 7 view .LVU471
 2304              		.loc 8 135 7 is_stmt 0 view .LVU472
 2305              	.LBE1217:
  87:./eurorack/rings/dsp/fx/reverb.h ****       float wet;
 2306              		.loc 8 87 5 is_stmt 1 view .LVU473
  87:./eurorack/rings/dsp/fx/reverb.h ****       float wet;
 2307              		.loc 8 87 16 view .LVU474
  87:./eurorack/rings/dsp/fx/reverb.h ****       float wet;
 2308              		.loc 8 87 16 is_stmt 0 view .LVU475
 2309 039c 16D0     		beq	.L19
 2310              	.LVL92:
 2311              	.L10:
 2312              	.LBB1218:
  88:./eurorack/rings/dsp/fx/reverb.h ****       float apout = 0.0f;
 2313              		.loc 8 88 7 is_stmt 1 view .LVU476
  89:./eurorack/rings/dsp/fx/reverb.h ****       engine_.Start(&c);
 2314              		.loc 8 89 7 view .LVU477
  90:./eurorack/rings/dsp/fx/reverb.h ****       
 2315              		.loc 8 90 7 view .LVU478
 2316              	.LBB1211:
 2317              	.LBI578:
 269:./eurorack/rings/dsp/fx/fx_engine.h ****     --write_ptr_;
 2318              		.loc 9 269 15 view .LVU479
 2319              	.LBB615:
 271:./eurorack/rings/dsp/fx/fx_engine.h ****       write_ptr_ += size;
 2320              		.loc 9 271 5 is_stmt 0 view .LVU480
 2321 039e 5E1E     		subs	r6, r3, #1
 2322 03a0 0FD4     		bmi	.L6
 271:./eurorack/rings/dsp/fx/fx_engine.h ****       write_ptr_ += size;
 2323              		.loc 9 271 5 view .LVU481
 2324              	.LBE615:
 2325              	.LBE1211:
 2326              	.LBB1212:
 2327              	.LBB695:
 2328              	.LBB691:
 2329              	.LBB687:
 2330              	.LBB682:
ARM GAS  C:\Users\pedro\AppData\Local\Temp\ccs9bf6f.s 			page 67


 177:./eurorack/rings/dsp/fx/fx_engine.h ****       }
 2331              		.loc 9 177 49 view .LVU482
 2332 03a2 3346     		mov	r3, r6
 2333 03a4 B646     		mov	lr, r6
 2334              	.L7:
 2335              	.LBE682:
 2336              	.LBE687:
 2337              	.LBE691:
 2338              	.LBE695:
 2339              	.LBE1212:
 2340              	.LBB1213:
 2341              	.LBB616:
 277:./eurorack/rings/dsp/fx/fx_engine.h ****     c->write_ptr_ = write_ptr_;
 278:./eurorack/rings/dsp/fx/fx_engine.h ****     if ((write_ptr_ & 31) == 0) {
 2342              		.loc 9 278 5 view .LVU483
 2343 03a6 DF06     		lsls	r7, r3, #27
 2344 03a8 3FF446AE 		beq	.L20
 2345              	.LVL93:
 2346              	.LBB606:
 2347              	.LBI606:
  81:./eurorack/stmlib/dsp/cosine_oscillator.h ****     return y1_ + 0.5f;
 2348              		.loc 10 81 16 is_stmt 1 view .LVU484
 2349              	.LBB607:
  82:./eurorack/stmlib/dsp/cosine_oscillator.h ****   }
 2350              		.loc 10 82 5 view .LVU485
  82:./eurorack/stmlib/dsp/cosine_oscillator.h ****   }
 2351              		.loc 10 82 18 is_stmt 0 view .LVU486
 2352 03ac F6EE007A 		vmov.f32	s15, #5.0e-1
 2353 03b0 90ED020A 		vldr.32	s0, [r0, #8]
 2354              	.LBE607:
 2355              	.LBE606:
 2356              	.LBB609:
 2357              	.LBB610:
 2358 03b4 90ED062A 		vldr.32	s4, [r0, #24]
 2359              	.LBE610:
 2360              	.LBE609:
 2361              	.LBB612:
 2362              	.LBB608:
 2363 03b8 30EE270A 		vadd.f32	s0, s0, s15
 2364              	.LVL94:
  82:./eurorack/stmlib/dsp/cosine_oscillator.h ****   }
 2365              		.loc 10 82 18 view .LVU487
 2366              	.LBE608:
 2367              	.LBE612:
 2368              	.LBB613:
 2369              	.LBI609:
  81:./eurorack/stmlib/dsp/cosine_oscillator.h ****     return y1_ + 0.5f;
 2370              		.loc 10 81 16 is_stmt 1 view .LVU488
 2371              	.LBB611:
  82:./eurorack/stmlib/dsp/cosine_oscillator.h ****   }
 2372              		.loc 10 82 5 view .LVU489
  82:./eurorack/stmlib/dsp/cosine_oscillator.h ****   }
 2373              		.loc 10 82 18 is_stmt 0 view .LVU490
 2374 03bc 32EE272A 		vadd.f32	s4, s4, s15
 2375              	.LVL95:
  82:./eurorack/stmlib/dsp/cosine_oscillator.h ****   }
 2376              		.loc 10 82 18 view .LVU491
ARM GAS  C:\Users\pedro\AppData\Local\Temp\ccs9bf6f.s 			page 68


 2377 03c0 58E6     		b	.L9
 2378              	.LVL96:
 2379              	.L6:
  82:./eurorack/stmlib/dsp/cosine_oscillator.h ****   }
 2380              		.loc 10 82 18 view .LVU492
 2381              	.LBE611:
 2382              	.LBE613:
 272:./eurorack/rings/dsp/fx/fx_engine.h ****     }
 2383              		.loc 9 272 18 view .LVU493
 2384 03c2 03F5FF43 		add	r3, r3, #32640
 2385 03c6 7F33     		adds	r3, r3, #127
 2386 03c8 9E46     		mov	lr, r3
 2387 03ca ECE7     		b	.L7
 2388              	.LVL97:
 2389              	.L19:
 272:./eurorack/rings/dsp/fx/fx_engine.h ****     }
 2390              		.loc 9 272 18 view .LVU494
 2391              	.LBE616:
 2392              	.LBE1213:
 2393              	.LBE1218:
 136:./eurorack/rings/dsp/fx/reverb.h ****     }
 137:./eurorack/rings/dsp/fx/reverb.h ****     
 138:./eurorack/rings/dsp/fx/reverb.h ****     lp_decay_1_ = lp_1;
 139:./eurorack/rings/dsp/fx/reverb.h ****     lp_decay_2_ = lp_2;
 140:./eurorack/rings/dsp/fx/reverb.h ****   }
 2394              		.loc 8 140 3 view .LVU495
 2395 03cc BDEC028B 		vldm	sp!, {d8}
 2396              		.cfi_restore 80
 2397              		.cfi_restore 81
 2398              		.cfi_def_cfa_offset 36
 2399              	.LVL98:
 2400              		.loc 8 140 3 view .LVU496
 2401 03d0 0360     		str	r3, [r0]
 138:./eurorack/rings/dsp/fx/reverb.h ****     lp_decay_2_ = lp_2;
 2402              		.loc 8 138 5 is_stmt 1 view .LVU497
 138:./eurorack/rings/dsp/fx/reverb.h ****     lp_decay_2_ = lp_2;
 2403              		.loc 8 138 17 is_stmt 0 view .LVU498
 2404 03d2 C0ED0F4A 		vstr.32	s9, [r0, #60]
 139:./eurorack/rings/dsp/fx/reverb.h ****   }
 2405              		.loc 8 139 5 is_stmt 1 view .LVU499
 139:./eurorack/rings/dsp/fx/reverb.h ****   }
 2406              		.loc 8 139 17 is_stmt 0 view .LVU500
 2407 03d6 80ED105A 		vstr.32	s10, [r0, #64]
 2408              	.LVL99:
 2409              	.LBB1219:
 2410              	.LBI1219:
 147:./eurorack/rings/dsp/fx/fx_engine.h ****     
 2411              		.loc 9 147 5 is_stmt 1 view .LVU501
 147:./eurorack/rings/dsp/fx/fx_engine.h ****     
 2412              		.loc 9 147 5 is_stmt 0 view .LVU502
 2413              	.LBE1219:
 2414              		.loc 8 140 3 view .LVU503
 2415 03da BDE8F08F 		pop	{r4, r5, r6, r7, r8, r9, r10, fp, pc}
 2416              	.LVL100:
 2417              	.L16:
 2418              		.cfi_def_cfa_offset 0
 2419              		.cfi_restore 4
ARM GAS  C:\Users\pedro\AppData\Local\Temp\ccs9bf6f.s 			page 69


 2420              		.cfi_restore 5
 2421              		.cfi_restore 6
 2422              		.cfi_restore 7
 2423              		.cfi_restore 8
 2424              		.cfi_restore 9
 2425              		.cfi_restore 10
 2426              		.cfi_restore 11
 2427              		.cfi_restore 14
 138:./eurorack/rings/dsp/fx/reverb.h ****     lp_decay_2_ = lp_2;
 2428              		.loc 8 138 5 is_stmt 1 view .LVU504
 138:./eurorack/rings/dsp/fx/reverb.h ****     lp_decay_2_ = lp_2;
 2429              		.loc 8 138 17 is_stmt 0 view .LVU505
 2430 03de C0ED0F4A 		vstr.32	s9, [r0, #60]
 139:./eurorack/rings/dsp/fx/reverb.h ****   }
 2431              		.loc 8 139 5 is_stmt 1 view .LVU506
 139:./eurorack/rings/dsp/fx/reverb.h ****   }
 2432              		.loc 8 139 17 is_stmt 0 view .LVU507
 2433 03e2 80ED105A 		vstr.32	s10, [r0, #64]
 2434              	.LVL101:
 2435              	.LBB1220:
 147:./eurorack/rings/dsp/fx/fx_engine.h ****     
 2436              		.loc 9 147 5 is_stmt 1 view .LVU508
 147:./eurorack/rings/dsp/fx/fx_engine.h ****     
 2437              		.loc 9 147 5 is_stmt 0 view .LVU509
 2438              	.LBE1220:
 139:./eurorack/rings/dsp/fx/reverb.h ****   }
 2439              		.loc 8 139 17 view .LVU510
 2440 03e6 7047     		bx	lr
 2441              	.L22:
 2442              		.align	2
 2443              	.L21:
 2444 03e8 00000000 		.word	0
 2445 03ec 00000038 		.word	939524096
 2446 03f0 00A8C345 		.word	1170450432
 2447 03f4 00004842 		.word	1112014848
 2448 03f8 00002042 		.word	1109393408
 2449 03fc 00608B45 		.word	1166761984
 2450              		.cfi_endproc
 2451              	.LFE4841:
 2453              		.section	.text._Z13AudioCallbackPKPKfPPfj,"ax",%progbits
 2454              		.align	1
 2455              		.p2align 2,,3
 2456              		.global	_Z13AudioCallbackPKPKfPPfj
 2457              		.syntax unified
 2458              		.thumb
 2459              		.thumb_func
 2460              		.fpu fpv5-d16
 2462              	_Z13AudioCallbackPKPKfPPfj:
 2463              	.LVL102:
 2464              	.LFB4848:
 2465              		.file 12 "Reverb.cpp"
   1:Reverb.cpp    **** #include "daisy_patch_sm.h"
   2:Reverb.cpp    **** #include "daisysp.h"
   3:Reverb.cpp    **** 
   4:Reverb.cpp    **** using namespace daisy;
   5:Reverb.cpp    **** using namespace daisysp;
   6:Reverb.cpp    **** using namespace patch_sm; 
ARM GAS  C:\Users\pedro\AppData\Local\Temp\ccs9bf6f.s 			page 70


   7:Reverb.cpp    **** 
   8:Reverb.cpp    **** 
   9:Reverb.cpp    **** #include "rings/dsp/fx/reverb.h"
  10:Reverb.cpp    **** 
  11:Reverb.cpp    **** using namespace rings; 
  12:Reverb.cpp    **** 
  13:Reverb.cpp    **** Reverb clouds_reverb; 
  14:Reverb.cpp    **** uint16_t reverb_buffer[65536];
  15:Reverb.cpp    **** 
  16:Reverb.cpp    **** DaisyPatchSM patch;
  17:Reverb.cpp    **** // ReverbSc     reverb;
  18:Reverb.cpp    **** 
  19:Reverb.cpp    **** float prevCtrlVal[4] = {0};
  20:Reverb.cpp    ****  
  21:Reverb.cpp    **** void AudioCallback(AudioHandle::InputBuffer  in,
  22:Reverb.cpp    ****                    AudioHandle::OutputBuffer out,
  23:Reverb.cpp    ****                    size_t                    size)
  24:Reverb.cpp    **** {
 2466              		.loc 12 24 1 is_stmt 1 view -0
 2467              		.cfi_startproc
 2468              		@ args = 0, pretend = 0, frame = 384
 2469              		@ frame_needed = 0, uses_anonymous_args = 0
  25:Reverb.cpp    ****     patch.ProcessAnalogControls();
 2470              		.loc 12 25 5 view .LVU512
  24:Reverb.cpp    ****     patch.ProcessAnalogControls();
 2471              		.loc 12 24 1 is_stmt 0 view .LVU513
 2472 0000 2DE9F04F 		push	{r4, r5, r6, r7, r8, r9, r10, fp, lr}
 2473              		.cfi_def_cfa_offset 36
 2474              		.cfi_offset 4, -36
 2475              		.cfi_offset 5, -32
 2476              		.cfi_offset 6, -28
 2477              		.cfi_offset 7, -24
 2478              		.cfi_offset 8, -20
 2479              		.cfi_offset 9, -16
 2480              		.cfi_offset 10, -12
 2481              		.cfi_offset 11, -8
 2482              		.cfi_offset 14, -4
 2483 0004 0746     		mov	r7, r0
 2484              		.loc 12 25 32 view .LVU514
 2485 0006 3948     		ldr	r0, .L28
 2486              	.LVL103:
  24:Reverb.cpp    ****     patch.ProcessAnalogControls();
 2487              		.loc 12 24 1 view .LVU515
 2488 0008 9146     		mov	r9, r2
 2489 000a 8846     		mov	r8, r1
 2490 000c 2DED068B 		vpush.64	{d8, d9, d10}
 2491              		.cfi_def_cfa_offset 60
 2492              		.cfi_offset 80, -60
 2493              		.cfi_offset 81, -56
 2494              		.cfi_offset 82, -52
 2495              		.cfi_offset 83, -48
 2496              		.cfi_offset 84, -44
 2497              		.cfi_offset 85, -40
 2498 0010 E1B0     		sub	sp, sp, #388
 2499              		.cfi_def_cfa_offset 448
 2500              		.loc 12 25 32 view .LVU516
 2501 0012 FFF7FEFF 		bl	_ZN5daisy8patch_sm12DaisyPatchSM21ProcessAnalogControlsEv
ARM GAS  C:\Users\pedro\AppData\Local\Temp\ccs9bf6f.s 			page 71


 2502              	.LVL104:
  26:Reverb.cpp    **** 
  27:Reverb.cpp    ****     float cvOneValue = patch.GetAdcValue(CV_1);
 2503              		.loc 12 27 5 is_stmt 1 view .LVU517
 2504              		.loc 12 27 41 is_stmt 0 view .LVU518
 2505 0016 0021     		movs	r1, #0
 2506 0018 3448     		ldr	r0, .L28
 2507 001a FFF7FEFF 		bl	_ZN5daisy8patch_sm12DaisyPatchSM11GetAdcValueEi
 2508              	.LVL105:
  28:Reverb.cpp    ****     float cvTwoValue = patch.GetAdcValue(CV_2);
 2509              		.loc 12 28 41 view .LVU519
 2510 001e 0121     		movs	r1, #1
 2511 0020 3248     		ldr	r0, .L28
  27:Reverb.cpp    ****     float cvTwoValue = patch.GetAdcValue(CV_2);
 2512              		.loc 12 27 41 view .LVU520
 2513 0022 B0EE40AA 		vmov.f32	s20, s0
 2514              	.LVL106:
 2515              		.loc 12 28 5 is_stmt 1 view .LVU521
 2516              		.loc 12 28 41 is_stmt 0 view .LVU522
 2517 0026 FFF7FEFF 		bl	_ZN5daisy8patch_sm12DaisyPatchSM11GetAdcValueEi
 2518              	.LVL107:
  29:Reverb.cpp    ****     float cvThreeValue = patch.GetAdcValue(CV_3);
 2519              		.loc 12 29 43 view .LVU523
 2520 002a 0221     		movs	r1, #2
 2521 002c 2F48     		ldr	r0, .L28
  28:Reverb.cpp    ****     float cvTwoValue = patch.GetAdcValue(CV_2);
 2522              		.loc 12 28 41 view .LVU524
 2523 002e F0EE408A 		vmov.f32	s17, s0
 2524              	.LVL108:
 2525              		.loc 12 29 5 is_stmt 1 view .LVU525
 2526              		.loc 12 29 43 is_stmt 0 view .LVU526
 2527 0032 FFF7FEFF 		bl	_ZN5daisy8patch_sm12DaisyPatchSM11GetAdcValueEi
 2528              	.LVL109:
  30:Reverb.cpp    ****     float cvFourValue = patch.GetAdcValue(CV_4);
 2529              		.loc 12 30 42 view .LVU527
 2530 0036 0321     		movs	r1, #3
 2531 0038 2C48     		ldr	r0, .L28
  29:Reverb.cpp    ****     float cvThreeValue = patch.GetAdcValue(CV_3);
 2532              		.loc 12 29 43 view .LVU528
 2533 003a F0EE40AA 		vmov.f32	s21, s0
 2534              	.LVL110:
 2535              		.loc 12 30 5 is_stmt 1 view .LVU529
 2536              		.loc 12 30 42 is_stmt 0 view .LVU530
 2537 003e FFF7FEFF 		bl	_ZN5daisy8patch_sm12DaisyPatchSM11GetAdcValueEi
 2538              	.LVL111:
  31:Reverb.cpp    **** 
  32:Reverb.cpp    ****      prevCtrlVal[0] = cvOneValue;
 2539              		.loc 12 32 21 view .LVU531
 2540 0042 2B4B     		ldr	r3, .L28+4
 2541              	.LVL112:
 2542              		.loc 12 32 6 is_stmt 1 view .LVU532
 2543              		.loc 12 32 21 is_stmt 0 view .LVU533
 2544 0044 83ED00AA 		vstr.32	s20, [r3]
  33:Reverb.cpp    ****      float delta = 0.01;
 2545              		.loc 12 33 6 is_stmt 1 view .LVU534
 2546              	.LVL113:
  34:Reverb.cpp    **** 
ARM GAS  C:\Users\pedro\AppData\Local\Temp\ccs9bf6f.s 			page 72


  35:Reverb.cpp    ****     // float send = 1.0;
  36:Reverb.cpp    ****     // float drylevel = 1.;
  37:Reverb.cpp    ****     // float dryL, dryR, sendL, sendR;
  38:Reverb.cpp    ****     float ins_left[48];
 2547              		.loc 12 38 5 view .LVU535
  39:Reverb.cpp    ****     float ins_right[48];
 2548              		.loc 12 39 5 view .LVU536
  40:Reverb.cpp    **** 
  41:Reverb.cpp    ****     for(size_t i = 0; i < size; i++)
 2549              		.loc 12 41 5 view .LVU537
 2550              	.LBB1221:
 2551              		.loc 12 41 25 view .LVU538
 2552 0048 B9F1000F 		cmp	r9, #0
 2553 004c 48D0     		beq	.L23
  42:Reverb.cpp    ****     {
  43:Reverb.cpp    ****         // Read Inputs
  44:Reverb.cpp    ****         ins_left[i] = IN_L[i];
  45:Reverb.cpp    ****         ins_right[i]= IN_R[i];
  46:Reverb.cpp    ****     
  47:Reverb.cpp    ****         clouds_reverb.set_amount(cvTwoValue * 0.5f);
  48:Reverb.cpp    ****         clouds_reverb.set_diffusion(0.625f * cvFourValue);
  49:Reverb.cpp    ****         clouds_reverb.set_time(0.35f + 0.63f * cvThreeValue);// 0.5f + (0.49f * patch_position));
 2554              		.loc 12 49 31 is_stmt 0 view .LVU539
 2555 004e DFED296A 		vldr.32	s13, .L28+8
 2556 0052 B0EE408A 		vmov.f32	s16, s0
 2557 0056 DFED289A 		vldr.32	s19, .L28+12
  47:Reverb.cpp    ****         clouds_reverb.set_diffusion(0.625f * cvFourValue);
 2558              		.loc 12 47 33 view .LVU540
 2559 005a F6EE007A 		vmov.f32	s15, #5.0e-1
  50:Reverb.cpp    ****         clouds_reverb.set_input_gain(0.2f);
  51:Reverb.cpp    ****         clouds_reverb.set_lp(0.3f + cvOneValue * 0.6f);// : 0.6f);
 2560              		.loc 12 51 29 view .LVU541
 2561 005e 9FED277A 		vldr.32	s14, .L28+16
  48:Reverb.cpp    ****         clouds_reverb.set_time(0.35f + 0.63f * cvThreeValue);// 0.5f + (0.49f * patch_position));
 2562              		.loc 12 48 36 view .LVU542
 2563 0062 B6EE040A 		vmov.f32	s0, #6.25e-1
 2564              	.LVL114:
 2565              		.loc 12 51 29 view .LVU543
 2566 0066 9FED269A 		vldr.32	s18, .L28+20
  49:Reverb.cpp    ****         clouds_reverb.set_input_gain(0.2f);
 2567              		.loc 12 49 31 view .LVU544
 2568 006a EAEEA69A 		vfma.f32	s19, s21, s13
  47:Reverb.cpp    ****         clouds_reverb.set_diffusion(0.625f * cvFourValue);
 2569              		.loc 12 47 33 view .LVU545
 2570 006e 68EEA78A 		vmul.f32	s17, s17, s15
 2571              	.LVL115:
  47:Reverb.cpp    ****         clouds_reverb.set_diffusion(0.625f * cvFourValue);
 2572              		.loc 12 47 33 view .LVU546
 2573 0072 EA46     		mov	r10, sp
 2574              		.loc 12 51 29 view .LVU547
 2575 0074 AAEE079A 		vfma.f32	s18, s20, s14
 2576 0078 30AE     		add	r6, sp, #192
  48:Reverb.cpp    ****         clouds_reverb.set_time(0.35f + 0.63f * cvThreeValue);// 0.5f + (0.49f * patch_position));
 2577              		.loc 12 48 36 view .LVU548
 2578 007a 28EE008A 		vmul.f32	s16, s16, s0
 2579              	.LVL116:
  41:Reverb.cpp    ****     {
ARM GAS  C:\Users\pedro\AppData\Local\Temp\ccs9bf6f.s 			page 73


 2580              		.loc 12 41 16 view .LVU549
 2581 007e 0024     		movs	r4, #0
 2582 0080 204D     		ldr	r5, .L28+24
 2583              	.LVL117:
 2584              	.L26:
  44:Reverb.cpp    ****         ins_right[i]= IN_R[i];
 2585              		.loc 12 44 9 is_stmt 1 discriminator 2 view .LVU550
 2586              	.LBB1222:
 2587              	.LBB1223:
 141:./eurorack/rings/dsp/fx/reverb.h ****   
 142:./eurorack/rings/dsp/fx/reverb.h ****   inline void set_amount(float amount) {
 143:./eurorack/rings/dsp/fx/reverb.h ****     amount_ = amount;
 144:./eurorack/rings/dsp/fx/reverb.h ****   }
 145:./eurorack/rings/dsp/fx/reverb.h ****   
 146:./eurorack/rings/dsp/fx/reverb.h ****   inline void set_input_gain(float input_gain) {
 147:./eurorack/rings/dsp/fx/reverb.h ****     input_gain_ = input_gain;
 2588              		.loc 8 147 17 is_stmt 0 discriminator 2 view .LVU551
 2589 0082 DFF884C0 		ldr	ip, .L28+28
 2590              	.LBE1223:
 2591              	.LBE1222:
  52:Reverb.cpp    **** 
  53:Reverb.cpp    ****         clouds_reverb.Process(&ins_left[i], &ins_right[i], 1);
 2592              		.loc 12 53 30 discriminator 2 view .LVU552
 2593 0086 3246     		mov	r2, r6
 2594 0088 5146     		mov	r1, r10
 2595 008a 4FEA840B 		lsl	fp, r4, #2
  45:Reverb.cpp    ****     
 2596              		.loc 12 45 29 discriminator 2 view .LVU553
 2597 008e D7E90003 		ldrd	r0, r3, [r7]
  44:Reverb.cpp    ****         ins_right[i]= IN_R[i];
 2598              		.loc 12 44 29 discriminator 2 view .LVU554
 2599 0092 00EB8400 		add	r0, r0, r4, lsl #2
  45:Reverb.cpp    ****     
 2600              		.loc 12 45 29 discriminator 2 view .LVU555
 2601 0096 03EB840E 		add	lr, r3, r4, lsl #2
 2602              		.loc 12 53 30 discriminator 2 view .LVU556
 2603 009a 0123     		movs	r3, #1
  44:Reverb.cpp    ****         ins_right[i]= IN_R[i];
 2604              		.loc 12 44 29 discriminator 2 view .LVU557
 2605 009c 0068     		ldr	r0, [r0]	@ float
  41:Reverb.cpp    ****     {
 2606              		.loc 12 41 5 discriminator 2 view .LVU558
 2607 009e 0134     		adds	r4, r4, #1
 2608              	.LVL118:
  44:Reverb.cpp    ****         ins_right[i]= IN_R[i];
 2609              		.loc 12 44 21 discriminator 2 view .LVU559
 2610 00a0 CAF80000 		str	r0, [r10]	@ float
  45:Reverb.cpp    ****     
 2611              		.loc 12 45 9 is_stmt 1 discriminator 2 view .LVU560
  45:Reverb.cpp    ****     
 2612              		.loc 12 45 29 is_stmt 0 discriminator 2 view .LVU561
 2613 00a4 DEF80000 		ldr	r0, [lr]	@ float
 2614              	.LBB1226:
 2615              	.LBB1224:
 2616              		.loc 8 147 17 discriminator 2 view .LVU562
 2617 00a8 C5F82CC0 		str	ip, [r5, #44]	@ float
 2618              	.LBE1224:
ARM GAS  C:\Users\pedro\AppData\Local\Temp\ccs9bf6f.s 			page 74


 2619              	.LBE1226:
  45:Reverb.cpp    ****     
 2620              		.loc 12 45 21 discriminator 2 view .LVU563
 2621 00ac 3060     		str	r0, [r6]	@ float
  47:Reverb.cpp    ****         clouds_reverb.set_diffusion(0.625f * cvFourValue);
 2622              		.loc 12 47 9 is_stmt 1 discriminator 2 view .LVU564
 2623              	.LVL119:
 2624              	.LBB1227:
 2625              	.LBI1227:
 142:./eurorack/rings/dsp/fx/reverb.h ****     amount_ = amount;
 2626              		.loc 8 142 15 discriminator 2 view .LVU565
 2627              	.LBB1228:
 143:./eurorack/rings/dsp/fx/reverb.h ****   }
 2628              		.loc 8 143 5 discriminator 2 view .LVU566
 2629              	.LBE1228:
 2630              	.LBE1227:
 2631              		.loc 12 53 30 is_stmt 0 discriminator 2 view .LVU567
 2632 00ae 1548     		ldr	r0, .L28+24
 2633              	.LBB1230:
 2634              	.LBB1229:
 143:./eurorack/rings/dsp/fx/reverb.h ****   }
 2635              		.loc 8 143 13 discriminator 2 view .LVU568
 2636 00b0 C5ED0A8A 		vstr.32	s17, [r5, #40]
 2637              	.LVL120:
 143:./eurorack/rings/dsp/fx/reverb.h ****   }
 2638              		.loc 8 143 13 discriminator 2 view .LVU569
 2639              	.LBE1229:
 2640              	.LBE1230:
  48:Reverb.cpp    ****         clouds_reverb.set_time(0.35f + 0.63f * cvThreeValue);// 0.5f + (0.49f * patch_position));
 2641              		.loc 12 48 9 is_stmt 1 discriminator 2 view .LVU570
 2642              	.LBB1231:
 2643              	.LBI1231:
 148:./eurorack/rings/dsp/fx/reverb.h ****   }
 149:./eurorack/rings/dsp/fx/reverb.h **** 
 150:./eurorack/rings/dsp/fx/reverb.h ****   inline void set_time(float reverb_time) {
 151:./eurorack/rings/dsp/fx/reverb.h ****     reverb_time_ = reverb_time;
 152:./eurorack/rings/dsp/fx/reverb.h ****   }
 153:./eurorack/rings/dsp/fx/reverb.h ****   
 154:./eurorack/rings/dsp/fx/reverb.h ****   inline void set_diffusion(float diffusion) {
 2644              		.loc 8 154 15 discriminator 2 view .LVU571
 2645              	.LBB1232:
 155:./eurorack/rings/dsp/fx/reverb.h ****     diffusion_ = diffusion;
 2646              		.loc 8 155 5 discriminator 2 view .LVU572
 2647              		.loc 8 155 16 is_stmt 0 discriminator 2 view .LVU573
 2648 00b4 85ED0D8A 		vstr.32	s16, [r5, #52]
 2649              	.LVL121:
 2650              		.loc 8 155 16 discriminator 2 view .LVU574
 2651              	.LBE1232:
 2652              	.LBE1231:
  49:Reverb.cpp    ****         clouds_reverb.set_input_gain(0.2f);
 2653              		.loc 12 49 9 is_stmt 1 discriminator 2 view .LVU575
 2654              	.LBB1233:
 2655              	.LBI1233:
 150:./eurorack/rings/dsp/fx/reverb.h ****     reverb_time_ = reverb_time;
 2656              		.loc 8 150 15 discriminator 2 view .LVU576
 2657              	.LBB1234:
 151:./eurorack/rings/dsp/fx/reverb.h ****   }
ARM GAS  C:\Users\pedro\AppData\Local\Temp\ccs9bf6f.s 			page 75


 2658              		.loc 8 151 5 discriminator 2 view .LVU577
 151:./eurorack/rings/dsp/fx/reverb.h ****   }
 2659              		.loc 8 151 18 is_stmt 0 discriminator 2 view .LVU578
 2660 00b8 C5ED0C9A 		vstr.32	s19, [r5, #48]
 2661              	.LVL122:
 151:./eurorack/rings/dsp/fx/reverb.h ****   }
 2662              		.loc 8 151 18 discriminator 2 view .LVU579
 2663              	.LBE1234:
 2664              	.LBE1233:
  50:Reverb.cpp    ****         clouds_reverb.set_lp(0.3f + cvOneValue * 0.6f);// : 0.6f);
 2665              		.loc 12 50 9 is_stmt 1 discriminator 2 view .LVU580
 2666              	.LBB1235:
 2667              	.LBI1222:
 146:./eurorack/rings/dsp/fx/reverb.h ****     input_gain_ = input_gain;
 2668              		.loc 8 146 15 discriminator 2 view .LVU581
 2669              	.LBB1225:
 147:./eurorack/rings/dsp/fx/reverb.h ****   }
 2670              		.loc 8 147 5 discriminator 2 view .LVU582
 147:./eurorack/rings/dsp/fx/reverb.h ****   }
 2671              		.loc 8 147 5 is_stmt 0 discriminator 2 view .LVU583
 2672              	.LBE1225:
 2673              	.LBE1235:
  51:Reverb.cpp    **** 
 2674              		.loc 12 51 9 is_stmt 1 discriminator 2 view .LVU584
 2675              	.LBB1236:
 2676              	.LBI1236:
 156:./eurorack/rings/dsp/fx/reverb.h ****   }
 157:./eurorack/rings/dsp/fx/reverb.h ****   
 158:./eurorack/rings/dsp/fx/reverb.h ****   inline void set_lp(float lp) {
 2677              		.loc 8 158 15 discriminator 2 view .LVU585
 2678              	.LBB1237:
 159:./eurorack/rings/dsp/fx/reverb.h ****     lp_ = lp;
 2679              		.loc 8 159 5 discriminator 2 view .LVU586
 2680              		.loc 8 159 9 is_stmt 0 discriminator 2 view .LVU587
 2681 00bc 85ED0E9A 		vstr.32	s18, [r5, #56]
 2682              	.LVL123:
 2683              		.loc 8 159 9 discriminator 2 view .LVU588
 2684              	.LBE1237:
 2685              	.LBE1236:
 2686              		.loc 12 53 9 is_stmt 1 discriminator 2 view .LVU589
 2687              		.loc 12 53 30 is_stmt 0 discriminator 2 view .LVU590
 2688 00c0 FFF7FEFF 		bl	_ZN5rings6Reverb7ProcessEPfS1_j
 2689              	.LVL124:
  54:Reverb.cpp    ****         
  55:Reverb.cpp    ****         OUT_L[i] = ins_left[i];
 2690              		.loc 12 55 9 is_stmt 1 discriminator 2 view .LVU591
 2691              		.loc 12 55 18 is_stmt 0 discriminator 2 view .LVU592
 2692 00c4 D8F80020 		ldr	r2, [r8]
  41:Reverb.cpp    ****     {
 2693              		.loc 12 41 25 discriminator 2 view .LVU593
 2694 00c8 A145     		cmp	r9, r4
  56:Reverb.cpp    ****         OUT_R[i] = ins_right[i];
 2695              		.loc 12 56 18 discriminator 2 view .LVU594
 2696 00ca D8F80430 		ldr	r3, [r8, #4]
  55:Reverb.cpp    ****         OUT_R[i] = ins_right[i];
 2697              		.loc 12 55 30 discriminator 2 view .LVU595
 2698 00ce 5AF8041B 		ldr	r1, [r10], #4	@ float
ARM GAS  C:\Users\pedro\AppData\Local\Temp\ccs9bf6f.s 			page 76


  55:Reverb.cpp    ****         OUT_R[i] = ins_right[i];
 2699              		.loc 12 55 18 discriminator 2 view .LVU596
 2700 00d2 5A44     		add	r2, r2, fp
 2701              		.loc 12 56 18 discriminator 2 view .LVU597
 2702 00d4 5B44     		add	r3, r3, fp
  55:Reverb.cpp    ****         OUT_R[i] = ins_right[i];
 2703              		.loc 12 55 18 discriminator 2 view .LVU598
 2704 00d6 1160     		str	r1, [r2]	@ float
 2705              		.loc 12 56 9 is_stmt 1 discriminator 2 view .LVU599
 2706              		.loc 12 56 31 is_stmt 0 discriminator 2 view .LVU600
 2707 00d8 56F8042B 		ldr	r2, [r6], #4	@ float
 2708              		.loc 12 56 18 discriminator 2 view .LVU601
 2709 00dc 1A60     		str	r2, [r3]	@ float
  41:Reverb.cpp    ****     {
 2710              		.loc 12 41 5 is_stmt 1 discriminator 2 view .LVU602
 2711              	.LVL125:
  41:Reverb.cpp    ****     {
 2712              		.loc 12 41 25 discriminator 2 view .LVU603
 2713 00de D0D1     		bne	.L26
 2714              	.LVL126:
 2715              	.L23:
  41:Reverb.cpp    ****     {
 2716              		.loc 12 41 25 is_stmt 0 discriminator 2 view .LVU604
 2717              	.LBE1221:
  57:Reverb.cpp    **** 
  58:Reverb.cpp    ****         // float dryl  = IN_L[i] * in_level + 1;
  59:Reverb.cpp    ****         // float dryr  = IN_R[i] * in_level + 1;
  60:Reverb.cpp    ****         // float sendl = IN_L[i] * send_level;
  61:Reverb.cpp    ****         // float sendr = IN_R[i] * send_level;
  62:Reverb.cpp    ****         // float wetl, wetr;
  63:Reverb.cpp    ****         // // reverb.Process(sendl, sendr, &wetl, &wetr);
  64:Reverb.cpp    ****         // OUT_L[i] = dryl + wetl;
  65:Reverb.cpp    ****         // OUT_R[i] = dryr + wetr;
  66:Reverb.cpp    ****     }
  67:Reverb.cpp    **** 
  68:Reverb.cpp    ****     // /** Update Params with the four knobs */
  69:Reverb.cpp    ****     // float time_knob = patch.GetAdcValue(CV_1);
  70:Reverb.cpp    ****     // float time      = fmap(time_knob, 0.3f, 0.99f);
  71:Reverb.cpp    **** 
  72:Reverb.cpp    ****     // float damp_knob = patch.GetAdcValue(CV_2);
  73:Reverb.cpp    ****     // float damp      = fmap(damp_knob, 1000.f, 19000.f, Mapping::LOG);
  74:Reverb.cpp    **** 
  75:Reverb.cpp    ****     // float in_level = patch.GetAdcValue(CV_3); 
  76:Reverb.cpp    **** 
  77:Reverb.cpp    ****     // float send_level = patch.GetAdcValue(CV_4);
  78:Reverb.cpp    **** 
  79:Reverb.cpp    ****     // // reverb.SetFeedback(time);
  80:Reverb.cpp    ****     // // reverb.SetLpFreq(damp);
  81:Reverb.cpp    **** 
  82:Reverb.cpp    ****     // for(size_t i = 0; i < size; i++)
  83:Reverb.cpp    ****     // {
  84:Reverb.cpp    ****     //     float dryl  = IN_L[i] * in_level + 1;
  85:Reverb.cpp    ****     //     float dryr  = IN_R[i] * in_level + 1;
  86:Reverb.cpp    ****     //     float sendl = IN_L[i] * send_level;
  87:Reverb.cpp    ****     //     float sendr = IN_R[i] * send_level;
  88:Reverb.cpp    ****     //     float wetl, wetr;
  89:Reverb.cpp    ****     //     // reverb.Process(sendl, sendr, &wetl, &wetr);
ARM GAS  C:\Users\pedro\AppData\Local\Temp\ccs9bf6f.s 			page 77


  90:Reverb.cpp    ****     //     OUT_L[i] = dryl + wetl;
  91:Reverb.cpp    ****     //     OUT_R[i] = dryr + wetr;
  92:Reverb.cpp    ****     // }
  93:Reverb.cpp    **** }
 2718              		.loc 12 93 1 view .LVU605
 2719 00e0 61B0     		add	sp, sp, #388
 2720              		.cfi_def_cfa_offset 60
 2721              		@ sp needed
 2722 00e2 BDEC068B 		vldm	sp!, {d8-d10}
 2723              		.cfi_restore 84
 2724              		.cfi_restore 85
 2725              		.cfi_restore 82
 2726              		.cfi_restore 83
 2727              		.cfi_restore 80
 2728              		.cfi_restore 81
 2729              		.cfi_def_cfa_offset 36
 2730              	.LVL127:
 2731              		.loc 12 93 1 view .LVU606
 2732 00e6 BDE8F08F 		pop	{r4, r5, r6, r7, r8, r9, r10, fp, pc}
 2733              	.LVL128:
 2734              	.L29:
 2735              		.loc 12 93 1 view .LVU607
 2736 00ea 00BF     		.align	2
 2737              	.L28:
 2738 00ec 00000000 		.word	.LANCHOR0
 2739 00f0 00000000 		.word	.LANCHOR1
 2740 00f4 AE47213F 		.word	1059145646
 2741 00f8 3333B33E 		.word	1051931443
 2742 00fc 9A99193F 		.word	1058642330
 2743 0100 9A99993E 		.word	1050253722
 2744 0104 00000000 		.word	.LANCHOR2
 2745 0108 CDCC4C3E 		.word	1045220557
 2746              		.cfi_endproc
 2747              	.LFE4848:
 2749              		.section	.text.startup.main,"ax",%progbits
 2750              		.align	1
 2751              		.p2align 2,,3
 2752              		.global	main
 2753              		.syntax unified
 2754              		.thumb
 2755              		.thumb_func
 2756              		.fpu fpv5-d16
 2758              	main:
 2759              	.LFB4849:
  94:Reverb.cpp    **** 
  95:Reverb.cpp    **** int main(void)
  96:Reverb.cpp    **** {
 2760              		.loc 12 96 1 is_stmt 1 view -0
 2761              		.cfi_startproc
 2762              		@ Volatile: function does not return.
 2763              		@ args = 0, pretend = 0, frame = 0
 2764              		@ frame_needed = 0, uses_anonymous_args = 0
  97:Reverb.cpp    ****     patch.Init();
 2765              		.loc 12 97 5 view .LVU609
  96:Reverb.cpp    ****     patch.Init();
 2766              		.loc 12 96 1 is_stmt 0 view .LVU610
 2767 0000 08B5     		push	{r3, lr}
ARM GAS  C:\Users\pedro\AppData\Local\Temp\ccs9bf6f.s 			page 78


 2768              		.cfi_def_cfa_offset 8
 2769              		.cfi_offset 3, -8
 2770              		.cfi_offset 14, -4
 2771              		.loc 12 97 15 view .LVU611
 2772 0002 1248     		ldr	r0, .L33
 2773 0004 FFF7FEFF 		bl	_ZN5daisy8patch_sm12DaisyPatchSM4InitEv
 2774              	.LVL129:
  98:Reverb.cpp    ****     patch.StartAudio(AudioCallback);
 2775              		.loc 12 98 5 is_stmt 1 view .LVU612
 2776              		.loc 12 98 21 is_stmt 0 view .LVU613
 2777 0008 1149     		ldr	r1, .L33+4
 2778 000a 1048     		ldr	r0, .L33
 2779              	.LBB1264:
 2780              	.LBB1265:
 2781              	.LBB1266:
 2782              	.LBB1267:
 108:./eurorack/rings/dsp/fx/fx_engine.h ****     Clear();
 2783              		.loc 9 108 13 view .LVU614
 2784 000c 114C     		ldr	r4, .L33+8
 2785              	.LBE1267:
 2786              	.LBE1266:
 2787              	.LBE1265:
 2788              	.LBE1264:
 2789              		.loc 12 98 21 view .LVU615
 2790 000e FFF7FEFF 		bl	_ZN5daisy8patch_sm12DaisyPatchSM10StartAudioEPFvPKPKfPPfjE
 2791              	.LVL130:
  99:Reverb.cpp    ****     clouds_reverb.Init(reverb_buffer);
 2792              		.loc 12 99 5 is_stmt 1 view .LVU616
 2793              	.LBB1331:
 2794              	.LBI1264:
  43:./eurorack/rings/dsp/fx/reverb.h ****     engine_.Init(buffer);
 2795              		.loc 8 43 8 view .LVU617
 2796              	.LBB1330:
  44:./eurorack/rings/dsp/fx/reverb.h ****     engine_.SetLFOFrequency(LFO_1, 0.5f / 48000.0f);
 2797              		.loc 8 44 5 view .LVU618
 2798              	.LBB1287:
 2799              	.LBI1266:
 107:./eurorack/rings/dsp/fx/fx_engine.h ****     buffer_ = buffer;
 2800              		.loc 9 107 8 view .LVU619
 2801              	.LBB1284:
 108:./eurorack/rings/dsp/fx/fx_engine.h ****     Clear();
 2802              		.loc 9 108 13 is_stmt 0 view .LVU620
 2803 0012 1148     		ldr	r0, .L33+12
 2804              	.LBB1268:
 2805              	.LBB1269:
 2806              	.LBB1270:
 2807              	.LBB1271:
 2808              	.LBB1272:
 2809              	.LBB1273:
 2810              		.file 13 "c:\\users\\pedro\\desktop\\dev\\daisytools\\windows\\arm-none-eabi\\include\\c++\\10.2.1
   1:c:\users\pedro\desktop\dev\daisytools\windows\arm-none-eabi\include\c++\10.2.1\bits\stl_algobase.h **** // Core algorithmic facilities -*- C++ -*-
   2:c:\users\pedro\desktop\dev\daisytools\windows\arm-none-eabi\include\c++\10.2.1\bits\stl_algobase.h **** 
   3:c:\users\pedro\desktop\dev\daisytools\windows\arm-none-eabi\include\c++\10.2.1\bits\stl_algobase.h **** // Copyright (C) 2001-2020 Free Software Foundation, Inc.
   4:c:\users\pedro\desktop\dev\daisytools\windows\arm-none-eabi\include\c++\10.2.1\bits\stl_algobase.h **** //
   5:c:\users\pedro\desktop\dev\daisytools\windows\arm-none-eabi\include\c++\10.2.1\bits\stl_algobase.h **** // This file is part of the GNU ISO C++ Library.  This library is free
   6:c:\users\pedro\desktop\dev\daisytools\windows\arm-none-eabi\include\c++\10.2.1\bits\stl_algobase.h **** // software; you can redistribute it and/or modify it under the
   7:c:\users\pedro\desktop\dev\daisytools\windows\arm-none-eabi\include\c++\10.2.1\bits\stl_algobase.h **** // terms of the GNU General Public License as published by the
ARM GAS  C:\Users\pedro\AppData\Local\Temp\ccs9bf6f.s 			page 79


   8:c:\users\pedro\desktop\dev\daisytools\windows\arm-none-eabi\include\c++\10.2.1\bits\stl_algobase.h **** // Free Software Foundation; either version 3, or (at your option)
   9:c:\users\pedro\desktop\dev\daisytools\windows\arm-none-eabi\include\c++\10.2.1\bits\stl_algobase.h **** // any later version.
  10:c:\users\pedro\desktop\dev\daisytools\windows\arm-none-eabi\include\c++\10.2.1\bits\stl_algobase.h **** 
  11:c:\users\pedro\desktop\dev\daisytools\windows\arm-none-eabi\include\c++\10.2.1\bits\stl_algobase.h **** // This library is distributed in the hope that it will be useful,
  12:c:\users\pedro\desktop\dev\daisytools\windows\arm-none-eabi\include\c++\10.2.1\bits\stl_algobase.h **** // but WITHOUT ANY WARRANTY; without even the implied warranty of
  13:c:\users\pedro\desktop\dev\daisytools\windows\arm-none-eabi\include\c++\10.2.1\bits\stl_algobase.h **** // MERCHANTABILITY or FITNESS FOR A PARTICULAR PURPOSE.  See the
  14:c:\users\pedro\desktop\dev\daisytools\windows\arm-none-eabi\include\c++\10.2.1\bits\stl_algobase.h **** // GNU General Public License for more details.
  15:c:\users\pedro\desktop\dev\daisytools\windows\arm-none-eabi\include\c++\10.2.1\bits\stl_algobase.h **** 
  16:c:\users\pedro\desktop\dev\daisytools\windows\arm-none-eabi\include\c++\10.2.1\bits\stl_algobase.h **** // Under Section 7 of GPL version 3, you are granted additional
  17:c:\users\pedro\desktop\dev\daisytools\windows\arm-none-eabi\include\c++\10.2.1\bits\stl_algobase.h **** // permissions described in the GCC Runtime Library Exception, version
  18:c:\users\pedro\desktop\dev\daisytools\windows\arm-none-eabi\include\c++\10.2.1\bits\stl_algobase.h **** // 3.1, as published by the Free Software Foundation.
  19:c:\users\pedro\desktop\dev\daisytools\windows\arm-none-eabi\include\c++\10.2.1\bits\stl_algobase.h **** 
  20:c:\users\pedro\desktop\dev\daisytools\windows\arm-none-eabi\include\c++\10.2.1\bits\stl_algobase.h **** // You should have received a copy of the GNU General Public License and
  21:c:\users\pedro\desktop\dev\daisytools\windows\arm-none-eabi\include\c++\10.2.1\bits\stl_algobase.h **** // a copy of the GCC Runtime Library Exception along with this program;
  22:c:\users\pedro\desktop\dev\daisytools\windows\arm-none-eabi\include\c++\10.2.1\bits\stl_algobase.h **** // see the files COPYING3 and COPYING.RUNTIME respectively.  If not, see
  23:c:\users\pedro\desktop\dev\daisytools\windows\arm-none-eabi\include\c++\10.2.1\bits\stl_algobase.h **** // <http://www.gnu.org/licenses/>.
  24:c:\users\pedro\desktop\dev\daisytools\windows\arm-none-eabi\include\c++\10.2.1\bits\stl_algobase.h **** 
  25:c:\users\pedro\desktop\dev\daisytools\windows\arm-none-eabi\include\c++\10.2.1\bits\stl_algobase.h **** /*
  26:c:\users\pedro\desktop\dev\daisytools\windows\arm-none-eabi\include\c++\10.2.1\bits\stl_algobase.h ****  *
  27:c:\users\pedro\desktop\dev\daisytools\windows\arm-none-eabi\include\c++\10.2.1\bits\stl_algobase.h ****  * Copyright (c) 1994
  28:c:\users\pedro\desktop\dev\daisytools\windows\arm-none-eabi\include\c++\10.2.1\bits\stl_algobase.h ****  * Hewlett-Packard Company
  29:c:\users\pedro\desktop\dev\daisytools\windows\arm-none-eabi\include\c++\10.2.1\bits\stl_algobase.h ****  *
  30:c:\users\pedro\desktop\dev\daisytools\windows\arm-none-eabi\include\c++\10.2.1\bits\stl_algobase.h ****  * Permission to use, copy, modify, distribute and sell this software
  31:c:\users\pedro\desktop\dev\daisytools\windows\arm-none-eabi\include\c++\10.2.1\bits\stl_algobase.h ****  * and its documentation for any purpose is hereby granted without fee,
  32:c:\users\pedro\desktop\dev\daisytools\windows\arm-none-eabi\include\c++\10.2.1\bits\stl_algobase.h ****  * provided that the above copyright notice appear in all copies and
  33:c:\users\pedro\desktop\dev\daisytools\windows\arm-none-eabi\include\c++\10.2.1\bits\stl_algobase.h ****  * that both that copyright notice and this permission notice appear
  34:c:\users\pedro\desktop\dev\daisytools\windows\arm-none-eabi\include\c++\10.2.1\bits\stl_algobase.h ****  * in supporting documentation.  Hewlett-Packard Company makes no
  35:c:\users\pedro\desktop\dev\daisytools\windows\arm-none-eabi\include\c++\10.2.1\bits\stl_algobase.h ****  * representations about the suitability of this software for any
  36:c:\users\pedro\desktop\dev\daisytools\windows\arm-none-eabi\include\c++\10.2.1\bits\stl_algobase.h ****  * purpose.  It is provided "as is" without express or implied warranty.
  37:c:\users\pedro\desktop\dev\daisytools\windows\arm-none-eabi\include\c++\10.2.1\bits\stl_algobase.h ****  *
  38:c:\users\pedro\desktop\dev\daisytools\windows\arm-none-eabi\include\c++\10.2.1\bits\stl_algobase.h ****  *
  39:c:\users\pedro\desktop\dev\daisytools\windows\arm-none-eabi\include\c++\10.2.1\bits\stl_algobase.h ****  * Copyright (c) 1996-1998
  40:c:\users\pedro\desktop\dev\daisytools\windows\arm-none-eabi\include\c++\10.2.1\bits\stl_algobase.h ****  * Silicon Graphics Computer Systems, Inc.
  41:c:\users\pedro\desktop\dev\daisytools\windows\arm-none-eabi\include\c++\10.2.1\bits\stl_algobase.h ****  *
  42:c:\users\pedro\desktop\dev\daisytools\windows\arm-none-eabi\include\c++\10.2.1\bits\stl_algobase.h ****  * Permission to use, copy, modify, distribute and sell this software
  43:c:\users\pedro\desktop\dev\daisytools\windows\arm-none-eabi\include\c++\10.2.1\bits\stl_algobase.h ****  * and its documentation for any purpose is hereby granted without fee,
  44:c:\users\pedro\desktop\dev\daisytools\windows\arm-none-eabi\include\c++\10.2.1\bits\stl_algobase.h ****  * provided that the above copyright notice appear in all copies and
  45:c:\users\pedro\desktop\dev\daisytools\windows\arm-none-eabi\include\c++\10.2.1\bits\stl_algobase.h ****  * that both that copyright notice and this permission notice appear
  46:c:\users\pedro\desktop\dev\daisytools\windows\arm-none-eabi\include\c++\10.2.1\bits\stl_algobase.h ****  * in supporting documentation.  Silicon Graphics makes no
  47:c:\users\pedro\desktop\dev\daisytools\windows\arm-none-eabi\include\c++\10.2.1\bits\stl_algobase.h ****  * representations about the suitability of this software for any
  48:c:\users\pedro\desktop\dev\daisytools\windows\arm-none-eabi\include\c++\10.2.1\bits\stl_algobase.h ****  * purpose.  It is provided "as is" without express or implied warranty.
  49:c:\users\pedro\desktop\dev\daisytools\windows\arm-none-eabi\include\c++\10.2.1\bits\stl_algobase.h ****  */
  50:c:\users\pedro\desktop\dev\daisytools\windows\arm-none-eabi\include\c++\10.2.1\bits\stl_algobase.h **** 
  51:c:\users\pedro\desktop\dev\daisytools\windows\arm-none-eabi\include\c++\10.2.1\bits\stl_algobase.h **** /** @file bits/stl_algobase.h
  52:c:\users\pedro\desktop\dev\daisytools\windows\arm-none-eabi\include\c++\10.2.1\bits\stl_algobase.h ****  *  This is an internal header file, included by other library headers.
  53:c:\users\pedro\desktop\dev\daisytools\windows\arm-none-eabi\include\c++\10.2.1\bits\stl_algobase.h ****  *  Do not attempt to use it directly. @headername{algorithm}
  54:c:\users\pedro\desktop\dev\daisytools\windows\arm-none-eabi\include\c++\10.2.1\bits\stl_algobase.h ****  */
  55:c:\users\pedro\desktop\dev\daisytools\windows\arm-none-eabi\include\c++\10.2.1\bits\stl_algobase.h **** 
  56:c:\users\pedro\desktop\dev\daisytools\windows\arm-none-eabi\include\c++\10.2.1\bits\stl_algobase.h **** #ifndef _STL_ALGOBASE_H
  57:c:\users\pedro\desktop\dev\daisytools\windows\arm-none-eabi\include\c++\10.2.1\bits\stl_algobase.h **** #define _STL_ALGOBASE_H 1
  58:c:\users\pedro\desktop\dev\daisytools\windows\arm-none-eabi\include\c++\10.2.1\bits\stl_algobase.h **** 
  59:c:\users\pedro\desktop\dev\daisytools\windows\arm-none-eabi\include\c++\10.2.1\bits\stl_algobase.h **** #include <bits/c++config.h>
  60:c:\users\pedro\desktop\dev\daisytools\windows\arm-none-eabi\include\c++\10.2.1\bits\stl_algobase.h **** #include <bits/functexcept.h>
  61:c:\users\pedro\desktop\dev\daisytools\windows\arm-none-eabi\include\c++\10.2.1\bits\stl_algobase.h **** #include <bits/cpp_type_traits.h>
  62:c:\users\pedro\desktop\dev\daisytools\windows\arm-none-eabi\include\c++\10.2.1\bits\stl_algobase.h **** #include <ext/type_traits.h>
  63:c:\users\pedro\desktop\dev\daisytools\windows\arm-none-eabi\include\c++\10.2.1\bits\stl_algobase.h **** #include <ext/numeric_traits.h>
  64:c:\users\pedro\desktop\dev\daisytools\windows\arm-none-eabi\include\c++\10.2.1\bits\stl_algobase.h **** #include <bits/stl_pair.h>
ARM GAS  C:\Users\pedro\AppData\Local\Temp\ccs9bf6f.s 			page 80


  65:c:\users\pedro\desktop\dev\daisytools\windows\arm-none-eabi\include\c++\10.2.1\bits\stl_algobase.h **** #include <bits/stl_iterator_base_types.h>
  66:c:\users\pedro\desktop\dev\daisytools\windows\arm-none-eabi\include\c++\10.2.1\bits\stl_algobase.h **** #include <bits/stl_iterator_base_funcs.h>
  67:c:\users\pedro\desktop\dev\daisytools\windows\arm-none-eabi\include\c++\10.2.1\bits\stl_algobase.h **** #include <bits/stl_iterator.h>
  68:c:\users\pedro\desktop\dev\daisytools\windows\arm-none-eabi\include\c++\10.2.1\bits\stl_algobase.h **** #include <bits/concept_check.h>
  69:c:\users\pedro\desktop\dev\daisytools\windows\arm-none-eabi\include\c++\10.2.1\bits\stl_algobase.h **** #include <debug/debug.h>
  70:c:\users\pedro\desktop\dev\daisytools\windows\arm-none-eabi\include\c++\10.2.1\bits\stl_algobase.h **** #include <bits/move.h> // For std::swap
  71:c:\users\pedro\desktop\dev\daisytools\windows\arm-none-eabi\include\c++\10.2.1\bits\stl_algobase.h **** #include <bits/predefined_ops.h>
  72:c:\users\pedro\desktop\dev\daisytools\windows\arm-none-eabi\include\c++\10.2.1\bits\stl_algobase.h **** #if __cplusplus >= 201103L
  73:c:\users\pedro\desktop\dev\daisytools\windows\arm-none-eabi\include\c++\10.2.1\bits\stl_algobase.h **** # include <type_traits>
  74:c:\users\pedro\desktop\dev\daisytools\windows\arm-none-eabi\include\c++\10.2.1\bits\stl_algobase.h **** #endif
  75:c:\users\pedro\desktop\dev\daisytools\windows\arm-none-eabi\include\c++\10.2.1\bits\stl_algobase.h **** #if __cplusplus > 201703L
  76:c:\users\pedro\desktop\dev\daisytools\windows\arm-none-eabi\include\c++\10.2.1\bits\stl_algobase.h **** # include <compare>
  77:c:\users\pedro\desktop\dev\daisytools\windows\arm-none-eabi\include\c++\10.2.1\bits\stl_algobase.h **** #endif
  78:c:\users\pedro\desktop\dev\daisytools\windows\arm-none-eabi\include\c++\10.2.1\bits\stl_algobase.h **** 
  79:c:\users\pedro\desktop\dev\daisytools\windows\arm-none-eabi\include\c++\10.2.1\bits\stl_algobase.h **** namespace std _GLIBCXX_VISIBILITY(default)
  80:c:\users\pedro\desktop\dev\daisytools\windows\arm-none-eabi\include\c++\10.2.1\bits\stl_algobase.h **** {
  81:c:\users\pedro\desktop\dev\daisytools\windows\arm-none-eabi\include\c++\10.2.1\bits\stl_algobase.h **** _GLIBCXX_BEGIN_NAMESPACE_VERSION
  82:c:\users\pedro\desktop\dev\daisytools\windows\arm-none-eabi\include\c++\10.2.1\bits\stl_algobase.h **** 
  83:c:\users\pedro\desktop\dev\daisytools\windows\arm-none-eabi\include\c++\10.2.1\bits\stl_algobase.h ****   /*
  84:c:\users\pedro\desktop\dev\daisytools\windows\arm-none-eabi\include\c++\10.2.1\bits\stl_algobase.h ****    * A constexpr wrapper for __builtin_memcmp.
  85:c:\users\pedro\desktop\dev\daisytools\windows\arm-none-eabi\include\c++\10.2.1\bits\stl_algobase.h ****    * @param __num The number of elements of type _Tp (not bytes).
  86:c:\users\pedro\desktop\dev\daisytools\windows\arm-none-eabi\include\c++\10.2.1\bits\stl_algobase.h ****    */
  87:c:\users\pedro\desktop\dev\daisytools\windows\arm-none-eabi\include\c++\10.2.1\bits\stl_algobase.h ****   template<typename _Tp, typename _Up>
  88:c:\users\pedro\desktop\dev\daisytools\windows\arm-none-eabi\include\c++\10.2.1\bits\stl_algobase.h ****     _GLIBCXX14_CONSTEXPR
  89:c:\users\pedro\desktop\dev\daisytools\windows\arm-none-eabi\include\c++\10.2.1\bits\stl_algobase.h ****     inline int
  90:c:\users\pedro\desktop\dev\daisytools\windows\arm-none-eabi\include\c++\10.2.1\bits\stl_algobase.h ****     __memcmp(const _Tp* __first1, const _Up* __first2, size_t __num)
  91:c:\users\pedro\desktop\dev\daisytools\windows\arm-none-eabi\include\c++\10.2.1\bits\stl_algobase.h ****     {
  92:c:\users\pedro\desktop\dev\daisytools\windows\arm-none-eabi\include\c++\10.2.1\bits\stl_algobase.h **** #if __cplusplus >= 201103L
  93:c:\users\pedro\desktop\dev\daisytools\windows\arm-none-eabi\include\c++\10.2.1\bits\stl_algobase.h ****       static_assert(sizeof(_Tp) == sizeof(_Up), "can be compared with memcmp");
  94:c:\users\pedro\desktop\dev\daisytools\windows\arm-none-eabi\include\c++\10.2.1\bits\stl_algobase.h **** #endif
  95:c:\users\pedro\desktop\dev\daisytools\windows\arm-none-eabi\include\c++\10.2.1\bits\stl_algobase.h **** #ifdef __cpp_lib_is_constant_evaluated
  96:c:\users\pedro\desktop\dev\daisytools\windows\arm-none-eabi\include\c++\10.2.1\bits\stl_algobase.h ****       if (std::is_constant_evaluated())
  97:c:\users\pedro\desktop\dev\daisytools\windows\arm-none-eabi\include\c++\10.2.1\bits\stl_algobase.h **** 	{
  98:c:\users\pedro\desktop\dev\daisytools\windows\arm-none-eabi\include\c++\10.2.1\bits\stl_algobase.h **** 	  for(; __num > 0; ++__first1, ++__first2, --__num)
  99:c:\users\pedro\desktop\dev\daisytools\windows\arm-none-eabi\include\c++\10.2.1\bits\stl_algobase.h **** 	    if (*__first1 != *__first2)
 100:c:\users\pedro\desktop\dev\daisytools\windows\arm-none-eabi\include\c++\10.2.1\bits\stl_algobase.h **** 	      return *__first1 < *__first2 ? -1 : 1;
 101:c:\users\pedro\desktop\dev\daisytools\windows\arm-none-eabi\include\c++\10.2.1\bits\stl_algobase.h **** 	  return 0;
 102:c:\users\pedro\desktop\dev\daisytools\windows\arm-none-eabi\include\c++\10.2.1\bits\stl_algobase.h **** 	}
 103:c:\users\pedro\desktop\dev\daisytools\windows\arm-none-eabi\include\c++\10.2.1\bits\stl_algobase.h ****       else
 104:c:\users\pedro\desktop\dev\daisytools\windows\arm-none-eabi\include\c++\10.2.1\bits\stl_algobase.h **** #endif
 105:c:\users\pedro\desktop\dev\daisytools\windows\arm-none-eabi\include\c++\10.2.1\bits\stl_algobase.h **** 	return __builtin_memcmp(__first1, __first2, sizeof(_Tp) * __num);
 106:c:\users\pedro\desktop\dev\daisytools\windows\arm-none-eabi\include\c++\10.2.1\bits\stl_algobase.h ****     }
 107:c:\users\pedro\desktop\dev\daisytools\windows\arm-none-eabi\include\c++\10.2.1\bits\stl_algobase.h **** 
 108:c:\users\pedro\desktop\dev\daisytools\windows\arm-none-eabi\include\c++\10.2.1\bits\stl_algobase.h **** #if __cplusplus < 201103L
 109:c:\users\pedro\desktop\dev\daisytools\windows\arm-none-eabi\include\c++\10.2.1\bits\stl_algobase.h ****   // See http://gcc.gnu.org/ml/libstdc++/2004-08/msg00167.html: in a
 110:c:\users\pedro\desktop\dev\daisytools\windows\arm-none-eabi\include\c++\10.2.1\bits\stl_algobase.h ****   // nutshell, we are partially implementing the resolution of DR 187,
 111:c:\users\pedro\desktop\dev\daisytools\windows\arm-none-eabi\include\c++\10.2.1\bits\stl_algobase.h ****   // when it's safe, i.e., the value_types are equal.
 112:c:\users\pedro\desktop\dev\daisytools\windows\arm-none-eabi\include\c++\10.2.1\bits\stl_algobase.h ****   template<bool _BoolType>
 113:c:\users\pedro\desktop\dev\daisytools\windows\arm-none-eabi\include\c++\10.2.1\bits\stl_algobase.h ****     struct __iter_swap
 114:c:\users\pedro\desktop\dev\daisytools\windows\arm-none-eabi\include\c++\10.2.1\bits\stl_algobase.h ****     {
 115:c:\users\pedro\desktop\dev\daisytools\windows\arm-none-eabi\include\c++\10.2.1\bits\stl_algobase.h ****       template<typename _ForwardIterator1, typename _ForwardIterator2>
 116:c:\users\pedro\desktop\dev\daisytools\windows\arm-none-eabi\include\c++\10.2.1\bits\stl_algobase.h **** 	static void
 117:c:\users\pedro\desktop\dev\daisytools\windows\arm-none-eabi\include\c++\10.2.1\bits\stl_algobase.h **** 	iter_swap(_ForwardIterator1 __a, _ForwardIterator2 __b)
 118:c:\users\pedro\desktop\dev\daisytools\windows\arm-none-eabi\include\c++\10.2.1\bits\stl_algobase.h **** 	{
 119:c:\users\pedro\desktop\dev\daisytools\windows\arm-none-eabi\include\c++\10.2.1\bits\stl_algobase.h **** 	  typedef typename iterator_traits<_ForwardIterator1>::value_type
 120:c:\users\pedro\desktop\dev\daisytools\windows\arm-none-eabi\include\c++\10.2.1\bits\stl_algobase.h **** 	    _ValueType1;
 121:c:\users\pedro\desktop\dev\daisytools\windows\arm-none-eabi\include\c++\10.2.1\bits\stl_algobase.h **** 	  _ValueType1 __tmp = *__a;
ARM GAS  C:\Users\pedro\AppData\Local\Temp\ccs9bf6f.s 			page 81


 122:c:\users\pedro\desktop\dev\daisytools\windows\arm-none-eabi\include\c++\10.2.1\bits\stl_algobase.h **** 	  *__a = *__b;
 123:c:\users\pedro\desktop\dev\daisytools\windows\arm-none-eabi\include\c++\10.2.1\bits\stl_algobase.h **** 	  *__b = __tmp;
 124:c:\users\pedro\desktop\dev\daisytools\windows\arm-none-eabi\include\c++\10.2.1\bits\stl_algobase.h **** 	}
 125:c:\users\pedro\desktop\dev\daisytools\windows\arm-none-eabi\include\c++\10.2.1\bits\stl_algobase.h ****     };
 126:c:\users\pedro\desktop\dev\daisytools\windows\arm-none-eabi\include\c++\10.2.1\bits\stl_algobase.h **** 
 127:c:\users\pedro\desktop\dev\daisytools\windows\arm-none-eabi\include\c++\10.2.1\bits\stl_algobase.h ****   template<>
 128:c:\users\pedro\desktop\dev\daisytools\windows\arm-none-eabi\include\c++\10.2.1\bits\stl_algobase.h ****     struct __iter_swap<true>
 129:c:\users\pedro\desktop\dev\daisytools\windows\arm-none-eabi\include\c++\10.2.1\bits\stl_algobase.h ****     {
 130:c:\users\pedro\desktop\dev\daisytools\windows\arm-none-eabi\include\c++\10.2.1\bits\stl_algobase.h ****       template<typename _ForwardIterator1, typename _ForwardIterator2>
 131:c:\users\pedro\desktop\dev\daisytools\windows\arm-none-eabi\include\c++\10.2.1\bits\stl_algobase.h **** 	static void
 132:c:\users\pedro\desktop\dev\daisytools\windows\arm-none-eabi\include\c++\10.2.1\bits\stl_algobase.h **** 	iter_swap(_ForwardIterator1 __a, _ForwardIterator2 __b)
 133:c:\users\pedro\desktop\dev\daisytools\windows\arm-none-eabi\include\c++\10.2.1\bits\stl_algobase.h **** 	{
 134:c:\users\pedro\desktop\dev\daisytools\windows\arm-none-eabi\include\c++\10.2.1\bits\stl_algobase.h **** 	  swap(*__a, *__b);
 135:c:\users\pedro\desktop\dev\daisytools\windows\arm-none-eabi\include\c++\10.2.1\bits\stl_algobase.h **** 	}
 136:c:\users\pedro\desktop\dev\daisytools\windows\arm-none-eabi\include\c++\10.2.1\bits\stl_algobase.h ****     };
 137:c:\users\pedro\desktop\dev\daisytools\windows\arm-none-eabi\include\c++\10.2.1\bits\stl_algobase.h **** #endif // C++03
 138:c:\users\pedro\desktop\dev\daisytools\windows\arm-none-eabi\include\c++\10.2.1\bits\stl_algobase.h **** 
 139:c:\users\pedro\desktop\dev\daisytools\windows\arm-none-eabi\include\c++\10.2.1\bits\stl_algobase.h ****   /**
 140:c:\users\pedro\desktop\dev\daisytools\windows\arm-none-eabi\include\c++\10.2.1\bits\stl_algobase.h ****    *  @brief Swaps the contents of two iterators.
 141:c:\users\pedro\desktop\dev\daisytools\windows\arm-none-eabi\include\c++\10.2.1\bits\stl_algobase.h ****    *  @ingroup mutating_algorithms
 142:c:\users\pedro\desktop\dev\daisytools\windows\arm-none-eabi\include\c++\10.2.1\bits\stl_algobase.h ****    *  @param  __a  An iterator.
 143:c:\users\pedro\desktop\dev\daisytools\windows\arm-none-eabi\include\c++\10.2.1\bits\stl_algobase.h ****    *  @param  __b  Another iterator.
 144:c:\users\pedro\desktop\dev\daisytools\windows\arm-none-eabi\include\c++\10.2.1\bits\stl_algobase.h ****    *  @return   Nothing.
 145:c:\users\pedro\desktop\dev\daisytools\windows\arm-none-eabi\include\c++\10.2.1\bits\stl_algobase.h ****    *
 146:c:\users\pedro\desktop\dev\daisytools\windows\arm-none-eabi\include\c++\10.2.1\bits\stl_algobase.h ****    *  This function swaps the values pointed to by two iterators, not the
 147:c:\users\pedro\desktop\dev\daisytools\windows\arm-none-eabi\include\c++\10.2.1\bits\stl_algobase.h ****    *  iterators themselves.
 148:c:\users\pedro\desktop\dev\daisytools\windows\arm-none-eabi\include\c++\10.2.1\bits\stl_algobase.h ****   */
 149:c:\users\pedro\desktop\dev\daisytools\windows\arm-none-eabi\include\c++\10.2.1\bits\stl_algobase.h ****   template<typename _ForwardIterator1, typename _ForwardIterator2>
 150:c:\users\pedro\desktop\dev\daisytools\windows\arm-none-eabi\include\c++\10.2.1\bits\stl_algobase.h ****     _GLIBCXX20_CONSTEXPR
 151:c:\users\pedro\desktop\dev\daisytools\windows\arm-none-eabi\include\c++\10.2.1\bits\stl_algobase.h ****     inline void
 152:c:\users\pedro\desktop\dev\daisytools\windows\arm-none-eabi\include\c++\10.2.1\bits\stl_algobase.h ****     iter_swap(_ForwardIterator1 __a, _ForwardIterator2 __b)
 153:c:\users\pedro\desktop\dev\daisytools\windows\arm-none-eabi\include\c++\10.2.1\bits\stl_algobase.h ****     {
 154:c:\users\pedro\desktop\dev\daisytools\windows\arm-none-eabi\include\c++\10.2.1\bits\stl_algobase.h ****       // concept requirements
 155:c:\users\pedro\desktop\dev\daisytools\windows\arm-none-eabi\include\c++\10.2.1\bits\stl_algobase.h ****       __glibcxx_function_requires(_Mutable_ForwardIteratorConcept<
 156:c:\users\pedro\desktop\dev\daisytools\windows\arm-none-eabi\include\c++\10.2.1\bits\stl_algobase.h **** 				  _ForwardIterator1>)
 157:c:\users\pedro\desktop\dev\daisytools\windows\arm-none-eabi\include\c++\10.2.1\bits\stl_algobase.h ****       __glibcxx_function_requires(_Mutable_ForwardIteratorConcept<
 158:c:\users\pedro\desktop\dev\daisytools\windows\arm-none-eabi\include\c++\10.2.1\bits\stl_algobase.h **** 				  _ForwardIterator2>)
 159:c:\users\pedro\desktop\dev\daisytools\windows\arm-none-eabi\include\c++\10.2.1\bits\stl_algobase.h **** 
 160:c:\users\pedro\desktop\dev\daisytools\windows\arm-none-eabi\include\c++\10.2.1\bits\stl_algobase.h **** #if __cplusplus < 201103L
 161:c:\users\pedro\desktop\dev\daisytools\windows\arm-none-eabi\include\c++\10.2.1\bits\stl_algobase.h ****       typedef typename iterator_traits<_ForwardIterator1>::value_type
 162:c:\users\pedro\desktop\dev\daisytools\windows\arm-none-eabi\include\c++\10.2.1\bits\stl_algobase.h **** 	_ValueType1;
 163:c:\users\pedro\desktop\dev\daisytools\windows\arm-none-eabi\include\c++\10.2.1\bits\stl_algobase.h ****       typedef typename iterator_traits<_ForwardIterator2>::value_type
 164:c:\users\pedro\desktop\dev\daisytools\windows\arm-none-eabi\include\c++\10.2.1\bits\stl_algobase.h **** 	_ValueType2;
 165:c:\users\pedro\desktop\dev\daisytools\windows\arm-none-eabi\include\c++\10.2.1\bits\stl_algobase.h **** 
 166:c:\users\pedro\desktop\dev\daisytools\windows\arm-none-eabi\include\c++\10.2.1\bits\stl_algobase.h ****       __glibcxx_function_requires(_ConvertibleConcept<_ValueType1,
 167:c:\users\pedro\desktop\dev\daisytools\windows\arm-none-eabi\include\c++\10.2.1\bits\stl_algobase.h **** 				  _ValueType2>)
 168:c:\users\pedro\desktop\dev\daisytools\windows\arm-none-eabi\include\c++\10.2.1\bits\stl_algobase.h ****       __glibcxx_function_requires(_ConvertibleConcept<_ValueType2,
 169:c:\users\pedro\desktop\dev\daisytools\windows\arm-none-eabi\include\c++\10.2.1\bits\stl_algobase.h **** 				  _ValueType1>)
 170:c:\users\pedro\desktop\dev\daisytools\windows\arm-none-eabi\include\c++\10.2.1\bits\stl_algobase.h **** 
 171:c:\users\pedro\desktop\dev\daisytools\windows\arm-none-eabi\include\c++\10.2.1\bits\stl_algobase.h ****       typedef typename iterator_traits<_ForwardIterator1>::reference
 172:c:\users\pedro\desktop\dev\daisytools\windows\arm-none-eabi\include\c++\10.2.1\bits\stl_algobase.h **** 	_ReferenceType1;
 173:c:\users\pedro\desktop\dev\daisytools\windows\arm-none-eabi\include\c++\10.2.1\bits\stl_algobase.h ****       typedef typename iterator_traits<_ForwardIterator2>::reference
 174:c:\users\pedro\desktop\dev\daisytools\windows\arm-none-eabi\include\c++\10.2.1\bits\stl_algobase.h **** 	_ReferenceType2;
 175:c:\users\pedro\desktop\dev\daisytools\windows\arm-none-eabi\include\c++\10.2.1\bits\stl_algobase.h ****       std::__iter_swap<__are_same<_ValueType1, _ValueType2>::__value
 176:c:\users\pedro\desktop\dev\daisytools\windows\arm-none-eabi\include\c++\10.2.1\bits\stl_algobase.h **** 	&& __are_same<_ValueType1&, _ReferenceType1>::__value
 177:c:\users\pedro\desktop\dev\daisytools\windows\arm-none-eabi\include\c++\10.2.1\bits\stl_algobase.h **** 	&& __are_same<_ValueType2&, _ReferenceType2>::__value>::
 178:c:\users\pedro\desktop\dev\daisytools\windows\arm-none-eabi\include\c++\10.2.1\bits\stl_algobase.h **** 	iter_swap(__a, __b);
ARM GAS  C:\Users\pedro\AppData\Local\Temp\ccs9bf6f.s 			page 82


 179:c:\users\pedro\desktop\dev\daisytools\windows\arm-none-eabi\include\c++\10.2.1\bits\stl_algobase.h **** #else
 180:c:\users\pedro\desktop\dev\daisytools\windows\arm-none-eabi\include\c++\10.2.1\bits\stl_algobase.h ****       // _GLIBCXX_RESOLVE_LIB_DEFECTS
 181:c:\users\pedro\desktop\dev\daisytools\windows\arm-none-eabi\include\c++\10.2.1\bits\stl_algobase.h ****       // 187. iter_swap underspecified
 182:c:\users\pedro\desktop\dev\daisytools\windows\arm-none-eabi\include\c++\10.2.1\bits\stl_algobase.h ****       swap(*__a, *__b);
 183:c:\users\pedro\desktop\dev\daisytools\windows\arm-none-eabi\include\c++\10.2.1\bits\stl_algobase.h **** #endif
 184:c:\users\pedro\desktop\dev\daisytools\windows\arm-none-eabi\include\c++\10.2.1\bits\stl_algobase.h ****     }
 185:c:\users\pedro\desktop\dev\daisytools\windows\arm-none-eabi\include\c++\10.2.1\bits\stl_algobase.h **** 
 186:c:\users\pedro\desktop\dev\daisytools\windows\arm-none-eabi\include\c++\10.2.1\bits\stl_algobase.h ****   /**
 187:c:\users\pedro\desktop\dev\daisytools\windows\arm-none-eabi\include\c++\10.2.1\bits\stl_algobase.h ****    *  @brief Swap the elements of two sequences.
 188:c:\users\pedro\desktop\dev\daisytools\windows\arm-none-eabi\include\c++\10.2.1\bits\stl_algobase.h ****    *  @ingroup mutating_algorithms
 189:c:\users\pedro\desktop\dev\daisytools\windows\arm-none-eabi\include\c++\10.2.1\bits\stl_algobase.h ****    *  @param  __first1  A forward iterator.
 190:c:\users\pedro\desktop\dev\daisytools\windows\arm-none-eabi\include\c++\10.2.1\bits\stl_algobase.h ****    *  @param  __last1   A forward iterator.
 191:c:\users\pedro\desktop\dev\daisytools\windows\arm-none-eabi\include\c++\10.2.1\bits\stl_algobase.h ****    *  @param  __first2  A forward iterator.
 192:c:\users\pedro\desktop\dev\daisytools\windows\arm-none-eabi\include\c++\10.2.1\bits\stl_algobase.h ****    *  @return   An iterator equal to @p first2+(last1-first1).
 193:c:\users\pedro\desktop\dev\daisytools\windows\arm-none-eabi\include\c++\10.2.1\bits\stl_algobase.h ****    *
 194:c:\users\pedro\desktop\dev\daisytools\windows\arm-none-eabi\include\c++\10.2.1\bits\stl_algobase.h ****    *  Swaps each element in the range @p [first1,last1) with the
 195:c:\users\pedro\desktop\dev\daisytools\windows\arm-none-eabi\include\c++\10.2.1\bits\stl_algobase.h ****    *  corresponding element in the range @p [first2,(last1-first1)).
 196:c:\users\pedro\desktop\dev\daisytools\windows\arm-none-eabi\include\c++\10.2.1\bits\stl_algobase.h ****    *  The ranges must not overlap.
 197:c:\users\pedro\desktop\dev\daisytools\windows\arm-none-eabi\include\c++\10.2.1\bits\stl_algobase.h ****   */
 198:c:\users\pedro\desktop\dev\daisytools\windows\arm-none-eabi\include\c++\10.2.1\bits\stl_algobase.h ****   template<typename _ForwardIterator1, typename _ForwardIterator2>
 199:c:\users\pedro\desktop\dev\daisytools\windows\arm-none-eabi\include\c++\10.2.1\bits\stl_algobase.h ****     _GLIBCXX20_CONSTEXPR
 200:c:\users\pedro\desktop\dev\daisytools\windows\arm-none-eabi\include\c++\10.2.1\bits\stl_algobase.h ****     _ForwardIterator2
 201:c:\users\pedro\desktop\dev\daisytools\windows\arm-none-eabi\include\c++\10.2.1\bits\stl_algobase.h ****     swap_ranges(_ForwardIterator1 __first1, _ForwardIterator1 __last1,
 202:c:\users\pedro\desktop\dev\daisytools\windows\arm-none-eabi\include\c++\10.2.1\bits\stl_algobase.h **** 		_ForwardIterator2 __first2)
 203:c:\users\pedro\desktop\dev\daisytools\windows\arm-none-eabi\include\c++\10.2.1\bits\stl_algobase.h ****     {
 204:c:\users\pedro\desktop\dev\daisytools\windows\arm-none-eabi\include\c++\10.2.1\bits\stl_algobase.h ****       // concept requirements
 205:c:\users\pedro\desktop\dev\daisytools\windows\arm-none-eabi\include\c++\10.2.1\bits\stl_algobase.h ****       __glibcxx_function_requires(_Mutable_ForwardIteratorConcept<
 206:c:\users\pedro\desktop\dev\daisytools\windows\arm-none-eabi\include\c++\10.2.1\bits\stl_algobase.h **** 				  _ForwardIterator1>)
 207:c:\users\pedro\desktop\dev\daisytools\windows\arm-none-eabi\include\c++\10.2.1\bits\stl_algobase.h ****       __glibcxx_function_requires(_Mutable_ForwardIteratorConcept<
 208:c:\users\pedro\desktop\dev\daisytools\windows\arm-none-eabi\include\c++\10.2.1\bits\stl_algobase.h **** 				  _ForwardIterator2>)
 209:c:\users\pedro\desktop\dev\daisytools\windows\arm-none-eabi\include\c++\10.2.1\bits\stl_algobase.h ****       __glibcxx_requires_valid_range(__first1, __last1);
 210:c:\users\pedro\desktop\dev\daisytools\windows\arm-none-eabi\include\c++\10.2.1\bits\stl_algobase.h **** 
 211:c:\users\pedro\desktop\dev\daisytools\windows\arm-none-eabi\include\c++\10.2.1\bits\stl_algobase.h ****       for (; __first1 != __last1; ++__first1, (void)++__first2)
 212:c:\users\pedro\desktop\dev\daisytools\windows\arm-none-eabi\include\c++\10.2.1\bits\stl_algobase.h **** 	std::iter_swap(__first1, __first2);
 213:c:\users\pedro\desktop\dev\daisytools\windows\arm-none-eabi\include\c++\10.2.1\bits\stl_algobase.h ****       return __first2;
 214:c:\users\pedro\desktop\dev\daisytools\windows\arm-none-eabi\include\c++\10.2.1\bits\stl_algobase.h ****     }
 215:c:\users\pedro\desktop\dev\daisytools\windows\arm-none-eabi\include\c++\10.2.1\bits\stl_algobase.h **** 
 216:c:\users\pedro\desktop\dev\daisytools\windows\arm-none-eabi\include\c++\10.2.1\bits\stl_algobase.h ****   /**
 217:c:\users\pedro\desktop\dev\daisytools\windows\arm-none-eabi\include\c++\10.2.1\bits\stl_algobase.h ****    *  @brief This does what you think it does.
 218:c:\users\pedro\desktop\dev\daisytools\windows\arm-none-eabi\include\c++\10.2.1\bits\stl_algobase.h ****    *  @ingroup sorting_algorithms
 219:c:\users\pedro\desktop\dev\daisytools\windows\arm-none-eabi\include\c++\10.2.1\bits\stl_algobase.h ****    *  @param  __a  A thing of arbitrary type.
 220:c:\users\pedro\desktop\dev\daisytools\windows\arm-none-eabi\include\c++\10.2.1\bits\stl_algobase.h ****    *  @param  __b  Another thing of arbitrary type.
 221:c:\users\pedro\desktop\dev\daisytools\windows\arm-none-eabi\include\c++\10.2.1\bits\stl_algobase.h ****    *  @return   The lesser of the parameters.
 222:c:\users\pedro\desktop\dev\daisytools\windows\arm-none-eabi\include\c++\10.2.1\bits\stl_algobase.h ****    *
