ARM GAS  C:\Users\pedro\AppData\Local\Temp\cce24yZj.s 			page 1


   1              		.cpu cortex-m7
   2              		.eabi_attribute 28, 1
   3              		.eabi_attribute 20, 1
   4              		.eabi_attribute 21, 1
   5              		.eabi_attribute 23, 3
   6              		.eabi_attribute 24, 1
   7              		.eabi_attribute 25, 1
   8              		.eabi_attribute 26, 1
   9              		.eabi_attribute 30, 2
  10              		.eabi_attribute 34, 1
  11              		.eabi_attribute 18, 4
  12              		.file	"Reverb.cpp"
  13              		.text
  14              	.Ltext0:
  15              		.cfi_sections	.debug_frame
  16              		.section	.text._ZN5daisy6SwitchD2Ev,"axG",%progbits,_ZN5daisy6SwitchD5Ev,comdat
  17              		.align	1
  18              		.p2align 2,,3
  19              		.weak	_ZN5daisy6SwitchD2Ev
  20              		.arch armv7e-m
  21              		.syntax unified
  22              		.thumb
  23              		.thumb_func
  24              		.fpu fpv5-d16
  26              	_ZN5daisy6SwitchD2Ev:
  27              	.LVL0:
  28              	.LFB1605:
  29              		.file 1 "libDaisy/src/hid/switch.h"
   1:libDaisy/src/hid/switch.h **** #pragma once
   2:libDaisy/src/hid/switch.h **** #ifndef DSY_SWITCH_H
   3:libDaisy/src/hid/switch.h **** #define DSY_SWITCH_H
   4:libDaisy/src/hid/switch.h **** #include "daisy_core.h"
   5:libDaisy/src/hid/switch.h **** #include "per/gpio.h"
   6:libDaisy/src/hid/switch.h **** #include "sys/system.h"
   7:libDaisy/src/hid/switch.h **** 
   8:libDaisy/src/hid/switch.h **** namespace daisy
   9:libDaisy/src/hid/switch.h **** {
  10:libDaisy/src/hid/switch.h **** /** 
  11:libDaisy/src/hid/switch.h ****     Generic Class for handling momentary/latching switches \n 
  12:libDaisy/src/hid/switch.h ****     Inspired/influenced by Mutable Instruments (pichenettes) Switch classes
  13:libDaisy/src/hid/switch.h ****     @author Stephen Hensley
  14:libDaisy/src/hid/switch.h ****     @date December 2019
  15:libDaisy/src/hid/switch.h ****     @ingroup controls
  16:libDaisy/src/hid/switch.h **** */
  17:libDaisy/src/hid/switch.h **** class Switch
  18:libDaisy/src/hid/switch.h **** {
  19:libDaisy/src/hid/switch.h ****   public:
  20:libDaisy/src/hid/switch.h ****     /** Specifies the expected behavior of the switch */
  21:libDaisy/src/hid/switch.h ****     enum Type
  22:libDaisy/src/hid/switch.h ****     {
  23:libDaisy/src/hid/switch.h ****         TYPE_TOGGLE,    /**< & */
  24:libDaisy/src/hid/switch.h ****         TYPE_MOMENTARY, /**< & */
  25:libDaisy/src/hid/switch.h ****     };
  26:libDaisy/src/hid/switch.h ****     /** Specifies whether the pressed is HIGH or LOW. */
  27:libDaisy/src/hid/switch.h ****     enum Polarity
  28:libDaisy/src/hid/switch.h ****     {
  29:libDaisy/src/hid/switch.h ****         POLARITY_NORMAL,   /**< & */
ARM GAS  C:\Users\pedro\AppData\Local\Temp\cce24yZj.s 			page 2


  30:libDaisy/src/hid/switch.h ****         POLARITY_INVERTED, /**< & */
  31:libDaisy/src/hid/switch.h ****     };
  32:libDaisy/src/hid/switch.h **** 
  33:libDaisy/src/hid/switch.h ****     /** Specifies whether to use built-in Pull Up/Down resistors to hold button at a given state wh
  34:libDaisy/src/hid/switch.h ****     enum Pull
  35:libDaisy/src/hid/switch.h ****     {
  36:libDaisy/src/hid/switch.h ****         PULL_UP,   /**< & */
  37:libDaisy/src/hid/switch.h ****         PULL_DOWN, /**< & */
  38:libDaisy/src/hid/switch.h ****         PULL_NONE, /**< & */
  39:libDaisy/src/hid/switch.h ****     };
  40:libDaisy/src/hid/switch.h **** 
  41:libDaisy/src/hid/switch.h ****     Switch() {}
  42:libDaisy/src/hid/switch.h ****     ~Switch() {}
  30              		.loc 1 42 5 view -0
  31              		.cfi_startproc
  32              		@ args = 0, pretend = 0, frame = 0
  33              		@ frame_needed = 0, uses_anonymous_args = 0
  34              		@ link register save eliminated.
  35              		.loc 1 42 16 is_stmt 0 view .LVU1
  36 0000 7047     		bx	lr
  37              		.cfi_endproc
  38              	.LFE1605:
  40              		.weak	_ZN5daisy6SwitchD1Ev
  41              		.thumb_set _ZN5daisy6SwitchD1Ev,_ZN5daisy6SwitchD2Ev
  42 0002 00BF     		.section	.text._ZN5daisy8patch_sm12DaisyPatchSMD2Ev,"axG",%progbits,_ZN5daisy8patch_sm12DaisyPatch
  43              		.align	1
  44              		.p2align 2,,3
  45              		.weak	_ZN5daisy8patch_sm12DaisyPatchSMD2Ev
  46              		.syntax unified
  47              		.thumb
  48              		.thumb_func
  49              		.fpu fpv5-d16
  51              	_ZN5daisy8patch_sm12DaisyPatchSMD2Ev:
  52              	.LVL1:
  53              	.LFB2528:
  54              		.file 2 "libDaisy/src/daisy_patch_sm.h"
   1:libDaisy/src/daisy_patch_sm.h **** #pragma once
   2:libDaisy/src/daisy_patch_sm.h **** 
   3:libDaisy/src/daisy_patch_sm.h **** #include "daisy.h"
   4:libDaisy/src/daisy_patch_sm.h **** 
   5:libDaisy/src/daisy_patch_sm.h **** namespace daisy
   6:libDaisy/src/daisy_patch_sm.h **** {
   7:libDaisy/src/daisy_patch_sm.h **** namespace patch_sm
   8:libDaisy/src/daisy_patch_sm.h **** {
   9:libDaisy/src/daisy_patch_sm.h ****     /** Accessors for the Analog Controls. 
  10:libDaisy/src/daisy_patch_sm.h ****      *  These cover the 8x Bipolar CV inputs
  11:libDaisy/src/daisy_patch_sm.h ****      *  as well as the 4x 0-3V3 ADC inputs on
  12:libDaisy/src/daisy_patch_sm.h ****      *  the hardware 
  13:libDaisy/src/daisy_patch_sm.h ****      * 
  14:libDaisy/src/daisy_patch_sm.h ****      *  When reading a value with DaisyPatchSM::GetAdcValue()
  15:libDaisy/src/daisy_patch_sm.h ****      * 
  16:libDaisy/src/daisy_patch_sm.h ****      *  patch.GetAdcValue(patch_sm::CV_1);
  17:libDaisy/src/daisy_patch_sm.h ****      */
  18:libDaisy/src/daisy_patch_sm.h ****     enum
  19:libDaisy/src/daisy_patch_sm.h ****     {
  20:libDaisy/src/daisy_patch_sm.h ****         CV_1 = 0,
  21:libDaisy/src/daisy_patch_sm.h ****         CV_2,
ARM GAS  C:\Users\pedro\AppData\Local\Temp\cce24yZj.s 			page 3


  22:libDaisy/src/daisy_patch_sm.h ****         CV_3,
  23:libDaisy/src/daisy_patch_sm.h ****         CV_4,
  24:libDaisy/src/daisy_patch_sm.h ****         CV_5,
  25:libDaisy/src/daisy_patch_sm.h ****         CV_6,
  26:libDaisy/src/daisy_patch_sm.h ****         CV_7,
  27:libDaisy/src/daisy_patch_sm.h ****         CV_8,
  28:libDaisy/src/daisy_patch_sm.h ****         ADC_9,
  29:libDaisy/src/daisy_patch_sm.h ****         ADC_10,
  30:libDaisy/src/daisy_patch_sm.h ****         ADC_11,
  31:libDaisy/src/daisy_patch_sm.h ****         ADC_12,
  32:libDaisy/src/daisy_patch_sm.h ****         ADC_LAST,
  33:libDaisy/src/daisy_patch_sm.h ****     };
  34:libDaisy/src/daisy_patch_sm.h **** 
  35:libDaisy/src/daisy_patch_sm.h ****     /** Enum for addressing the CV Outputs via the WriteCvOut function. */
  36:libDaisy/src/daisy_patch_sm.h ****     enum
  37:libDaisy/src/daisy_patch_sm.h ****     {
  38:libDaisy/src/daisy_patch_sm.h ****         CV_OUT_BOTH = 0,
  39:libDaisy/src/daisy_patch_sm.h ****         CV_OUT_1,
  40:libDaisy/src/daisy_patch_sm.h ****         CV_OUT_2,
  41:libDaisy/src/daisy_patch_sm.h ****     };
  42:libDaisy/src/daisy_patch_sm.h **** 
  43:libDaisy/src/daisy_patch_sm.h **** 
  44:libDaisy/src/daisy_patch_sm.h ****     /** @brief Board support file for DaisyPatchSM hardware
  45:libDaisy/src/daisy_patch_sm.h ****      *  @author shensley
  46:libDaisy/src/daisy_patch_sm.h ****      *  @ingroup boards
  47:libDaisy/src/daisy_patch_sm.h ****      * 
  48:libDaisy/src/daisy_patch_sm.h ****      *  Daisy Patch SM is a complete Eurorack module DSP engine.
  49:libDaisy/src/daisy_patch_sm.h ****      *  Based on the Daisy Seed, with circuits added for 
  50:libDaisy/src/daisy_patch_sm.h ****      *  interfacing directly with eurorack modular synthesizers.
  51:libDaisy/src/daisy_patch_sm.h ****      */
  52:libDaisy/src/daisy_patch_sm.h ****     class DaisyPatchSM
  53:libDaisy/src/daisy_patch_sm.h ****     {
  54:libDaisy/src/daisy_patch_sm.h ****       public:
  55:libDaisy/src/daisy_patch_sm.h ****         /** Helper for mapping pins, and accessing them using the `GetPin` function */
  56:libDaisy/src/daisy_patch_sm.h ****         enum class PinBank
  57:libDaisy/src/daisy_patch_sm.h ****         {
  58:libDaisy/src/daisy_patch_sm.h ****             A,
  59:libDaisy/src/daisy_patch_sm.h ****             B,
  60:libDaisy/src/daisy_patch_sm.h ****             C,
  61:libDaisy/src/daisy_patch_sm.h ****             D
  62:libDaisy/src/daisy_patch_sm.h ****         };
  63:libDaisy/src/daisy_patch_sm.h **** 
  64:libDaisy/src/daisy_patch_sm.h ****         DaisyPatchSM() {}
  65:libDaisy/src/daisy_patch_sm.h ****         ~DaisyPatchSM() {}
  55              		.loc 2 65 9 is_stmt 1 view -0
  56              		.cfi_startproc
  57              		@ args = 0, pretend = 0, frame = 0
  58              		@ frame_needed = 0, uses_anonymous_args = 0
  59              		@ link register save eliminated.
  60              	.LBB595:
  61              	.LBI595:
  62              		.file 3 "libDaisy/src/hid/gatein.h"
   1:libDaisy/src/hid/gatein.h **** #pragma once
   2:libDaisy/src/hid/gatein.h **** #ifndef DSY_GATEIN_H
   3:libDaisy/src/hid/gatein.h **** #define DSY_GATEIN_H
   4:libDaisy/src/hid/gatein.h **** #include "per/gpio.h"
   5:libDaisy/src/hid/gatein.h **** 
ARM GAS  C:\Users\pedro\AppData\Local\Temp\cce24yZj.s 			page 4


   6:libDaisy/src/hid/gatein.h **** namespace daisy
   7:libDaisy/src/hid/gatein.h **** {
   8:libDaisy/src/hid/gatein.h **** /**
   9:libDaisy/src/hid/gatein.h ****    @brief Generic Class for handling gate inputs through GPIO.
  10:libDaisy/src/hid/gatein.h ****    @author Stephen Hensley
  11:libDaisy/src/hid/gatein.h ****    @date    March 2020
  12:libDaisy/src/hid/gatein.h ****    @ingroup controls
  13:libDaisy/src/hid/gatein.h **** */
  14:libDaisy/src/hid/gatein.h **** class GateIn
  15:libDaisy/src/hid/gatein.h **** {
  16:libDaisy/src/hid/gatein.h ****   public:
  17:libDaisy/src/hid/gatein.h ****     /** GateIn 
  18:libDaisy/src/hid/gatein.h ****     Constructor 
  19:libDaisy/src/hid/gatein.h ****     */
  20:libDaisy/src/hid/gatein.h ****     GateIn() {}
  21:libDaisy/src/hid/gatein.h ****     /** GateIn~
  22:libDaisy/src/hid/gatein.h ****     Destructor 
  23:libDaisy/src/hid/gatein.h ****     */
  24:libDaisy/src/hid/gatein.h ****     ~GateIn() {}
  63              		.loc 3 24 5 view .LVU3
  64              		.loc 3 24 5 is_stmt 0 view .LVU4
  65              	.LBE595:
  66              	.LBB596:
  67              	.LBI596:
  68              		.loc 3 24 5 is_stmt 1 view .LVU5
  69              		.loc 3 24 5 is_stmt 0 view .LVU6
  70              	.LBE596:
  71              	.LBB597:
  72              	.LBI597:
  73              		.file 4 "libDaisy/src/dev/codec_pcm3060.h"
   1:libDaisy/src/dev/codec_pcm3060.h **** #pragma once
   2:libDaisy/src/dev/codec_pcm3060.h **** #ifndef DSY_CODEC_PCM3060_H
   3:libDaisy/src/dev/codec_pcm3060.h **** #define DSY_CODEC_PCM3060_H
   4:libDaisy/src/dev/codec_pcm3060.h **** #include "per/i2c.h"
   5:libDaisy/src/dev/codec_pcm3060.h **** namespace daisy
   6:libDaisy/src/dev/codec_pcm3060.h **** {
   7:libDaisy/src/dev/codec_pcm3060.h **** /**
   8:libDaisy/src/dev/codec_pcm3060.h ****  * @brief Driver for the TI PCM3060 Audio Codec.
   9:libDaisy/src/dev/codec_pcm3060.h ****  * @addtogroup codec
  10:libDaisy/src/dev/codec_pcm3060.h ****  * 
  11:libDaisy/src/dev/codec_pcm3060.h ****  * For now this is a limited interface that uses I2C to communicate with the PCM3060
  12:libDaisy/src/dev/codec_pcm3060.h ****  * The device can also be accessed with SPI, which is not yet supported.
  13:libDaisy/src/dev/codec_pcm3060.h ****  * 
  14:libDaisy/src/dev/codec_pcm3060.h ****  * For now all registers are set to their defaults, and the Init function will 
  15:libDaisy/src/dev/codec_pcm3060.h ****  * perform a MRST and SRST before setting the format to 24bit LJ, and disabling 
  16:libDaisy/src/dev/codec_pcm3060.h ****  * power save for both the ADC and DAC.
  17:libDaisy/src/dev/codec_pcm3060.h ****  *
  18:libDaisy/src/dev/codec_pcm3060.h ****  */
  19:libDaisy/src/dev/codec_pcm3060.h **** class Pcm3060
  20:libDaisy/src/dev/codec_pcm3060.h **** {
  21:libDaisy/src/dev/codec_pcm3060.h ****   public:
  22:libDaisy/src/dev/codec_pcm3060.h ****     enum class Result
  23:libDaisy/src/dev/codec_pcm3060.h ****     {
  24:libDaisy/src/dev/codec_pcm3060.h ****         OK,
  25:libDaisy/src/dev/codec_pcm3060.h ****         ERR,
  26:libDaisy/src/dev/codec_pcm3060.h ****     };
  27:libDaisy/src/dev/codec_pcm3060.h **** 
ARM GAS  C:\Users\pedro\AppData\Local\Temp\cce24yZj.s 			page 5


  28:libDaisy/src/dev/codec_pcm3060.h ****     Pcm3060() {}
  29:libDaisy/src/dev/codec_pcm3060.h ****     ~Pcm3060() {}
  74              		.loc 4 29 5 is_stmt 1 view .LVU7
  75              		.loc 4 29 5 is_stmt 0 view .LVU8
  76              	.LBE597:
  77              	.LBB598:
  78              	.LBI598:
  79              		.file 5 "libDaisy/src/hid/usb.h"
   1:libDaisy/src/hid/usb.h **** #pragma once
   2:libDaisy/src/hid/usb.h **** #ifndef DSY_HID_USB_H
   3:libDaisy/src/hid/usb.h **** #define DSY_HID_USB_H
   4:libDaisy/src/hid/usb.h **** #include <stdint.h>
   5:libDaisy/src/hid/usb.h **** #include <stdlib.h>
   6:libDaisy/src/hid/usb.h **** 
   7:libDaisy/src/hid/usb.h **** namespace daisy
   8:libDaisy/src/hid/usb.h **** /** @addtogroup human_interface
   9:libDaisy/src/hid/usb.h ****     @{
  10:libDaisy/src/hid/usb.h **** */
  11:libDaisy/src/hid/usb.h **** 
  12:libDaisy/src/hid/usb.h **** {
  13:libDaisy/src/hid/usb.h **** /** 
  14:libDaisy/src/hid/usb.h ****     @brief Interface for initializing and using the USB Peripherals on the daisy
  15:libDaisy/src/hid/usb.h ****     @author Stephen Hensley
  16:libDaisy/src/hid/usb.h ****     @date December 2019
  17:libDaisy/src/hid/usb.h **** */
  18:libDaisy/src/hid/usb.h **** class UsbHandle
  19:libDaisy/src/hid/usb.h **** {
  20:libDaisy/src/hid/usb.h ****   public:
  21:libDaisy/src/hid/usb.h ****     /** Return values for USBHandle Functions */
  22:libDaisy/src/hid/usb.h ****     enum class Result
  23:libDaisy/src/hid/usb.h ****     {
  24:libDaisy/src/hid/usb.h ****         OK,
  25:libDaisy/src/hid/usb.h ****         ERR,
  26:libDaisy/src/hid/usb.h ****     };
  27:libDaisy/src/hid/usb.h **** 
  28:libDaisy/src/hid/usb.h ****     /** Specified which of the two USB Peripherals to initialize. */
  29:libDaisy/src/hid/usb.h ****     enum UsbPeriph
  30:libDaisy/src/hid/usb.h ****     {
  31:libDaisy/src/hid/usb.h ****         FS_INTERNAL, /**< Internal pin */
  32:libDaisy/src/hid/usb.h ****         FS_EXTERNAL, /**< FS External D+ pin is Pin 38 (GPIO32). FS External D- pin is Pin 37 (GPIO
  33:libDaisy/src/hid/usb.h ****         FS_BOTH,     /**< Both */
  34:libDaisy/src/hid/usb.h ****     };
  35:libDaisy/src/hid/usb.h **** 
  36:libDaisy/src/hid/usb.h **** 
  37:libDaisy/src/hid/usb.h ****     /** Function called upon reception of a buffer */
  38:libDaisy/src/hid/usb.h ****     typedef void (*ReceiveCallback)(uint8_t* buff, uint32_t* len);
  39:libDaisy/src/hid/usb.h **** 
  40:libDaisy/src/hid/usb.h ****     UsbHandle() {}
  41:libDaisy/src/hid/usb.h **** 
  42:libDaisy/src/hid/usb.h ****     ~UsbHandle() {}
  80              		.loc 5 42 5 is_stmt 1 view .LVU9
  81              		.loc 5 42 5 is_stmt 0 view .LVU10
  82              	.LBE598:
  83              	.LBB599:
  84              	.LBI599:
  85              		.file 6 "libDaisy/src/per/adc.h"
   1:libDaisy/src/per/adc.h **** #pragma once
ARM GAS  C:\Users\pedro\AppData\Local\Temp\cce24yZj.s 			page 6


   2:libDaisy/src/per/adc.h **** #ifndef DSY_ADC_H
   3:libDaisy/src/per/adc.h **** #define DSY_ADC_H /**< Macro */
   4:libDaisy/src/per/adc.h **** #include <stdint.h>
   5:libDaisy/src/per/adc.h **** #include <stdlib.h>
   6:libDaisy/src/per/adc.h **** #include "daisy_core.h"
   7:libDaisy/src/per/adc.h **** #include "per/gpio.h"
   8:libDaisy/src/per/adc.h **** 
   9:libDaisy/src/per/adc.h **** #define DSY_ADC_MAX_CHANNELS 16 /**< Maximum number of ADC channels */
  10:libDaisy/src/per/adc.h **** 
  11:libDaisy/src/per/adc.h **** namespace daisy
  12:libDaisy/src/per/adc.h **** {
  13:libDaisy/src/per/adc.h **** /** @addtogroup per_analog
  14:libDaisy/src/per/adc.h ****     @{
  15:libDaisy/src/per/adc.h **** */
  16:libDaisy/src/per/adc.h **** 
  17:libDaisy/src/per/adc.h **** /* While there may not be many configuration options here,
  18:libDaisy/src/per/adc.h **** using a struct like this allows us to add more configuration
  19:libDaisy/src/per/adc.h **** later without breaking existing functionality.
  20:libDaisy/src/per/adc.h **** */
  21:libDaisy/src/per/adc.h **** 
  22:libDaisy/src/per/adc.h **** /** @brief   Configuration Structure for an ADC Channel 
  23:libDaisy/src/per/adc.h ****  *  @details This can be used to configure a a single input, 
  24:libDaisy/src/per/adc.h ****  *           or a multiplexed input, allowing up to 8 inputs on 
  25:libDaisy/src/per/adc.h ****  *           one channel.
  26:libDaisy/src/per/adc.h ****  *  @note    Sharing data lines to multiple muxes _is_ possible, but
  27:libDaisy/src/per/adc.h ****  *           each channel sharing data lines must be set to the maximum
  28:libDaisy/src/per/adc.h ****  *           number of channels, even if some multiplexers have fewer
  29:libDaisy/src/per/adc.h ****  *           inputs connected.
  30:libDaisy/src/per/adc.h **** */
  31:libDaisy/src/per/adc.h **** struct AdcChannelConfig
  32:libDaisy/src/per/adc.h **** {
  33:libDaisy/src/per/adc.h ****     /** Which pin to use for multiplexing */
  34:libDaisy/src/per/adc.h ****     enum MuxPin
  35:libDaisy/src/per/adc.h ****     {
  36:libDaisy/src/per/adc.h ****         MUX_SEL_0,    /**< & */
  37:libDaisy/src/per/adc.h ****         MUX_SEL_1,    /**< & */
  38:libDaisy/src/per/adc.h ****         MUX_SEL_2,    /**< & */
  39:libDaisy/src/per/adc.h ****         MUX_SEL_LAST, /**< & */
  40:libDaisy/src/per/adc.h ****     };
  41:libDaisy/src/per/adc.h **** 
  42:libDaisy/src/per/adc.h ****     /** Initializes a single ADC pin as an ADC. 
  43:libDaisy/src/per/adc.h ****     \param pin Pin to init.
  44:libDaisy/src/per/adc.h ****      */
  45:libDaisy/src/per/adc.h ****     void InitSingle(dsy_gpio_pin pin);
  46:libDaisy/src/per/adc.h **** 
  47:libDaisy/src/per/adc.h ****     /** 
  48:libDaisy/src/per/adc.h ****     Initializes a single ADC pin as a Multiplexed ADC.
  49:libDaisy/src/per/adc.h ****     Requires a CD405X Multiplexer connected to the pin.
  50:libDaisy/src/per/adc.h ****     You only need to supply the mux pins that are required,
  51:libDaisy/src/per/adc.h ****     e.g. a 4052 mux would only require mux_0 and mux_1.
  52:libDaisy/src/per/adc.h ****     Internal Callbacks handle the pin addressing.
  53:libDaisy/src/per/adc.h ****     \param mux_channels must be 1-8
  54:libDaisy/src/per/adc.h ****     \param mux_0 First mux pin
  55:libDaisy/src/per/adc.h ****     \param mux_1 Second mux pin
  56:libDaisy/src/per/adc.h ****     \param mux_2 Third mux pin
  57:libDaisy/src/per/adc.h ****     \param adc_pin &
  58:libDaisy/src/per/adc.h ****     */
ARM GAS  C:\Users\pedro\AppData\Local\Temp\cce24yZj.s 			page 7


  59:libDaisy/src/per/adc.h ****     void InitMux(dsy_gpio_pin adc_pin,
  60:libDaisy/src/per/adc.h ****                  size_t       mux_channels,
  61:libDaisy/src/per/adc.h ****                  dsy_gpio_pin mux_0,
  62:libDaisy/src/per/adc.h ****                  dsy_gpio_pin mux_1 = {DSY_GPIOX, 0},
  63:libDaisy/src/per/adc.h ****                  dsy_gpio_pin mux_2 = {DSY_GPIOX, 0});
  64:libDaisy/src/per/adc.h **** 
  65:libDaisy/src/per/adc.h ****     dsy_gpio pin_;                   /**< & */
  66:libDaisy/src/per/adc.h ****     dsy_gpio mux_pin_[MUX_SEL_LAST]; /**< & */
  67:libDaisy/src/per/adc.h ****     uint8_t  mux_channels_;          /**< & */
  68:libDaisy/src/per/adc.h **** };
  69:libDaisy/src/per/adc.h **** 
  70:libDaisy/src/per/adc.h **** /**
  71:libDaisy/src/per/adc.h ****    @brief Handler for analog to digital conversion
  72:libDaisy/src/per/adc.h **** */
  73:libDaisy/src/per/adc.h **** class AdcHandle
  74:libDaisy/src/per/adc.h **** {
  75:libDaisy/src/per/adc.h ****   public:
  76:libDaisy/src/per/adc.h ****     /** Supported oversampling amounts */
  77:libDaisy/src/per/adc.h ****     enum OverSampling
  78:libDaisy/src/per/adc.h ****     {
  79:libDaisy/src/per/adc.h ****         OVS_NONE, /**< & */
  80:libDaisy/src/per/adc.h ****         OVS_4,    /**< & */
  81:libDaisy/src/per/adc.h ****         OVS_8,    /**< & */
  82:libDaisy/src/per/adc.h ****         OVS_16,   /**< & */
  83:libDaisy/src/per/adc.h ****         OVS_32,   /**< & */
  84:libDaisy/src/per/adc.h ****         OVS_64,   /**< & */
  85:libDaisy/src/per/adc.h ****         OVS_128,  /**< & */
  86:libDaisy/src/per/adc.h ****         OVS_256,  /**< & */
  87:libDaisy/src/per/adc.h ****         OVS_512,  /**< & */
  88:libDaisy/src/per/adc.h ****         OVS_1024, /**< & */
  89:libDaisy/src/per/adc.h ****         OVS_LAST, /**< & */
  90:libDaisy/src/per/adc.h ****     };
  91:libDaisy/src/per/adc.h **** 
  92:libDaisy/src/per/adc.h ****     AdcHandle() {}
  93:libDaisy/src/per/adc.h ****     ~AdcHandle() {}
  86              		.loc 6 93 5 is_stmt 1 view .LVU11
  87              		.loc 6 93 5 is_stmt 0 view .LVU12
  88              	.LBE599:
  89              	.LBB600:
  90              	.LBI600:
  91              		.file 7 "libDaisy/src/hid/audio.h"
   1:libDaisy/src/hid/audio.h **** #ifndef DSY_AUDIO_H
   2:libDaisy/src/hid/audio.h **** #define DSY_AUDIO_H /**< & */
   3:libDaisy/src/hid/audio.h **** 
   4:libDaisy/src/hid/audio.h **** #include "per/sai.h"
   5:libDaisy/src/hid/audio.h **** 
   6:libDaisy/src/hid/audio.h **** namespace daisy
   7:libDaisy/src/hid/audio.h **** {
   8:libDaisy/src/hid/audio.h **** /** @brief Audio Engine Handle
   9:libDaisy/src/hid/audio.h ****  *  @ingroup audio 
  10:libDaisy/src/hid/audio.h ****  *  @details This class allows for higher level access to an audio engine.
  11:libDaisy/src/hid/audio.h ****  *           If you're using a SOM like the DaisySeed or DaisyPatchSM (or any 
  12:libDaisy/src/hid/audio.h ****  *            board that includes one of those objects) then the intialization
  13:libDaisy/src/hid/audio.h ****  *            is already taken  care of.
  14:libDaisy/src/hid/audio.h ****  *           If you're setting up your own custom hardware, or need to make changes
  15:libDaisy/src/hid/audio.h ****  *           you will have to take the following steps:
  16:libDaisy/src/hid/audio.h ****  *             1. Create and Initialize an SaiHandle or two depending on your requirements
ARM GAS  C:\Users\pedro\AppData\Local\Temp\cce24yZj.s 			page 8


  17:libDaisy/src/hid/audio.h ****  *             2. Initialize the Audio Handle with the desired settings and the Initialized SaiHand
  18:libDaisy/src/hid/audio.h ****  *             3. If the connected codec requires special configuration or initialization, do so
  19:libDaisy/src/hid/audio.h ****  *             4. Write a callback method using either the AudioCallback or the InterleavingAudioCa
  20:libDaisy/src/hid/audio.h ****  *             5. Start the Audio using one of the StartAudio function
  21:libDaisy/src/hid/audio.h ****  */
  22:libDaisy/src/hid/audio.h **** class AudioHandle
  23:libDaisy/src/hid/audio.h **** {
  24:libDaisy/src/hid/audio.h ****   public:
  25:libDaisy/src/hid/audio.h ****     /** Manually configurable details about the Audio Engine */
  26:libDaisy/src/hid/audio.h ****     /** TODO: Figure out how to get samplerate in here. */
  27:libDaisy/src/hid/audio.h ****     struct Config
  28:libDaisy/src/hid/audio.h ****     {
  29:libDaisy/src/hid/audio.h ****         /** number of samples to process per callback */
  30:libDaisy/src/hid/audio.h ****         size_t blocksize;
  31:libDaisy/src/hid/audio.h **** 
  32:libDaisy/src/hid/audio.h ****         /**< Sample rate of audio */
  33:libDaisy/src/hid/audio.h ****         SaiHandle::Config::SampleRate samplerate;
  34:libDaisy/src/hid/audio.h **** 
  35:libDaisy/src/hid/audio.h ****         /** factor for adjustment before and after callback for hardware that may have extra headro
  36:libDaisy/src/hid/audio.h ****         float postgain;
  37:libDaisy/src/hid/audio.h **** 
  38:libDaisy/src/hid/audio.h ****         /** factor for additional one-sided compensation to audio path for hardware that may
  39:libDaisy/src/hid/audio.h ****          *  have unequal input/output ranges
  40:libDaisy/src/hid/audio.h ****          */
  41:libDaisy/src/hid/audio.h ****         float output_compensation;
  42:libDaisy/src/hid/audio.h **** 
  43:libDaisy/src/hid/audio.h ****         /** Sets default values for config struct */
  44:libDaisy/src/hid/audio.h ****         Config()
  45:libDaisy/src/hid/audio.h ****         : blocksize(48),
  46:libDaisy/src/hid/audio.h ****           samplerate(SaiHandle::Config::SampleRate::SAI_48KHZ),
  47:libDaisy/src/hid/audio.h ****           postgain(1.f),
  48:libDaisy/src/hid/audio.h ****           output_compensation(1.f)
  49:libDaisy/src/hid/audio.h ****         {
  50:libDaisy/src/hid/audio.h ****         }
  51:libDaisy/src/hid/audio.h ****     };
  52:libDaisy/src/hid/audio.h **** 
  53:libDaisy/src/hid/audio.h ****     enum class Result
  54:libDaisy/src/hid/audio.h ****     {
  55:libDaisy/src/hid/audio.h ****         OK,
  56:libDaisy/src/hid/audio.h ****         ERR,
  57:libDaisy/src/hid/audio.h ****     };
  58:libDaisy/src/hid/audio.h **** 
  59:libDaisy/src/hid/audio.h ****     /** Non-Interleaving input buffer
  60:libDaisy/src/hid/audio.h ****      * Buffer arranged by float[chn][sample] 
  61:libDaisy/src/hid/audio.h ****      * const so that the user can't modify the input
  62:libDaisy/src/hid/audio.h ****      */
  63:libDaisy/src/hid/audio.h ****     typedef const float* const* InputBuffer;
  64:libDaisy/src/hid/audio.h **** 
  65:libDaisy/src/hid/audio.h ****     /** Non-Interleaving output buffer
  66:libDaisy/src/hid/audio.h ****      * Arranged by float[chn][sample] 
  67:libDaisy/src/hid/audio.h ****      */
  68:libDaisy/src/hid/audio.h ****     typedef float** OutputBuffer;
  69:libDaisy/src/hid/audio.h **** 
  70:libDaisy/src/hid/audio.h ****     /** Type for a Non-Interleaving audio callback 
  71:libDaisy/src/hid/audio.h ****      * Non-Interleaving audio callbacks in daisy will be of this type
  72:libDaisy/src/hid/audio.h ****      */
  73:libDaisy/src/hid/audio.h ****     typedef void (*AudioCallback)(InputBuffer  in,
ARM GAS  C:\Users\pedro\AppData\Local\Temp\cce24yZj.s 			page 9


  74:libDaisy/src/hid/audio.h ****                                   OutputBuffer out,
  75:libDaisy/src/hid/audio.h ****                                   size_t       size);
  76:libDaisy/src/hid/audio.h **** 
  77:libDaisy/src/hid/audio.h ****     /** Interleaving Input buffer
  78:libDaisy/src/hid/audio.h ****      ** audio is prepared as { L0, R0, L1, R1, . . . LN, RN }]
  79:libDaisy/src/hid/audio.h ****      ** this is const, as the user shouldn't modify it
  80:libDaisy/src/hid/audio.h ****     */
  81:libDaisy/src/hid/audio.h ****     typedef const float* InterleavingInputBuffer;
  82:libDaisy/src/hid/audio.h **** 
  83:libDaisy/src/hid/audio.h ****     /** Interleaving Output buffer 
  84:libDaisy/src/hid/audio.h ****      ** audio is prepared as { L0, R0, L1, R1, . . . LN, RN }
  85:libDaisy/src/hid/audio.h ****     */
  86:libDaisy/src/hid/audio.h ****     typedef float* InterleavingOutputBuffer;
  87:libDaisy/src/hid/audio.h **** 
  88:libDaisy/src/hid/audio.h ****     /** Interleaving Audio Callback 
  89:libDaisy/src/hid/audio.h ****      * Interleaving audio callbacks in daisy must be of this type
  90:libDaisy/src/hid/audio.h ****      */
  91:libDaisy/src/hid/audio.h ****     typedef void (*InterleavingAudioCallback)(InterleavingInputBuffer  in,
  92:libDaisy/src/hid/audio.h ****                                               InterleavingOutputBuffer out,
  93:libDaisy/src/hid/audio.h ****                                               size_t                   size);
  94:libDaisy/src/hid/audio.h **** 
  95:libDaisy/src/hid/audio.h ****     AudioHandle() : pimpl_(nullptr) {}
  96:libDaisy/src/hid/audio.h ****     ~AudioHandle() {}
  92              		.loc 7 96 5 is_stmt 1 view .LVU13
  93              		.loc 7 96 5 is_stmt 0 view .LVU14
  94              	.LBE600:
  95              	.LBB601:
  96              	.LBI601:
  97              		.file 8 "libDaisy/src/sys/system.h"
   1:libDaisy/src/sys/system.h **** #ifndef DSY_SYSTEM_H
   2:libDaisy/src/sys/system.h **** #define DSY_SYSTEM_H
   3:libDaisy/src/sys/system.h **** 
   4:libDaisy/src/sys/system.h **** #ifndef UNIT_TEST // for unit tests, a dummy implementation is provided below
   5:libDaisy/src/sys/system.h **** 
   6:libDaisy/src/sys/system.h **** #include <cstdint>
   7:libDaisy/src/sys/system.h **** #include "per/tim.h"
   8:libDaisy/src/sys/system.h **** 
   9:libDaisy/src/sys/system.h **** namespace daisy
  10:libDaisy/src/sys/system.h **** {
  11:libDaisy/src/sys/system.h **** /** A handle for interacting with the Core System. 
  12:libDaisy/src/sys/system.h ****  ** This includes the Clock tree, MPU, global DMA initialization,
  13:libDaisy/src/sys/system.h ****  ** cache handling, and any other necessary global initiailzation
  14:libDaisy/src/sys/system.h ****  **
  15:libDaisy/src/sys/system.h ****  ** @author shensley
  16:libDaisy/src/sys/system.h ****  ** @ingroup system
  17:libDaisy/src/sys/system.h ****  */
  18:libDaisy/src/sys/system.h **** class System
  19:libDaisy/src/sys/system.h **** {
  20:libDaisy/src/sys/system.h ****   public:
  21:libDaisy/src/sys/system.h ****     /** Contains settings for initializing the System */
  22:libDaisy/src/sys/system.h ****     struct Config
  23:libDaisy/src/sys/system.h ****     {
  24:libDaisy/src/sys/system.h ****         /** Specifies the system clock frequency that feeds APB/AHB clocks, etc. */
  25:libDaisy/src/sys/system.h ****         enum class SysClkFreq
  26:libDaisy/src/sys/system.h ****         {
  27:libDaisy/src/sys/system.h ****             FREQ_400MHZ,
  28:libDaisy/src/sys/system.h ****             FREQ_480MHZ,
ARM GAS  C:\Users\pedro\AppData\Local\Temp\cce24yZj.s 			page 10


  29:libDaisy/src/sys/system.h ****         };
  30:libDaisy/src/sys/system.h **** 
  31:libDaisy/src/sys/system.h ****         /** Method to call on the struct to set to defaults
  32:libDaisy/src/sys/system.h ****          ** CPU Freq set to 400MHz
  33:libDaisy/src/sys/system.h ****          ** Cache Enabled 
  34:libDaisy/src/sys/system.h ****          ** */
  35:libDaisy/src/sys/system.h ****         void Defaults()
  36:libDaisy/src/sys/system.h ****         {
  37:libDaisy/src/sys/system.h ****             cpu_freq    = SysClkFreq::FREQ_400MHZ;
  38:libDaisy/src/sys/system.h ****             use_dcache  = true;
  39:libDaisy/src/sys/system.h ****             use_icache  = true;
  40:libDaisy/src/sys/system.h ****             skip_clocks = false;
  41:libDaisy/src/sys/system.h ****         }
  42:libDaisy/src/sys/system.h **** 
  43:libDaisy/src/sys/system.h ****         /** Method to call on the struct to set to boost mode:
  44:libDaisy/src/sys/system.h ****          ** CPU Freq set to 480MHz
  45:libDaisy/src/sys/system.h ****          ** Cache Enabled 
  46:libDaisy/src/sys/system.h ****          ** */
  47:libDaisy/src/sys/system.h ****         void Boost()
  48:libDaisy/src/sys/system.h ****         {
  49:libDaisy/src/sys/system.h ****             cpu_freq    = SysClkFreq::FREQ_480MHZ;
  50:libDaisy/src/sys/system.h ****             use_dcache  = true;
  51:libDaisy/src/sys/system.h ****             use_icache  = true;
  52:libDaisy/src/sys/system.h ****             skip_clocks = false;
  53:libDaisy/src/sys/system.h ****         }
  54:libDaisy/src/sys/system.h **** 
  55:libDaisy/src/sys/system.h ****         SysClkFreq cpu_freq;
  56:libDaisy/src/sys/system.h ****         bool       use_dcache;
  57:libDaisy/src/sys/system.h ****         bool       use_icache;
  58:libDaisy/src/sys/system.h ****         bool       skip_clocks;
  59:libDaisy/src/sys/system.h ****     };
  60:libDaisy/src/sys/system.h **** 
  61:libDaisy/src/sys/system.h ****     /** Describes the different regions of memory available to the Daisy
  62:libDaisy/src/sys/system.h ****      * 
  63:libDaisy/src/sys/system.h ****      */
  64:libDaisy/src/sys/system.h ****     enum MemoryRegion
  65:libDaisy/src/sys/system.h ****     {
  66:libDaisy/src/sys/system.h ****         INTERNAL_FLASH = 0,
  67:libDaisy/src/sys/system.h ****         ITCMRAM,
  68:libDaisy/src/sys/system.h ****         DTCMRAM,
  69:libDaisy/src/sys/system.h ****         SRAM_D1,
  70:libDaisy/src/sys/system.h ****         SRAM_D2,
  71:libDaisy/src/sys/system.h ****         SRAM_D3,
  72:libDaisy/src/sys/system.h ****         SDRAM,
  73:libDaisy/src/sys/system.h ****         QSPI,
  74:libDaisy/src/sys/system.h ****         INVALID_ADDRESS,
  75:libDaisy/src/sys/system.h ****     };
  76:libDaisy/src/sys/system.h **** 
  77:libDaisy/src/sys/system.h ****     System() {}
  78:libDaisy/src/sys/system.h ****     ~System() {}
  98              		.loc 8 78 5 is_stmt 1 view .LVU15
  99              		.loc 8 78 5 is_stmt 0 view .LVU16
 100              	.LBE601:
 101              		.loc 2 65 26 view .LVU17
 102 0000 7047     		bx	lr
 103              		.cfi_endproc
 104              	.LFE2528:
ARM GAS  C:\Users\pedro\AppData\Local\Temp\cce24yZj.s 			page 11


 106              		.weak	_ZN5daisy8patch_sm12DaisyPatchSMD1Ev
 107              		.thumb_set _ZN5daisy8patch_sm12DaisyPatchSMD1Ev,_ZN5daisy8patch_sm12DaisyPatchSMD2Ev
 108 0002 00BF     		.section	.text._ZN6clouds7VoxVerbD2Ev,"axG",%progbits,_ZN6clouds7VoxVerbD5Ev,comdat
 109              		.align	1
 110              		.p2align 2,,3
 111              		.weak	_ZN6clouds7VoxVerbD2Ev
 112              		.syntax unified
 113              		.thumb
 114              		.thumb_func
 115              		.fpu fpv5-d16
 117              	_ZN6clouds7VoxVerbD2Ev:
 118              	.LVL2:
 119              	.LFB4838:
 120              		.file 9 "./mi-custom/clouds/dsp/fx/voxverb.h"
   1:./mi-custom/clouds/dsp/fx/voxverb.h **** // Copyright 2014 Emilie Gillet.
   2:./mi-custom/clouds/dsp/fx/voxverb.h **** //
   3:./mi-custom/clouds/dsp/fx/voxverb.h **** // Author: Emilie Gillet (emilie.o.gillet@gmail.com)
   4:./mi-custom/clouds/dsp/fx/voxverb.h **** //
   5:./mi-custom/clouds/dsp/fx/voxverb.h **** // Permission is hereby granted, free of charge, to any person obtaining a copy
   6:./mi-custom/clouds/dsp/fx/voxverb.h **** // of this software and associated documentation files (the "Software"), to deal
   7:./mi-custom/clouds/dsp/fx/voxverb.h **** // in the Software without restriction, including without limitation the rights
   8:./mi-custom/clouds/dsp/fx/voxverb.h **** // to use, copy, modify, merge, publish, distribute, sublicense, and/or sell
   9:./mi-custom/clouds/dsp/fx/voxverb.h **** // copies of the Software, and to permit persons to whom the Software is
  10:./mi-custom/clouds/dsp/fx/voxverb.h **** // furnished to do so, subject to the following conditions:
  11:./mi-custom/clouds/dsp/fx/voxverb.h **** // 
  12:./mi-custom/clouds/dsp/fx/voxverb.h **** // The above copyright notice and this permission notice shall be included in
  13:./mi-custom/clouds/dsp/fx/voxverb.h **** // all copies or substantial portions of the Software.
  14:./mi-custom/clouds/dsp/fx/voxverb.h **** // 
  15:./mi-custom/clouds/dsp/fx/voxverb.h **** // THE SOFTWARE IS PROVIDED "AS IS", WITHOUT WARRANTY OF ANY KIND, EXPRESS OR
  16:./mi-custom/clouds/dsp/fx/voxverb.h **** // IMPLIED, INCLUDING BUT NOT LIMITED TO THE WARRANTIES OF MERCHANTABILITY,
  17:./mi-custom/clouds/dsp/fx/voxverb.h **** // FITNESS FOR A PARTICULAR PURPOSE AND NONINFRINGEMENT. IN NO EVENT SHALL THE
  18:./mi-custom/clouds/dsp/fx/voxverb.h **** // AUTHORS OR COPYRIGHT HOLDERS BE LIABLE FOR ANY CLAIM, DAMAGES OR OTHER
  19:./mi-custom/clouds/dsp/fx/voxverb.h **** // LIABILITY, WHETHER IN AN ACTION OF CONTRACT, TORT OR OTHERWISE, ARISING FROM,
  20:./mi-custom/clouds/dsp/fx/voxverb.h **** // OUT OF OR IN CONNECTION WITH THE SOFTWARE OR THE USE OR OTHER DEALINGS IN
  21:./mi-custom/clouds/dsp/fx/voxverb.h **** // THE SOFTWARE.
  22:./mi-custom/clouds/dsp/fx/voxverb.h **** // 
  23:./mi-custom/clouds/dsp/fx/voxverb.h **** // See http://creativecommons.org/licenses/MIT/ for more information.
  24:./mi-custom/clouds/dsp/fx/voxverb.h **** //
  25:./mi-custom/clouds/dsp/fx/voxverb.h **** // -----------------------------------------------------------------------------
  26:./mi-custom/clouds/dsp/fx/voxverb.h **** //
  27:./mi-custom/clouds/dsp/fx/voxverb.h **** // Reverb.
  28:./mi-custom/clouds/dsp/fx/voxverb.h **** 
  29:./mi-custom/clouds/dsp/fx/voxverb.h **** #ifndef CLOUDS_DSP_FX_REVERB_H_
  30:./mi-custom/clouds/dsp/fx/voxverb.h **** #define CLOUDS_DSP_FX_REVERB_H_
  31:./mi-custom/clouds/dsp/fx/voxverb.h **** 
  32:./mi-custom/clouds/dsp/fx/voxverb.h **** #include "stmlib/stmlib.h"
  33:./mi-custom/clouds/dsp/fx/voxverb.h **** 
  34:./mi-custom/clouds/dsp/fx/voxverb.h **** #include "clouds/dsp/fx/fx_engine.h"
  35:./mi-custom/clouds/dsp/fx/voxverb.h **** 
  36:./mi-custom/clouds/dsp/fx/voxverb.h **** namespace clouds {
  37:./mi-custom/clouds/dsp/fx/voxverb.h **** 
  38:./mi-custom/clouds/dsp/fx/voxverb.h **** class VoxVerb {
  39:./mi-custom/clouds/dsp/fx/voxverb.h ****  public:
  40:./mi-custom/clouds/dsp/fx/voxverb.h ****   VoxVerb() { }
  41:./mi-custom/clouds/dsp/fx/voxverb.h ****   ~VoxVerb() { }
 121              		.loc 9 41 3 is_stmt 1 view -0
 122              		.cfi_startproc
ARM GAS  C:\Users\pedro\AppData\Local\Temp\cce24yZj.s 			page 12


 123              		@ args = 0, pretend = 0, frame = 0
 124              		@ frame_needed = 0, uses_anonymous_args = 0
 125              		@ link register save eliminated.
 126              	.LBB602:
 127              	.LBI602:
 128              		.file 10 "./mi-custom/clouds/dsp/fx/fx_engine.h"
   1:./mi-custom/clouds/dsp/fx/fx_engine.h **** // Copyright 2014 Emilie Gillet.
   2:./mi-custom/clouds/dsp/fx/fx_engine.h **** //
   3:./mi-custom/clouds/dsp/fx/fx_engine.h **** // Author: Emilie Gillet (emilie.o.gillet@gmail.com)
   4:./mi-custom/clouds/dsp/fx/fx_engine.h **** //
   5:./mi-custom/clouds/dsp/fx/fx_engine.h **** // Permission is hereby granted, free of charge, to any person obtaining a copy
   6:./mi-custom/clouds/dsp/fx/fx_engine.h **** // of this software and associated documentation files (the "Software"), to deal
   7:./mi-custom/clouds/dsp/fx/fx_engine.h **** // in the Software without restriction, including without limitation the rights
   8:./mi-custom/clouds/dsp/fx/fx_engine.h **** // to use, copy, modify, merge, publish, distribute, sublicense, and/or sell
   9:./mi-custom/clouds/dsp/fx/fx_engine.h **** // copies of the Software, and to permit persons to whom the Software is
  10:./mi-custom/clouds/dsp/fx/fx_engine.h **** // furnished to do so, subject to the following conditions:
  11:./mi-custom/clouds/dsp/fx/fx_engine.h **** // 
  12:./mi-custom/clouds/dsp/fx/fx_engine.h **** // The above copyright notice and this permission notice shall be included in
  13:./mi-custom/clouds/dsp/fx/fx_engine.h **** // all copies or substantial portions of the Software.
  14:./mi-custom/clouds/dsp/fx/fx_engine.h **** // 
  15:./mi-custom/clouds/dsp/fx/fx_engine.h **** // THE SOFTWARE IS PROVIDED "AS IS", WITHOUT WARRANTY OF ANY KIND, EXPRESS OR
  16:./mi-custom/clouds/dsp/fx/fx_engine.h **** // IMPLIED, INCLUDING BUT NOT LIMITED TO THE WARRANTIES OF MERCHANTABILITY,
  17:./mi-custom/clouds/dsp/fx/fx_engine.h **** // FITNESS FOR A PARTICULAR PURPOSE AND NONINFRINGEMENT. IN NO EVENT SHALL THE
  18:./mi-custom/clouds/dsp/fx/fx_engine.h **** // AUTHORS OR COPYRIGHT HOLDERS BE LIABLE FOR ANY CLAIM, DAMAGES OR OTHER
  19:./mi-custom/clouds/dsp/fx/fx_engine.h **** // LIABILITY, WHETHER IN AN ACTION OF CONTRACT, TORT OR OTHERWISE, ARISING FROM,
  20:./mi-custom/clouds/dsp/fx/fx_engine.h **** // OUT OF OR IN CONNECTION WITH THE SOFTWARE OR THE USE OR OTHER DEALINGS IN
  21:./mi-custom/clouds/dsp/fx/fx_engine.h **** // THE SOFTWARE.
  22:./mi-custom/clouds/dsp/fx/fx_engine.h **** // 
  23:./mi-custom/clouds/dsp/fx/fx_engine.h **** // See http://creativecommons.org/licenses/MIT/ for more information.
  24:./mi-custom/clouds/dsp/fx/fx_engine.h **** //
  25:./mi-custom/clouds/dsp/fx/fx_engine.h **** // -----------------------------------------------------------------------------
  26:./mi-custom/clouds/dsp/fx/fx_engine.h **** //
  27:./mi-custom/clouds/dsp/fx/fx_engine.h **** // Base class for building reverbs.
  28:./mi-custom/clouds/dsp/fx/fx_engine.h **** 
  29:./mi-custom/clouds/dsp/fx/fx_engine.h **** #ifndef CLOUDS_DSP_FX_FX_ENGINE_H_
  30:./mi-custom/clouds/dsp/fx/fx_engine.h **** #define CLOUDS_DSP_FX_FX_ENGINE_H_
  31:./mi-custom/clouds/dsp/fx/fx_engine.h **** 
  32:./mi-custom/clouds/dsp/fx/fx_engine.h **** #include <algorithm>
  33:./mi-custom/clouds/dsp/fx/fx_engine.h **** 
  34:./mi-custom/clouds/dsp/fx/fx_engine.h **** #include "stmlib/stmlib.h"
  35:./mi-custom/clouds/dsp/fx/fx_engine.h **** 
  36:./mi-custom/clouds/dsp/fx/fx_engine.h **** #include "stmlib/dsp/dsp.h"
  37:./mi-custom/clouds/dsp/fx/fx_engine.h **** #include "stmlib/dsp/cosine_oscillator.h"
  38:./mi-custom/clouds/dsp/fx/fx_engine.h **** 
  39:./mi-custom/clouds/dsp/fx/fx_engine.h **** namespace clouds {
  40:./mi-custom/clouds/dsp/fx/fx_engine.h **** 
  41:./mi-custom/clouds/dsp/fx/fx_engine.h **** #define TAIL , -1
  42:./mi-custom/clouds/dsp/fx/fx_engine.h **** 
  43:./mi-custom/clouds/dsp/fx/fx_engine.h **** enum Format {
  44:./mi-custom/clouds/dsp/fx/fx_engine.h ****   FORMAT_12_BIT,
  45:./mi-custom/clouds/dsp/fx/fx_engine.h ****   FORMAT_16_BIT,
  46:./mi-custom/clouds/dsp/fx/fx_engine.h ****   FORMAT_32_BIT
  47:./mi-custom/clouds/dsp/fx/fx_engine.h **** };
  48:./mi-custom/clouds/dsp/fx/fx_engine.h **** 
  49:./mi-custom/clouds/dsp/fx/fx_engine.h **** enum LFOIndex {
  50:./mi-custom/clouds/dsp/fx/fx_engine.h ****   LFO_1,
  51:./mi-custom/clouds/dsp/fx/fx_engine.h ****   LFO_2
ARM GAS  C:\Users\pedro\AppData\Local\Temp\cce24yZj.s 			page 13


  52:./mi-custom/clouds/dsp/fx/fx_engine.h **** };
  53:./mi-custom/clouds/dsp/fx/fx_engine.h **** 
  54:./mi-custom/clouds/dsp/fx/fx_engine.h **** template<Format format>
  55:./mi-custom/clouds/dsp/fx/fx_engine.h **** struct DataType { };
  56:./mi-custom/clouds/dsp/fx/fx_engine.h **** 
  57:./mi-custom/clouds/dsp/fx/fx_engine.h **** template<>
  58:./mi-custom/clouds/dsp/fx/fx_engine.h **** struct DataType<FORMAT_12_BIT> {
  59:./mi-custom/clouds/dsp/fx/fx_engine.h ****   typedef uint16_t T;
  60:./mi-custom/clouds/dsp/fx/fx_engine.h ****   
  61:./mi-custom/clouds/dsp/fx/fx_engine.h ****   static inline float Decompress(T value) {
  62:./mi-custom/clouds/dsp/fx/fx_engine.h ****     return static_cast<float>(static_cast<int16_t>(value)) / 4096.0f;
  63:./mi-custom/clouds/dsp/fx/fx_engine.h ****   }
  64:./mi-custom/clouds/dsp/fx/fx_engine.h ****   
  65:./mi-custom/clouds/dsp/fx/fx_engine.h ****   static inline T Compress(float value) {
  66:./mi-custom/clouds/dsp/fx/fx_engine.h ****     return static_cast<uint16_t>(
  67:./mi-custom/clouds/dsp/fx/fx_engine.h ****         stmlib::Clip16(static_cast<int32_t>(value * 4096.0f)));
  68:./mi-custom/clouds/dsp/fx/fx_engine.h ****   }
  69:./mi-custom/clouds/dsp/fx/fx_engine.h **** };
  70:./mi-custom/clouds/dsp/fx/fx_engine.h **** 
  71:./mi-custom/clouds/dsp/fx/fx_engine.h **** template<>
  72:./mi-custom/clouds/dsp/fx/fx_engine.h **** struct DataType<FORMAT_16_BIT> {
  73:./mi-custom/clouds/dsp/fx/fx_engine.h ****   typedef uint16_t T;
  74:./mi-custom/clouds/dsp/fx/fx_engine.h ****   
  75:./mi-custom/clouds/dsp/fx/fx_engine.h ****   static inline float Decompress(T value) {
  76:./mi-custom/clouds/dsp/fx/fx_engine.h ****     return static_cast<float>(static_cast<int16_t>(value)) / 32768.0f;
  77:./mi-custom/clouds/dsp/fx/fx_engine.h ****   }
  78:./mi-custom/clouds/dsp/fx/fx_engine.h ****   
  79:./mi-custom/clouds/dsp/fx/fx_engine.h ****   static inline T Compress(float value) {
  80:./mi-custom/clouds/dsp/fx/fx_engine.h ****     return static_cast<uint16_t>(
  81:./mi-custom/clouds/dsp/fx/fx_engine.h ****         stmlib::Clip16(static_cast<int32_t>(value * 32768.0f)));
  82:./mi-custom/clouds/dsp/fx/fx_engine.h ****   }
  83:./mi-custom/clouds/dsp/fx/fx_engine.h **** };
  84:./mi-custom/clouds/dsp/fx/fx_engine.h **** 
  85:./mi-custom/clouds/dsp/fx/fx_engine.h **** template<>
  86:./mi-custom/clouds/dsp/fx/fx_engine.h **** struct DataType<FORMAT_32_BIT> {
  87:./mi-custom/clouds/dsp/fx/fx_engine.h ****   typedef float T;
  88:./mi-custom/clouds/dsp/fx/fx_engine.h ****   
  89:./mi-custom/clouds/dsp/fx/fx_engine.h ****   static inline float Decompress(T value) {
  90:./mi-custom/clouds/dsp/fx/fx_engine.h ****     return value;;
  91:./mi-custom/clouds/dsp/fx/fx_engine.h ****   }
  92:./mi-custom/clouds/dsp/fx/fx_engine.h ****   
  93:./mi-custom/clouds/dsp/fx/fx_engine.h ****   static inline T Compress(float value) {
  94:./mi-custom/clouds/dsp/fx/fx_engine.h ****     return value;
  95:./mi-custom/clouds/dsp/fx/fx_engine.h ****   }
  96:./mi-custom/clouds/dsp/fx/fx_engine.h **** };
  97:./mi-custom/clouds/dsp/fx/fx_engine.h **** 
  98:./mi-custom/clouds/dsp/fx/fx_engine.h **** template<
  99:./mi-custom/clouds/dsp/fx/fx_engine.h ****     size_t size,
 100:./mi-custom/clouds/dsp/fx/fx_engine.h ****     Format format = FORMAT_12_BIT>
 101:./mi-custom/clouds/dsp/fx/fx_engine.h **** class FxEngine {
 102:./mi-custom/clouds/dsp/fx/fx_engine.h ****  public:
 103:./mi-custom/clouds/dsp/fx/fx_engine.h ****   typedef typename DataType<format>::T T;
 104:./mi-custom/clouds/dsp/fx/fx_engine.h ****   FxEngine() { }
 105:./mi-custom/clouds/dsp/fx/fx_engine.h ****   ~FxEngine() { }
 129              		.loc 10 105 3 view .LVU19
 130              		.loc 10 105 3 is_stmt 0 view .LVU20
 131              	.LBE602:
ARM GAS  C:\Users\pedro\AppData\Local\Temp\cce24yZj.s 			page 14


 132              		.loc 9 41 16 view .LVU21
 133 0000 7047     		bx	lr
 134              		.cfi_endproc
 135              	.LFE4838:
 137              		.weak	_ZN6clouds7VoxVerbD1Ev
 138              		.thumb_set _ZN6clouds7VoxVerbD1Ev,_ZN6clouds7VoxVerbD2Ev
 139 0002 00BF     		.section	.text._ZN5rings8FollowerD2Ev,"axG",%progbits,_ZN5rings8FollowerD5Ev,comdat
 140              		.align	1
 141              		.p2align 2,,3
 142              		.weak	_ZN5rings8FollowerD2Ev
 143              		.syntax unified
 144              		.thumb
 145              		.thumb_func
 146              		.fpu fpv5-d16
 148              	_ZN5rings8FollowerD2Ev:
 149              	.LVL3:
 150              	.LFB4934:
 151              		.file 11 "./mi-custom/rings/dsp/follower.h"
   1:./mi-custom/rings/dsp/follower.h **** // Copyright 2015 Emilie Gillet.
   2:./mi-custom/rings/dsp/follower.h **** //
   3:./mi-custom/rings/dsp/follower.h **** // Author: Emilie Gillet (emilie.o.gillet@gmail.com)
   4:./mi-custom/rings/dsp/follower.h **** //
   5:./mi-custom/rings/dsp/follower.h **** // Permission is hereby granted, free of charge, to any person obtaining a copy
   6:./mi-custom/rings/dsp/follower.h **** // of this software and associated documentation files (the "Software"), to deal
   7:./mi-custom/rings/dsp/follower.h **** // in the Software without restriction, including without limitation the rights
   8:./mi-custom/rings/dsp/follower.h **** // to use, copy, modify, merge, publish, distribute, sublicense, and/or sell
   9:./mi-custom/rings/dsp/follower.h **** // copies of the Software, and to permit persons to whom the Software is
  10:./mi-custom/rings/dsp/follower.h **** // furnished to do so, subject to the following conditions:
  11:./mi-custom/rings/dsp/follower.h **** // 
  12:./mi-custom/rings/dsp/follower.h **** // The above copyright notice and this permission notice shall be included in
  13:./mi-custom/rings/dsp/follower.h **** // all copies or substantial portions of the Software.
  14:./mi-custom/rings/dsp/follower.h **** // 
  15:./mi-custom/rings/dsp/follower.h **** // THE SOFTWARE IS PROVIDED "AS IS", WITHOUT WARRANTY OF ANY KIND, EXPRESS OR
  16:./mi-custom/rings/dsp/follower.h **** // IMPLIED, INCLUDING BUT NOT LIMITED TO THE WARRANTIES OF MERCHANTABILITY,
  17:./mi-custom/rings/dsp/follower.h **** // FITNESS FOR A PARTICULAR PURPOSE AND NONINFRINGEMENT. IN NO EVENT SHALL THE
  18:./mi-custom/rings/dsp/follower.h **** // AUTHORS OR COPYRIGHT HOLDERS BE LIABLE FOR ANY CLAIM, DAMAGES OR OTHER
  19:./mi-custom/rings/dsp/follower.h **** // LIABILITY, WHETHER IN AN ACTION OF CONTRACT, TORT OR OTHERWISE, ARISING FROM,
  20:./mi-custom/rings/dsp/follower.h **** // OUT OF OR IN CONNECTION WITH THE SOFTWARE OR THE USE OR OTHER DEALINGS IN
  21:./mi-custom/rings/dsp/follower.h **** // THE SOFTWARE.
  22:./mi-custom/rings/dsp/follower.h **** // 
  23:./mi-custom/rings/dsp/follower.h **** // See http://creativecommons.org/licenses/MIT/ for more information.
  24:./mi-custom/rings/dsp/follower.h **** //
  25:./mi-custom/rings/dsp/follower.h **** // -----------------------------------------------------------------------------
  26:./mi-custom/rings/dsp/follower.h **** //
  27:./mi-custom/rings/dsp/follower.h **** // Envelope / centroid follower for FM voice.
  28:./mi-custom/rings/dsp/follower.h **** 
  29:./mi-custom/rings/dsp/follower.h **** #ifndef RINGS_DSP_FOLLOWER_H_
  30:./mi-custom/rings/dsp/follower.h **** #define RINGS_DSP_FOLLOWER_H_
  31:./mi-custom/rings/dsp/follower.h **** 
  32:./mi-custom/rings/dsp/follower.h **** #include "stmlib/stmlib.h"
  33:./mi-custom/rings/dsp/follower.h **** 
  34:./mi-custom/rings/dsp/follower.h **** #include <algorithm>
  35:./mi-custom/rings/dsp/follower.h **** 
  36:./mi-custom/rings/dsp/follower.h **** #include "stmlib/dsp/dsp.h"
  37:./mi-custom/rings/dsp/follower.h **** #include "stmlib/dsp/filter.h"
  38:./mi-custom/rings/dsp/follower.h **** 
  39:./mi-custom/rings/dsp/follower.h **** namespace rings {
ARM GAS  C:\Users\pedro\AppData\Local\Temp\cce24yZj.s 			page 15


  40:./mi-custom/rings/dsp/follower.h **** 
  41:./mi-custom/rings/dsp/follower.h **** using namespace stmlib;
  42:./mi-custom/rings/dsp/follower.h **** 
  43:./mi-custom/rings/dsp/follower.h **** class Follower {
  44:./mi-custom/rings/dsp/follower.h ****  public:  
  45:./mi-custom/rings/dsp/follower.h ****   Follower() { }
  46:./mi-custom/rings/dsp/follower.h ****   ~Follower() { }
 152              		.loc 11 46 3 is_stmt 1 view -0
 153              		.cfi_startproc
 154              		@ args = 0, pretend = 0, frame = 0
 155              		@ frame_needed = 0, uses_anonymous_args = 0
 156              		@ link register save eliminated.
 157              	.LBB603:
 158              	.LBI603:
 159              		.file 12 "./mi-custom/stmlib/dsp/filter.h"
   1:./mi-custom/stmlib/dsp/filter.h **** // Copyright 2014 Emilie Gillet.
   2:./mi-custom/stmlib/dsp/filter.h **** //
   3:./mi-custom/stmlib/dsp/filter.h **** // Author: Emilie Gillet (emilie.o.gillet@gmail.com)
   4:./mi-custom/stmlib/dsp/filter.h **** //
   5:./mi-custom/stmlib/dsp/filter.h **** // Permission is hereby granted, free of charge, to any person obtaining a copy
   6:./mi-custom/stmlib/dsp/filter.h **** // of this software and associated documentation files (the "Software"), to deal
   7:./mi-custom/stmlib/dsp/filter.h **** // in the Software without restriction, including without limitation the rights
   8:./mi-custom/stmlib/dsp/filter.h **** // to use, copy, modify, merge, publish, distribute, sublicense, and/or sell
   9:./mi-custom/stmlib/dsp/filter.h **** // copies of the Software, and to permit persons to whom the Software is
  10:./mi-custom/stmlib/dsp/filter.h **** // furnished to do so, subject to the following conditions:
  11:./mi-custom/stmlib/dsp/filter.h **** // 
  12:./mi-custom/stmlib/dsp/filter.h **** // The above copyright notice and this permission notice shall be included in
  13:./mi-custom/stmlib/dsp/filter.h **** // all copies or substantial portions of the Software.
  14:./mi-custom/stmlib/dsp/filter.h **** // 
  15:./mi-custom/stmlib/dsp/filter.h **** // THE SOFTWARE IS PROVIDED "AS IS", WITHOUT WARRANTY OF ANY KIND, EXPRESS OR
  16:./mi-custom/stmlib/dsp/filter.h **** // IMPLIED, INCLUDING BUT NOT LIMITED TO THE WARRANTIES OF MERCHANTABILITY,
  17:./mi-custom/stmlib/dsp/filter.h **** // FITNESS FOR A PARTICULAR PURPOSE AND NONINFRINGEMENT. IN NO EVENT SHALL THE
  18:./mi-custom/stmlib/dsp/filter.h **** // AUTHORS OR COPYRIGHT HOLDERS BE LIABLE FOR ANY CLAIM, DAMAGES OR OTHER
  19:./mi-custom/stmlib/dsp/filter.h **** // LIABILITY, WHETHER IN AN ACTION OF CONTRACT, TORT OR OTHERWISE, ARISING FROM,
  20:./mi-custom/stmlib/dsp/filter.h **** // OUT OF OR IN CONNECTION WITH THE SOFTWARE OR THE USE OR OTHER DEALINGS IN
  21:./mi-custom/stmlib/dsp/filter.h **** // THE SOFTWARE.
  22:./mi-custom/stmlib/dsp/filter.h **** // 
  23:./mi-custom/stmlib/dsp/filter.h **** // See http://creativecommons.org/licenses/MIT/ for more information.
  24:./mi-custom/stmlib/dsp/filter.h **** //
  25:./mi-custom/stmlib/dsp/filter.h **** // -----------------------------------------------------------------------------
  26:./mi-custom/stmlib/dsp/filter.h **** //
  27:./mi-custom/stmlib/dsp/filter.h **** // Zero-delay-feedback filters (one pole and SVF).
  28:./mi-custom/stmlib/dsp/filter.h **** // Naive SVF.
  29:./mi-custom/stmlib/dsp/filter.h **** 
  30:./mi-custom/stmlib/dsp/filter.h **** #ifndef STMLIB_DSP_FILTER_H_
  31:./mi-custom/stmlib/dsp/filter.h **** #define STMLIB_DSP_FILTER_H_
  32:./mi-custom/stmlib/dsp/filter.h **** 
  33:./mi-custom/stmlib/dsp/filter.h **** #include "stmlib/stmlib.h"
  34:./mi-custom/stmlib/dsp/filter.h **** 
  35:./mi-custom/stmlib/dsp/filter.h **** #include <cmath>
  36:./mi-custom/stmlib/dsp/filter.h **** #include <algorithm>
  37:./mi-custom/stmlib/dsp/filter.h **** 
  38:./mi-custom/stmlib/dsp/filter.h **** namespace stmlib {
  39:./mi-custom/stmlib/dsp/filter.h **** 
  40:./mi-custom/stmlib/dsp/filter.h **** enum FilterMode {
  41:./mi-custom/stmlib/dsp/filter.h ****   FILTER_MODE_LOW_PASS,
  42:./mi-custom/stmlib/dsp/filter.h ****   FILTER_MODE_BAND_PASS,
ARM GAS  C:\Users\pedro\AppData\Local\Temp\cce24yZj.s 			page 16


  43:./mi-custom/stmlib/dsp/filter.h ****   FILTER_MODE_BAND_PASS_NORMALIZED,
  44:./mi-custom/stmlib/dsp/filter.h ****   FILTER_MODE_HIGH_PASS
  45:./mi-custom/stmlib/dsp/filter.h **** };
  46:./mi-custom/stmlib/dsp/filter.h **** 
  47:./mi-custom/stmlib/dsp/filter.h **** enum FrequencyApproximation {
  48:./mi-custom/stmlib/dsp/filter.h ****   FREQUENCY_EXACT,
  49:./mi-custom/stmlib/dsp/filter.h ****   FREQUENCY_ACCURATE,
  50:./mi-custom/stmlib/dsp/filter.h ****   FREQUENCY_FAST,
  51:./mi-custom/stmlib/dsp/filter.h ****   FREQUENCY_DIRTY
  52:./mi-custom/stmlib/dsp/filter.h **** };
  53:./mi-custom/stmlib/dsp/filter.h **** 
  54:./mi-custom/stmlib/dsp/filter.h **** #define M_PI_F float(M_PI)
  55:./mi-custom/stmlib/dsp/filter.h **** #define M_PI_POW_2 M_PI * M_PI
  56:./mi-custom/stmlib/dsp/filter.h **** #define M_PI_POW_3 M_PI_POW_2 * M_PI
  57:./mi-custom/stmlib/dsp/filter.h **** #define M_PI_POW_5 M_PI_POW_3 * M_PI_POW_2
  58:./mi-custom/stmlib/dsp/filter.h **** #define M_PI_POW_7 M_PI_POW_5 * M_PI_POW_2
  59:./mi-custom/stmlib/dsp/filter.h **** #define M_PI_POW_9 M_PI_POW_7 * M_PI_POW_2
  60:./mi-custom/stmlib/dsp/filter.h **** #define M_PI_POW_11 M_PI_POW_9 * M_PI_POW_2
  61:./mi-custom/stmlib/dsp/filter.h **** 
  62:./mi-custom/stmlib/dsp/filter.h **** class DCBlocker {
  63:./mi-custom/stmlib/dsp/filter.h ****  public:
  64:./mi-custom/stmlib/dsp/filter.h ****   DCBlocker() { }
  65:./mi-custom/stmlib/dsp/filter.h ****   ~DCBlocker() { }
  66:./mi-custom/stmlib/dsp/filter.h ****   
  67:./mi-custom/stmlib/dsp/filter.h ****   void Init(float pole) {
  68:./mi-custom/stmlib/dsp/filter.h ****     x_ = 0.0f;
  69:./mi-custom/stmlib/dsp/filter.h ****     y_ = 0.0f;
  70:./mi-custom/stmlib/dsp/filter.h ****     pole_ = pole;
  71:./mi-custom/stmlib/dsp/filter.h ****   }
  72:./mi-custom/stmlib/dsp/filter.h ****   
  73:./mi-custom/stmlib/dsp/filter.h ****   inline void Process(float* in_out, size_t size) {
  74:./mi-custom/stmlib/dsp/filter.h ****     float x = x_;
  75:./mi-custom/stmlib/dsp/filter.h ****     float y = y_;
  76:./mi-custom/stmlib/dsp/filter.h ****     const float pole = pole_;
  77:./mi-custom/stmlib/dsp/filter.h ****     while (size--) {
  78:./mi-custom/stmlib/dsp/filter.h ****       float old_x = x;
  79:./mi-custom/stmlib/dsp/filter.h ****       x = *in_out;
  80:./mi-custom/stmlib/dsp/filter.h ****       *in_out++ = y = y * pole + x - old_x;
  81:./mi-custom/stmlib/dsp/filter.h ****     }
  82:./mi-custom/stmlib/dsp/filter.h ****     x_ = x;
  83:./mi-custom/stmlib/dsp/filter.h ****     y_ = y;
  84:./mi-custom/stmlib/dsp/filter.h ****   }
  85:./mi-custom/stmlib/dsp/filter.h ****   
  86:./mi-custom/stmlib/dsp/filter.h ****  private:
  87:./mi-custom/stmlib/dsp/filter.h ****   float pole_;
  88:./mi-custom/stmlib/dsp/filter.h ****   float x_;
  89:./mi-custom/stmlib/dsp/filter.h ****   float y_;
  90:./mi-custom/stmlib/dsp/filter.h **** };
  91:./mi-custom/stmlib/dsp/filter.h **** 
  92:./mi-custom/stmlib/dsp/filter.h **** class OnePole {
  93:./mi-custom/stmlib/dsp/filter.h ****  public:
  94:./mi-custom/stmlib/dsp/filter.h ****   OnePole() { }
  95:./mi-custom/stmlib/dsp/filter.h ****   ~OnePole() { }
  96:./mi-custom/stmlib/dsp/filter.h ****   
  97:./mi-custom/stmlib/dsp/filter.h ****   void Init() {
  98:./mi-custom/stmlib/dsp/filter.h ****     set_f<FREQUENCY_DIRTY>(0.01f);
  99:./mi-custom/stmlib/dsp/filter.h ****     Reset();
ARM GAS  C:\Users\pedro\AppData\Local\Temp\cce24yZj.s 			page 17


 100:./mi-custom/stmlib/dsp/filter.h ****   }
 101:./mi-custom/stmlib/dsp/filter.h ****   
 102:./mi-custom/stmlib/dsp/filter.h ****   void Reset() {
 103:./mi-custom/stmlib/dsp/filter.h ****     state_ = 0.0f;
 104:./mi-custom/stmlib/dsp/filter.h ****   }
 105:./mi-custom/stmlib/dsp/filter.h ****   
 106:./mi-custom/stmlib/dsp/filter.h ****   template<FrequencyApproximation approximation>
 107:./mi-custom/stmlib/dsp/filter.h ****   static inline float tan(float f) {
 108:./mi-custom/stmlib/dsp/filter.h ****     if (approximation == FREQUENCY_EXACT) {
 109:./mi-custom/stmlib/dsp/filter.h ****       // Clip coefficient to about 100.
 110:./mi-custom/stmlib/dsp/filter.h ****       f = f < 0.497f ? f : 0.497f;
 111:./mi-custom/stmlib/dsp/filter.h ****       return tanf(M_PI * f);
 112:./mi-custom/stmlib/dsp/filter.h ****     } else if (approximation == FREQUENCY_DIRTY) {
 113:./mi-custom/stmlib/dsp/filter.h ****       // Optimized for frequencies below 8kHz.
 114:./mi-custom/stmlib/dsp/filter.h ****       const float a = 3.736e-01 * M_PI_POW_3;
 115:./mi-custom/stmlib/dsp/filter.h ****       return f * (M_PI_F + a * f * f);
 116:./mi-custom/stmlib/dsp/filter.h ****     } else if (approximation == FREQUENCY_FAST) {
 117:./mi-custom/stmlib/dsp/filter.h ****       // The usual tangent approximation uses 3.1755e-01 and 2.033e-01, but
 118:./mi-custom/stmlib/dsp/filter.h ****       // the coefficients used here are optimized to minimize error for the
 119:./mi-custom/stmlib/dsp/filter.h ****       // 16Hz to 16kHz range, with a sample rate of 48kHz.
 120:./mi-custom/stmlib/dsp/filter.h ****       const float a = 3.260e-01 * M_PI_POW_3;
 121:./mi-custom/stmlib/dsp/filter.h ****       const float b = 1.823e-01 * M_PI_POW_5;
 122:./mi-custom/stmlib/dsp/filter.h ****       float f2 = f * f;
 123:./mi-custom/stmlib/dsp/filter.h ****       return f * (M_PI_F + f2 * (a + b * f2));
 124:./mi-custom/stmlib/dsp/filter.h ****     } else if (approximation == FREQUENCY_ACCURATE) {
 125:./mi-custom/stmlib/dsp/filter.h ****       // These coefficients don't need to be tweaked for the audio range.
 126:./mi-custom/stmlib/dsp/filter.h ****       const float a = 3.333314036e-01 * M_PI_POW_3;
 127:./mi-custom/stmlib/dsp/filter.h ****       const float b = 1.333923995e-01 * M_PI_POW_5;
 128:./mi-custom/stmlib/dsp/filter.h ****       const float c = 5.33740603e-02 * M_PI_POW_7;
 129:./mi-custom/stmlib/dsp/filter.h ****       const float d = 2.900525e-03 * M_PI_POW_9;
 130:./mi-custom/stmlib/dsp/filter.h ****       const float e = 9.5168091e-03 * M_PI_POW_11;
 131:./mi-custom/stmlib/dsp/filter.h ****       float f2 = f * f;
 132:./mi-custom/stmlib/dsp/filter.h ****       return f * (M_PI_F + f2 * (a + f2 * (b + f2 * (c + f2 * (d + f2 * e)))));
 133:./mi-custom/stmlib/dsp/filter.h ****     }
 134:./mi-custom/stmlib/dsp/filter.h ****   }
 135:./mi-custom/stmlib/dsp/filter.h ****   
 136:./mi-custom/stmlib/dsp/filter.h ****   // Set frequency and resonance from true units. Various approximations
 137:./mi-custom/stmlib/dsp/filter.h ****   // are available to avoid the cost of tanf.
 138:./mi-custom/stmlib/dsp/filter.h ****   template<FrequencyApproximation approximation>
 139:./mi-custom/stmlib/dsp/filter.h ****   inline void set_f(float f) {
 140:./mi-custom/stmlib/dsp/filter.h ****     g_ = tan<approximation>(f);
 141:./mi-custom/stmlib/dsp/filter.h ****     gi_ = 1.0f / (1.0f + g_);
 142:./mi-custom/stmlib/dsp/filter.h ****   }
 143:./mi-custom/stmlib/dsp/filter.h ****   
 144:./mi-custom/stmlib/dsp/filter.h ****   template<FilterMode mode>
 145:./mi-custom/stmlib/dsp/filter.h ****   inline float Process(float in) {
 146:./mi-custom/stmlib/dsp/filter.h ****     float lp;
 147:./mi-custom/stmlib/dsp/filter.h ****     lp = (g_ * in + state_) * gi_;
 148:./mi-custom/stmlib/dsp/filter.h ****     state_ = g_ * (in - lp) + lp;
 149:./mi-custom/stmlib/dsp/filter.h **** 
 150:./mi-custom/stmlib/dsp/filter.h ****     if (mode == FILTER_MODE_LOW_PASS) {
 151:./mi-custom/stmlib/dsp/filter.h ****       return lp;
 152:./mi-custom/stmlib/dsp/filter.h ****     } else if (mode == FILTER_MODE_HIGH_PASS) {
 153:./mi-custom/stmlib/dsp/filter.h ****       return in - lp;
 154:./mi-custom/stmlib/dsp/filter.h ****     } else {
 155:./mi-custom/stmlib/dsp/filter.h ****       return 0.0f;
 156:./mi-custom/stmlib/dsp/filter.h ****     }
ARM GAS  C:\Users\pedro\AppData\Local\Temp\cce24yZj.s 			page 18


 157:./mi-custom/stmlib/dsp/filter.h ****   }
 158:./mi-custom/stmlib/dsp/filter.h ****   
 159:./mi-custom/stmlib/dsp/filter.h ****   template<FilterMode mode>
 160:./mi-custom/stmlib/dsp/filter.h ****   inline void Process(float* in_out, size_t size) {
 161:./mi-custom/stmlib/dsp/filter.h ****     while (size--) {
 162:./mi-custom/stmlib/dsp/filter.h ****       *in_out = Process<mode>(*in_out);
 163:./mi-custom/stmlib/dsp/filter.h ****       ++in_out;
 164:./mi-custom/stmlib/dsp/filter.h ****     }
 165:./mi-custom/stmlib/dsp/filter.h ****   }
 166:./mi-custom/stmlib/dsp/filter.h ****   
 167:./mi-custom/stmlib/dsp/filter.h ****  private:
 168:./mi-custom/stmlib/dsp/filter.h ****   float g_;
 169:./mi-custom/stmlib/dsp/filter.h ****   float gi_;
 170:./mi-custom/stmlib/dsp/filter.h ****   float state_;
 171:./mi-custom/stmlib/dsp/filter.h ****   
 172:./mi-custom/stmlib/dsp/filter.h ****   DISALLOW_COPY_AND_ASSIGN(OnePole);
 173:./mi-custom/stmlib/dsp/filter.h **** };
 174:./mi-custom/stmlib/dsp/filter.h **** 
 175:./mi-custom/stmlib/dsp/filter.h **** 
 176:./mi-custom/stmlib/dsp/filter.h **** 
 177:./mi-custom/stmlib/dsp/filter.h **** class Svf {
 178:./mi-custom/stmlib/dsp/filter.h ****  public:
 179:./mi-custom/stmlib/dsp/filter.h ****   Svf() { }
 180:./mi-custom/stmlib/dsp/filter.h ****   ~Svf() { }
 181:./mi-custom/stmlib/dsp/filter.h ****   
 182:./mi-custom/stmlib/dsp/filter.h ****   void Init() {
 183:./mi-custom/stmlib/dsp/filter.h ****     set_f_q<FREQUENCY_DIRTY>(0.01f, 100.0f);
 184:./mi-custom/stmlib/dsp/filter.h ****     Reset();
 185:./mi-custom/stmlib/dsp/filter.h ****   }
 186:./mi-custom/stmlib/dsp/filter.h ****   
 187:./mi-custom/stmlib/dsp/filter.h ****   void Reset() {
 188:./mi-custom/stmlib/dsp/filter.h ****     state_1_ = state_2_ = 0.0f;
 189:./mi-custom/stmlib/dsp/filter.h ****   }
 190:./mi-custom/stmlib/dsp/filter.h ****   
 191:./mi-custom/stmlib/dsp/filter.h ****   // Copy settings from another filter.
 192:./mi-custom/stmlib/dsp/filter.h ****   inline void set(const Svf& f) {
 193:./mi-custom/stmlib/dsp/filter.h ****     g_ = f.g();
 194:./mi-custom/stmlib/dsp/filter.h ****     r_ = f.r();
 195:./mi-custom/stmlib/dsp/filter.h ****     h_ = f.h();
 196:./mi-custom/stmlib/dsp/filter.h ****   }
 197:./mi-custom/stmlib/dsp/filter.h **** 
 198:./mi-custom/stmlib/dsp/filter.h ****   // Set all parameters from LUT.
 199:./mi-custom/stmlib/dsp/filter.h ****   inline void set_g_r_h(float g, float r, float h) {
 200:./mi-custom/stmlib/dsp/filter.h ****     g_ = g;
 201:./mi-custom/stmlib/dsp/filter.h ****     r_ = r;
 202:./mi-custom/stmlib/dsp/filter.h ****     h_ = h;
 203:./mi-custom/stmlib/dsp/filter.h ****   }
 204:./mi-custom/stmlib/dsp/filter.h ****   
 205:./mi-custom/stmlib/dsp/filter.h ****   // Set frequency and resonance coefficients from LUT, adjust remaining
 206:./mi-custom/stmlib/dsp/filter.h ****   // parameter.
 207:./mi-custom/stmlib/dsp/filter.h ****   inline void set_g_r(float g, float r) {
 208:./mi-custom/stmlib/dsp/filter.h ****     g_ = g;
 209:./mi-custom/stmlib/dsp/filter.h ****     r_ = r;
 210:./mi-custom/stmlib/dsp/filter.h ****     h_ = 1.0f / (1.0f + r_ * g_ + g_ * g_);
 211:./mi-custom/stmlib/dsp/filter.h ****   }
 212:./mi-custom/stmlib/dsp/filter.h **** 
 213:./mi-custom/stmlib/dsp/filter.h ****   // Set frequency from LUT, resonance in true units, adjust the rest.
ARM GAS  C:\Users\pedro\AppData\Local\Temp\cce24yZj.s 			page 19


 214:./mi-custom/stmlib/dsp/filter.h ****   inline void set_g_q(float g, float resonance) {
 215:./mi-custom/stmlib/dsp/filter.h ****     g_ = g;
 216:./mi-custom/stmlib/dsp/filter.h ****     r_ = 1.0f / resonance;
 217:./mi-custom/stmlib/dsp/filter.h ****     h_ = 1.0f / (1.0f + r_ * g_ + g_ * g_);
 218:./mi-custom/stmlib/dsp/filter.h ****   }
 219:./mi-custom/stmlib/dsp/filter.h **** 
 220:./mi-custom/stmlib/dsp/filter.h ****   // Set frequency and resonance from true units. Various approximations
 221:./mi-custom/stmlib/dsp/filter.h ****   // are available to avoid the cost of tanf.
 222:./mi-custom/stmlib/dsp/filter.h ****   template<FrequencyApproximation approximation>
 223:./mi-custom/stmlib/dsp/filter.h ****   inline void set_f_q(float f, float resonance) {
 224:./mi-custom/stmlib/dsp/filter.h ****     g_ = OnePole::tan<approximation>(f);
 225:./mi-custom/stmlib/dsp/filter.h ****     r_ = 1.0f / resonance;
 226:./mi-custom/stmlib/dsp/filter.h ****     h_ = 1.0f / (1.0f + r_ * g_ + g_ * g_);
 227:./mi-custom/stmlib/dsp/filter.h ****   }
 228:./mi-custom/stmlib/dsp/filter.h ****   
 229:./mi-custom/stmlib/dsp/filter.h ****   template<FilterMode mode>
 230:./mi-custom/stmlib/dsp/filter.h ****   inline float Process(float in) {
 231:./mi-custom/stmlib/dsp/filter.h ****     float hp, bp, lp;
 232:./mi-custom/stmlib/dsp/filter.h ****     hp = (in - r_ * state_1_ - g_ * state_1_ - state_2_) * h_;
 233:./mi-custom/stmlib/dsp/filter.h ****     bp = g_ * hp + state_1_;
 234:./mi-custom/stmlib/dsp/filter.h ****     state_1_ = g_ * hp + bp;
 235:./mi-custom/stmlib/dsp/filter.h ****     lp = g_ * bp + state_2_;
 236:./mi-custom/stmlib/dsp/filter.h ****     state_2_ = g_ * bp + lp;
 237:./mi-custom/stmlib/dsp/filter.h ****     
 238:./mi-custom/stmlib/dsp/filter.h ****     if (mode == FILTER_MODE_LOW_PASS) {
 239:./mi-custom/stmlib/dsp/filter.h ****       return lp;
 240:./mi-custom/stmlib/dsp/filter.h ****     } else if (mode == FILTER_MODE_BAND_PASS) {
 241:./mi-custom/stmlib/dsp/filter.h ****       return bp;
 242:./mi-custom/stmlib/dsp/filter.h ****     } else if (mode == FILTER_MODE_BAND_PASS_NORMALIZED) {
 243:./mi-custom/stmlib/dsp/filter.h ****       return bp * r_;
 244:./mi-custom/stmlib/dsp/filter.h ****     } else if (mode == FILTER_MODE_HIGH_PASS) {
 245:./mi-custom/stmlib/dsp/filter.h ****       return hp;
 246:./mi-custom/stmlib/dsp/filter.h ****     }
 247:./mi-custom/stmlib/dsp/filter.h ****   }
 248:./mi-custom/stmlib/dsp/filter.h ****   
 249:./mi-custom/stmlib/dsp/filter.h ****   template<FilterMode mode_1, FilterMode mode_2>
 250:./mi-custom/stmlib/dsp/filter.h ****   inline void Process(float in, float* out_1, float* out_2) {
 251:./mi-custom/stmlib/dsp/filter.h ****     float hp, bp, lp;
 252:./mi-custom/stmlib/dsp/filter.h ****     hp = (in - r_ * state_1_ - g_ * state_1_ - state_2_) * h_;
 253:./mi-custom/stmlib/dsp/filter.h ****     bp = g_ * hp + state_1_;
 254:./mi-custom/stmlib/dsp/filter.h ****     state_1_ = g_ * hp + bp;
 255:./mi-custom/stmlib/dsp/filter.h ****     lp = g_ * bp + state_2_;
 256:./mi-custom/stmlib/dsp/filter.h ****     state_2_ = g_ * bp + lp;
 257:./mi-custom/stmlib/dsp/filter.h ****     
 258:./mi-custom/stmlib/dsp/filter.h ****     if (mode_1 == FILTER_MODE_LOW_PASS) {
 259:./mi-custom/stmlib/dsp/filter.h ****       *out_1 = lp;
 260:./mi-custom/stmlib/dsp/filter.h ****     } else if (mode_1 == FILTER_MODE_BAND_PASS) {
 261:./mi-custom/stmlib/dsp/filter.h ****       *out_1 = bp;
 262:./mi-custom/stmlib/dsp/filter.h ****     } else if (mode_1 == FILTER_MODE_BAND_PASS_NORMALIZED) {
 263:./mi-custom/stmlib/dsp/filter.h ****       *out_1 = bp * r_;
 264:./mi-custom/stmlib/dsp/filter.h ****     } else if (mode_1 == FILTER_MODE_HIGH_PASS) {
 265:./mi-custom/stmlib/dsp/filter.h ****       *out_1 = hp;
 266:./mi-custom/stmlib/dsp/filter.h ****     }
 267:./mi-custom/stmlib/dsp/filter.h **** 
 268:./mi-custom/stmlib/dsp/filter.h ****     if (mode_2 == FILTER_MODE_LOW_PASS) {
 269:./mi-custom/stmlib/dsp/filter.h ****       *out_2 = lp;
 270:./mi-custom/stmlib/dsp/filter.h ****     } else if (mode_2 == FILTER_MODE_BAND_PASS) {
ARM GAS  C:\Users\pedro\AppData\Local\Temp\cce24yZj.s 			page 20


 271:./mi-custom/stmlib/dsp/filter.h ****       *out_2 = bp;
 272:./mi-custom/stmlib/dsp/filter.h ****     } else if (mode_2 == FILTER_MODE_BAND_PASS_NORMALIZED) {
 273:./mi-custom/stmlib/dsp/filter.h ****       *out_2 = bp * r_;
 274:./mi-custom/stmlib/dsp/filter.h ****     } else if (mode_2 == FILTER_MODE_HIGH_PASS) {
 275:./mi-custom/stmlib/dsp/filter.h ****       *out_2 = hp;
 276:./mi-custom/stmlib/dsp/filter.h ****     }
 277:./mi-custom/stmlib/dsp/filter.h ****   }
 278:./mi-custom/stmlib/dsp/filter.h ****   
 279:./mi-custom/stmlib/dsp/filter.h ****   template<FilterMode mode>
 280:./mi-custom/stmlib/dsp/filter.h ****   inline void Process(const float* in, float* out, size_t size) {
 281:./mi-custom/stmlib/dsp/filter.h ****     float hp, bp, lp;
 282:./mi-custom/stmlib/dsp/filter.h ****     float state_1 = state_1_;
 283:./mi-custom/stmlib/dsp/filter.h ****     float state_2 = state_2_;
 284:./mi-custom/stmlib/dsp/filter.h ****     
 285:./mi-custom/stmlib/dsp/filter.h ****     while (size--) {
 286:./mi-custom/stmlib/dsp/filter.h ****       hp = (*in - r_ * state_1 - g_ * state_1 - state_2) * h_;
 287:./mi-custom/stmlib/dsp/filter.h ****       bp = g_ * hp + state_1;
 288:./mi-custom/stmlib/dsp/filter.h ****       state_1 = g_ * hp + bp;
 289:./mi-custom/stmlib/dsp/filter.h ****       lp = g_ * bp + state_2;
 290:./mi-custom/stmlib/dsp/filter.h ****       state_2 = g_ * bp + lp;
 291:./mi-custom/stmlib/dsp/filter.h ****     
 292:./mi-custom/stmlib/dsp/filter.h ****       float value;
 293:./mi-custom/stmlib/dsp/filter.h ****       if (mode == FILTER_MODE_LOW_PASS) {
 294:./mi-custom/stmlib/dsp/filter.h ****         value = lp;
 295:./mi-custom/stmlib/dsp/filter.h ****       } else if (mode == FILTER_MODE_BAND_PASS) {
 296:./mi-custom/stmlib/dsp/filter.h ****         value = bp;
 297:./mi-custom/stmlib/dsp/filter.h ****       } else if (mode == FILTER_MODE_BAND_PASS_NORMALIZED) {
 298:./mi-custom/stmlib/dsp/filter.h ****         value = bp * r_;
 299:./mi-custom/stmlib/dsp/filter.h ****       } else if (mode == FILTER_MODE_HIGH_PASS) {
 300:./mi-custom/stmlib/dsp/filter.h ****         value = hp;
 301:./mi-custom/stmlib/dsp/filter.h ****       }
 302:./mi-custom/stmlib/dsp/filter.h ****       
 303:./mi-custom/stmlib/dsp/filter.h ****       *out = value;
 304:./mi-custom/stmlib/dsp/filter.h ****       ++out;
 305:./mi-custom/stmlib/dsp/filter.h ****       ++in;
 306:./mi-custom/stmlib/dsp/filter.h ****     }
 307:./mi-custom/stmlib/dsp/filter.h ****     state_1_ = state_1;
 308:./mi-custom/stmlib/dsp/filter.h ****     state_2_ = state_2;
 309:./mi-custom/stmlib/dsp/filter.h ****   }
 310:./mi-custom/stmlib/dsp/filter.h ****   
 311:./mi-custom/stmlib/dsp/filter.h ****   template<FilterMode mode>
 312:./mi-custom/stmlib/dsp/filter.h ****   inline void ProcessAdd(const float* in, float* out, size_t size, float gain) {
 313:./mi-custom/stmlib/dsp/filter.h ****     float hp, bp, lp;
 314:./mi-custom/stmlib/dsp/filter.h ****     float state_1 = state_1_;
 315:./mi-custom/stmlib/dsp/filter.h ****     float state_2 = state_2_;
 316:./mi-custom/stmlib/dsp/filter.h ****     
 317:./mi-custom/stmlib/dsp/filter.h ****     while (size--) {
 318:./mi-custom/stmlib/dsp/filter.h ****       hp = (*in - r_ * state_1 - g_ * state_1 - state_2) * h_;
 319:./mi-custom/stmlib/dsp/filter.h ****       bp = g_ * hp + state_1;
 320:./mi-custom/stmlib/dsp/filter.h ****       state_1 = g_ * hp + bp;
 321:./mi-custom/stmlib/dsp/filter.h ****       lp = g_ * bp + state_2;
 322:./mi-custom/stmlib/dsp/filter.h ****       state_2 = g_ * bp + lp;
 323:./mi-custom/stmlib/dsp/filter.h ****     
 324:./mi-custom/stmlib/dsp/filter.h ****       float value;
 325:./mi-custom/stmlib/dsp/filter.h ****       if (mode == FILTER_MODE_LOW_PASS) {
 326:./mi-custom/stmlib/dsp/filter.h ****         value = lp;
 327:./mi-custom/stmlib/dsp/filter.h ****       } else if (mode == FILTER_MODE_BAND_PASS) {
ARM GAS  C:\Users\pedro\AppData\Local\Temp\cce24yZj.s 			page 21


 328:./mi-custom/stmlib/dsp/filter.h ****         value = bp;
 329:./mi-custom/stmlib/dsp/filter.h ****       } else if (mode == FILTER_MODE_BAND_PASS_NORMALIZED) {
 330:./mi-custom/stmlib/dsp/filter.h ****         value = bp * r_;
 331:./mi-custom/stmlib/dsp/filter.h ****       } else if (mode == FILTER_MODE_HIGH_PASS) {
 332:./mi-custom/stmlib/dsp/filter.h ****         value = hp;
 333:./mi-custom/stmlib/dsp/filter.h ****       }
 334:./mi-custom/stmlib/dsp/filter.h ****       
 335:./mi-custom/stmlib/dsp/filter.h ****       *out += gain * value;
 336:./mi-custom/stmlib/dsp/filter.h ****       ++out;
 337:./mi-custom/stmlib/dsp/filter.h ****       ++in;
 338:./mi-custom/stmlib/dsp/filter.h ****     }
 339:./mi-custom/stmlib/dsp/filter.h ****     state_1_ = state_1;
 340:./mi-custom/stmlib/dsp/filter.h ****     state_2_ = state_2;
 341:./mi-custom/stmlib/dsp/filter.h ****   }
 342:./mi-custom/stmlib/dsp/filter.h ****   
 343:./mi-custom/stmlib/dsp/filter.h ****   template<FilterMode mode>
 344:./mi-custom/stmlib/dsp/filter.h ****   inline void Process(const float* in, float* out, size_t size, size_t stride) {
 345:./mi-custom/stmlib/dsp/filter.h ****     float hp, bp, lp;
 346:./mi-custom/stmlib/dsp/filter.h ****     float state_1 = state_1_;
 347:./mi-custom/stmlib/dsp/filter.h ****     float state_2 = state_2_;
 348:./mi-custom/stmlib/dsp/filter.h ****     
 349:./mi-custom/stmlib/dsp/filter.h ****     while (size--) {
 350:./mi-custom/stmlib/dsp/filter.h ****       hp = (*in - r_ * state_1 - g_ * state_1 - state_2) * h_;
 351:./mi-custom/stmlib/dsp/filter.h ****       bp = g_ * hp + state_1;
 352:./mi-custom/stmlib/dsp/filter.h ****       state_1 = g_ * hp + bp;
 353:./mi-custom/stmlib/dsp/filter.h ****       lp = g_ * bp + state_2;
 354:./mi-custom/stmlib/dsp/filter.h ****       state_2 = g_ * bp + lp;
 355:./mi-custom/stmlib/dsp/filter.h ****     
 356:./mi-custom/stmlib/dsp/filter.h ****       float value;
 357:./mi-custom/stmlib/dsp/filter.h ****       if (mode == FILTER_MODE_LOW_PASS) {
 358:./mi-custom/stmlib/dsp/filter.h ****         value = lp;
 359:./mi-custom/stmlib/dsp/filter.h ****       } else if (mode == FILTER_MODE_BAND_PASS) {
 360:./mi-custom/stmlib/dsp/filter.h ****         value = bp;
 361:./mi-custom/stmlib/dsp/filter.h ****       } else if (mode == FILTER_MODE_BAND_PASS_NORMALIZED) {
 362:./mi-custom/stmlib/dsp/filter.h ****         value = bp * r_;
 363:./mi-custom/stmlib/dsp/filter.h ****       } else if (mode == FILTER_MODE_HIGH_PASS) {
 364:./mi-custom/stmlib/dsp/filter.h ****         value = hp;
 365:./mi-custom/stmlib/dsp/filter.h ****       }
 366:./mi-custom/stmlib/dsp/filter.h ****       
 367:./mi-custom/stmlib/dsp/filter.h ****       *out = value;
 368:./mi-custom/stmlib/dsp/filter.h ****       out += stride;
 369:./mi-custom/stmlib/dsp/filter.h ****       in += stride;
 370:./mi-custom/stmlib/dsp/filter.h ****     }
 371:./mi-custom/stmlib/dsp/filter.h ****     state_1_ = state_1;
 372:./mi-custom/stmlib/dsp/filter.h ****     state_2_ = state_2;
 373:./mi-custom/stmlib/dsp/filter.h ****   }
 374:./mi-custom/stmlib/dsp/filter.h ****   
 375:./mi-custom/stmlib/dsp/filter.h ****   inline void ProcessMultimode(
 376:./mi-custom/stmlib/dsp/filter.h ****       const float* in,
 377:./mi-custom/stmlib/dsp/filter.h ****       float* out,
 378:./mi-custom/stmlib/dsp/filter.h ****       size_t size,
 379:./mi-custom/stmlib/dsp/filter.h ****       float mode) {
 380:./mi-custom/stmlib/dsp/filter.h ****     float hp, bp, lp;
 381:./mi-custom/stmlib/dsp/filter.h ****     float state_1 = state_1_;
 382:./mi-custom/stmlib/dsp/filter.h ****     float state_2 = state_2_;
 383:./mi-custom/stmlib/dsp/filter.h ****     float hp_gain = mode < 0.5f ? -mode * 2.0f : -2.0f + mode * 2.0f;
 384:./mi-custom/stmlib/dsp/filter.h ****     float lp_gain = mode < 0.5f ? 1.0f - mode * 2.0f : 0.0f;
ARM GAS  C:\Users\pedro\AppData\Local\Temp\cce24yZj.s 			page 22


 385:./mi-custom/stmlib/dsp/filter.h ****     float bp_gain = mode < 0.5f ? 0.0f : mode * 2.0f - 1.0f;
 386:./mi-custom/stmlib/dsp/filter.h ****     while (size--) {
 387:./mi-custom/stmlib/dsp/filter.h ****       hp = (*in - r_ * state_1 - g_ * state_1 - state_2) * h_;
 388:./mi-custom/stmlib/dsp/filter.h ****       bp = g_ * hp + state_1;
 389:./mi-custom/stmlib/dsp/filter.h ****       state_1 = g_ * hp + bp;
 390:./mi-custom/stmlib/dsp/filter.h ****       lp = g_ * bp + state_2;
 391:./mi-custom/stmlib/dsp/filter.h ****       state_2 = g_ * bp + lp;
 392:./mi-custom/stmlib/dsp/filter.h ****       *out = hp_gain * hp + bp_gain * bp + lp_gain * lp;
 393:./mi-custom/stmlib/dsp/filter.h ****       ++in;
 394:./mi-custom/stmlib/dsp/filter.h ****       ++out;
 395:./mi-custom/stmlib/dsp/filter.h ****     }
 396:./mi-custom/stmlib/dsp/filter.h ****     state_1_ = state_1;
 397:./mi-custom/stmlib/dsp/filter.h ****     state_2_ = state_2;
 398:./mi-custom/stmlib/dsp/filter.h ****   }
 399:./mi-custom/stmlib/dsp/filter.h ****   
 400:./mi-custom/stmlib/dsp/filter.h ****   inline void ProcessMultimodeLPtoHP(
 401:./mi-custom/stmlib/dsp/filter.h ****       const float* in,
 402:./mi-custom/stmlib/dsp/filter.h ****       float* out,
 403:./mi-custom/stmlib/dsp/filter.h ****       size_t size,
 404:./mi-custom/stmlib/dsp/filter.h ****       float mode) {
 405:./mi-custom/stmlib/dsp/filter.h ****     float hp, bp, lp;
 406:./mi-custom/stmlib/dsp/filter.h ****     float state_1 = state_1_;
 407:./mi-custom/stmlib/dsp/filter.h ****     float state_2 = state_2_;
 408:./mi-custom/stmlib/dsp/filter.h ****     float hp_gain = std::min(-mode * 2.0f + 1.0f, 0.0f);
 409:./mi-custom/stmlib/dsp/filter.h ****     float bp_gain = 1.0f - 2.0f * fabsf(mode - 0.5f);
 410:./mi-custom/stmlib/dsp/filter.h ****     float lp_gain = std::max(1.0f - mode * 2.0f, 0.0f);
 411:./mi-custom/stmlib/dsp/filter.h ****     while (size--) {
 412:./mi-custom/stmlib/dsp/filter.h ****       hp = (*in - r_ * state_1 - g_ * state_1 - state_2) * h_;
 413:./mi-custom/stmlib/dsp/filter.h ****       bp = g_ * hp + state_1;
 414:./mi-custom/stmlib/dsp/filter.h ****       state_1 = g_ * hp + bp;
 415:./mi-custom/stmlib/dsp/filter.h ****       lp = g_ * bp + state_2;
 416:./mi-custom/stmlib/dsp/filter.h ****       state_2 = g_ * bp + lp;
 417:./mi-custom/stmlib/dsp/filter.h ****       *out = hp_gain * hp + bp_gain * bp + lp_gain * lp;
 418:./mi-custom/stmlib/dsp/filter.h ****       ++in;
 419:./mi-custom/stmlib/dsp/filter.h ****       ++out;
 420:./mi-custom/stmlib/dsp/filter.h ****     }
 421:./mi-custom/stmlib/dsp/filter.h ****     state_1_ = state_1;
 422:./mi-custom/stmlib/dsp/filter.h ****     state_2_ = state_2;
 423:./mi-custom/stmlib/dsp/filter.h ****   }
 424:./mi-custom/stmlib/dsp/filter.h ****   
 425:./mi-custom/stmlib/dsp/filter.h ****   template<FilterMode mode>
 426:./mi-custom/stmlib/dsp/filter.h ****   inline void Process(
 427:./mi-custom/stmlib/dsp/filter.h ****       const float* in, float* out_1, float* out_2, size_t size,
 428:./mi-custom/stmlib/dsp/filter.h ****       float gain_1, float gain_2) {
 429:./mi-custom/stmlib/dsp/filter.h ****     float hp, bp, lp;
 430:./mi-custom/stmlib/dsp/filter.h ****     float state_1 = state_1_;
 431:./mi-custom/stmlib/dsp/filter.h ****     float state_2 = state_2_;
 432:./mi-custom/stmlib/dsp/filter.h ****     
 433:./mi-custom/stmlib/dsp/filter.h ****     while (size--) {
 434:./mi-custom/stmlib/dsp/filter.h ****       hp = (*in - r_ * state_1 - g_ * state_1 - state_2) * h_;
 435:./mi-custom/stmlib/dsp/filter.h ****       bp = g_ * hp + state_1;
 436:./mi-custom/stmlib/dsp/filter.h ****       state_1 = g_ * hp + bp;
 437:./mi-custom/stmlib/dsp/filter.h ****       lp = g_ * bp + state_2;
 438:./mi-custom/stmlib/dsp/filter.h ****       state_2 = g_ * bp + lp;
 439:./mi-custom/stmlib/dsp/filter.h ****     
 440:./mi-custom/stmlib/dsp/filter.h ****       float value;
 441:./mi-custom/stmlib/dsp/filter.h ****       if (mode == FILTER_MODE_LOW_PASS) {
ARM GAS  C:\Users\pedro\AppData\Local\Temp\cce24yZj.s 			page 23


 442:./mi-custom/stmlib/dsp/filter.h ****         value = lp;
 443:./mi-custom/stmlib/dsp/filter.h ****       } else if (mode == FILTER_MODE_BAND_PASS) {
 444:./mi-custom/stmlib/dsp/filter.h ****         value = bp;
 445:./mi-custom/stmlib/dsp/filter.h ****       } else if (mode == FILTER_MODE_BAND_PASS_NORMALIZED) {
 446:./mi-custom/stmlib/dsp/filter.h ****         value = bp * r_;
 447:./mi-custom/stmlib/dsp/filter.h ****       } else if (mode == FILTER_MODE_HIGH_PASS) {
 448:./mi-custom/stmlib/dsp/filter.h ****         value = hp;
 449:./mi-custom/stmlib/dsp/filter.h ****       }
 450:./mi-custom/stmlib/dsp/filter.h ****       
 451:./mi-custom/stmlib/dsp/filter.h ****       *out_1 += value * gain_1;
 452:./mi-custom/stmlib/dsp/filter.h ****       *out_2 += value * gain_2;
 453:./mi-custom/stmlib/dsp/filter.h ****       ++out_1;
 454:./mi-custom/stmlib/dsp/filter.h ****       ++out_2;
 455:./mi-custom/stmlib/dsp/filter.h ****       ++in;
 456:./mi-custom/stmlib/dsp/filter.h ****     }
 457:./mi-custom/stmlib/dsp/filter.h ****     state_1_ = state_1;
 458:./mi-custom/stmlib/dsp/filter.h ****     state_2_ = state_2;
 459:./mi-custom/stmlib/dsp/filter.h ****   }
 460:./mi-custom/stmlib/dsp/filter.h ****   
 461:./mi-custom/stmlib/dsp/filter.h ****   inline float g() const { return g_; }
 462:./mi-custom/stmlib/dsp/filter.h ****   inline float r() const { return r_; }
 463:./mi-custom/stmlib/dsp/filter.h ****   inline float h() const { return h_; }
 464:./mi-custom/stmlib/dsp/filter.h ****   
 465:./mi-custom/stmlib/dsp/filter.h ****  private:
 466:./mi-custom/stmlib/dsp/filter.h ****   float g_;
 467:./mi-custom/stmlib/dsp/filter.h ****   float r_;
 468:./mi-custom/stmlib/dsp/filter.h ****   float h_;
 469:./mi-custom/stmlib/dsp/filter.h **** 
 470:./mi-custom/stmlib/dsp/filter.h ****   float state_1_;
 471:./mi-custom/stmlib/dsp/filter.h ****   float state_2_;
 472:./mi-custom/stmlib/dsp/filter.h ****   
 473:./mi-custom/stmlib/dsp/filter.h ****   DISALLOW_COPY_AND_ASSIGN(Svf);
 474:./mi-custom/stmlib/dsp/filter.h **** };
 475:./mi-custom/stmlib/dsp/filter.h **** 
 476:./mi-custom/stmlib/dsp/filter.h **** 
 477:./mi-custom/stmlib/dsp/filter.h **** 
 478:./mi-custom/stmlib/dsp/filter.h **** // Naive Chamberlin SVF.
 479:./mi-custom/stmlib/dsp/filter.h **** class NaiveSvf {
 480:./mi-custom/stmlib/dsp/filter.h ****  public:
 481:./mi-custom/stmlib/dsp/filter.h ****   NaiveSvf() { }
 482:./mi-custom/stmlib/dsp/filter.h ****   ~NaiveSvf() { }
 160              		.loc 12 482 3 view .LVU23
 161              		.loc 12 482 3 is_stmt 0 view .LVU24
 162              	.LBE603:
 163              	.LBB604:
 164              	.LBI604:
 165              		.loc 12 482 3 is_stmt 1 view .LVU25
 166              		.loc 12 482 3 is_stmt 0 view .LVU26
 167              	.LBE604:
 168              		.loc 11 46 17 view .LVU27
 169 0000 7047     		bx	lr
 170              		.cfi_endproc
 171              	.LFE4934:
 173              		.weak	_ZN5rings8FollowerD1Ev
 174              		.thumb_set _ZN5rings8FollowerD1Ev,_ZN5rings8FollowerD2Ev
 175 0002 00BF     		.section	.text._ZN6clouds7VoxVerb7ProcessEPNS_10FloatFrameEj,"axG",%progbits,_ZN6clouds7VoxVerb7Pr
 176              		.align	1
ARM GAS  C:\Users\pedro\AppData\Local\Temp\cce24yZj.s 			page 24


 177              		.p2align 2,,3
 178              		.weak	_ZN6clouds7VoxVerb7ProcessEPNS_10FloatFrameEj
 179              		.syntax unified
 180              		.thumb
 181              		.thumb_func
 182              		.fpu fpv5-d16
 184              	_ZN6clouds7VoxVerb7ProcessEPNS_10FloatFrameEj:
 185              	.LVL4:
 186              	.LFB4841:
  42:./mi-custom/clouds/dsp/fx/voxverb.h ****   
  43:./mi-custom/clouds/dsp/fx/voxverb.h ****   void Init(uint16_t* buffer) {
  44:./mi-custom/clouds/dsp/fx/voxverb.h ****     engine_.Init(buffer);
  45:./mi-custom/clouds/dsp/fx/voxverb.h ****     engine_.SetLFOFrequency(LFO_1, 0.5f / 32000.0f);
  46:./mi-custom/clouds/dsp/fx/voxverb.h ****     engine_.SetLFOFrequency(LFO_2, 0.3f / 32000.0f);
  47:./mi-custom/clouds/dsp/fx/voxverb.h ****     lp_ = 1.0f;
  48:./mi-custom/clouds/dsp/fx/voxverb.h ****     hp_= 0.0f;
  49:./mi-custom/clouds/dsp/fx/voxverb.h ****     diffusion_ = 0.625f;
  50:./mi-custom/clouds/dsp/fx/voxverb.h ****   }
  51:./mi-custom/clouds/dsp/fx/voxverb.h ****   
  52:./mi-custom/clouds/dsp/fx/voxverb.h ****   void Process(FloatFrame* in_out, size_t size) {
 187              		.loc 9 52 8 is_stmt 1 view -0
 188              		.cfi_startproc
 189              		@ args = 0, pretend = 0, frame = 0
 190              		@ frame_needed = 0, uses_anonymous_args = 0
  53:./mi-custom/clouds/dsp/fx/voxverb.h ****     // This is the Griesinger topology described in the Dattorro paper
  54:./mi-custom/clouds/dsp/fx/voxverb.h ****     // (4 AP diffusers on the input, then a loop of 2x 2AP+1Delay).
  55:./mi-custom/clouds/dsp/fx/voxverb.h ****     // Modulation is applied in the loop of the first diffuser AP for additional
  56:./mi-custom/clouds/dsp/fx/voxverb.h ****     // smearing; and to the two long delays for a slow shimmer/chorus effect.
  57:./mi-custom/clouds/dsp/fx/voxverb.h ****     typedef E::Reserve<113,
 191              		.loc 9 57 5 view .LVU29
  58:./mi-custom/clouds/dsp/fx/voxverb.h ****       E::Reserve<162,
  59:./mi-custom/clouds/dsp/fx/voxverb.h ****       E::Reserve<241,
  60:./mi-custom/clouds/dsp/fx/voxverb.h ****       E::Reserve<399,
  61:./mi-custom/clouds/dsp/fx/voxverb.h ****       E::Reserve<1653,
  62:./mi-custom/clouds/dsp/fx/voxverb.h ****       E::Reserve<2038,
  63:./mi-custom/clouds/dsp/fx/voxverb.h ****       E::Reserve<3411,
  64:./mi-custom/clouds/dsp/fx/voxverb.h ****       E::Reserve<1913,
  65:./mi-custom/clouds/dsp/fx/voxverb.h ****       E::Reserve<1663,
  66:./mi-custom/clouds/dsp/fx/voxverb.h ****       E::Reserve<4782> > > > > > > > > > Memory;
  67:./mi-custom/clouds/dsp/fx/voxverb.h ****     E::DelayLine<Memory, 0> ap1;
 192              		.loc 9 67 5 view .LVU30
  68:./mi-custom/clouds/dsp/fx/voxverb.h ****     E::DelayLine<Memory, 1> ap2;
 193              		.loc 9 68 5 view .LVU31
  69:./mi-custom/clouds/dsp/fx/voxverb.h ****     E::DelayLine<Memory, 2> ap3;
 194              		.loc 9 69 5 view .LVU32
  70:./mi-custom/clouds/dsp/fx/voxverb.h ****     E::DelayLine<Memory, 3> ap4;
 195              		.loc 9 70 5 view .LVU33
  71:./mi-custom/clouds/dsp/fx/voxverb.h ****     E::DelayLine<Memory, 4> dap1a;
 196              		.loc 9 71 5 view .LVU34
  72:./mi-custom/clouds/dsp/fx/voxverb.h ****     E::DelayLine<Memory, 5> dap1b;
 197              		.loc 9 72 5 view .LVU35
  73:./mi-custom/clouds/dsp/fx/voxverb.h ****     E::DelayLine<Memory, 6> del1;
 198              		.loc 9 73 5 view .LVU36
  74:./mi-custom/clouds/dsp/fx/voxverb.h ****     E::DelayLine<Memory, 7> dap2a;
 199              		.loc 9 74 5 view .LVU37
  75:./mi-custom/clouds/dsp/fx/voxverb.h ****     E::DelayLine<Memory, 8> dap2b;
 200              		.loc 9 75 5 view .LVU38
ARM GAS  C:\Users\pedro\AppData\Local\Temp\cce24yZj.s 			page 25


  76:./mi-custom/clouds/dsp/fx/voxverb.h ****     E::DelayLine<Memory, 9> del2;
 201              		.loc 9 76 5 view .LVU39
  77:./mi-custom/clouds/dsp/fx/voxverb.h ****     E::Context c;
 202              		.loc 9 77 5 view .LVU40
 203              	.LBB800:
 204              	.LBI800:
 106:./mi-custom/clouds/dsp/fx/fx_engine.h **** 
 107:./mi-custom/clouds/dsp/fx/fx_engine.h ****   void Init(T* buffer) {
 108:./mi-custom/clouds/dsp/fx/fx_engine.h ****     buffer_ = buffer;
 109:./mi-custom/clouds/dsp/fx/fx_engine.h ****     Clear();
 110:./mi-custom/clouds/dsp/fx/fx_engine.h ****   }
 111:./mi-custom/clouds/dsp/fx/fx_engine.h ****   
 112:./mi-custom/clouds/dsp/fx/fx_engine.h ****   void Clear() {
 113:./mi-custom/clouds/dsp/fx/fx_engine.h ****     std::fill(&buffer_[0], &buffer_[size], 0);
 114:./mi-custom/clouds/dsp/fx/fx_engine.h ****     write_ptr_ = 0;
 115:./mi-custom/clouds/dsp/fx/fx_engine.h ****   }
 116:./mi-custom/clouds/dsp/fx/fx_engine.h **** 
 117:./mi-custom/clouds/dsp/fx/fx_engine.h ****   struct Empty { };
 118:./mi-custom/clouds/dsp/fx/fx_engine.h ****   
 119:./mi-custom/clouds/dsp/fx/fx_engine.h ****   template<int32_t l, typename T = Empty>
 120:./mi-custom/clouds/dsp/fx/fx_engine.h ****   struct Reserve {
 121:./mi-custom/clouds/dsp/fx/fx_engine.h ****     typedef T Tail;
 122:./mi-custom/clouds/dsp/fx/fx_engine.h ****     enum {
 123:./mi-custom/clouds/dsp/fx/fx_engine.h ****       length = l
 124:./mi-custom/clouds/dsp/fx/fx_engine.h ****     };
 125:./mi-custom/clouds/dsp/fx/fx_engine.h ****   };
 126:./mi-custom/clouds/dsp/fx/fx_engine.h ****   
 127:./mi-custom/clouds/dsp/fx/fx_engine.h ****   template<typename Memory, int32_t index>
 128:./mi-custom/clouds/dsp/fx/fx_engine.h ****   struct DelayLine {
 129:./mi-custom/clouds/dsp/fx/fx_engine.h ****     enum {
 130:./mi-custom/clouds/dsp/fx/fx_engine.h ****       length = DelayLine<typename Memory::Tail, index - 1>::length,
 131:./mi-custom/clouds/dsp/fx/fx_engine.h ****       base = DelayLine<Memory, index - 1>::base + DelayLine<Memory, index - 1>::length + 1
 132:./mi-custom/clouds/dsp/fx/fx_engine.h ****     };
 133:./mi-custom/clouds/dsp/fx/fx_engine.h ****   };
 134:./mi-custom/clouds/dsp/fx/fx_engine.h **** 
 135:./mi-custom/clouds/dsp/fx/fx_engine.h ****   template<typename Memory>
 136:./mi-custom/clouds/dsp/fx/fx_engine.h ****   struct DelayLine<Memory, 0> {
 137:./mi-custom/clouds/dsp/fx/fx_engine.h ****     enum {
 138:./mi-custom/clouds/dsp/fx/fx_engine.h ****       length = Memory::length,
 139:./mi-custom/clouds/dsp/fx/fx_engine.h ****       base = 0
 140:./mi-custom/clouds/dsp/fx/fx_engine.h ****     };
 141:./mi-custom/clouds/dsp/fx/fx_engine.h ****   };
 142:./mi-custom/clouds/dsp/fx/fx_engine.h **** 
 143:./mi-custom/clouds/dsp/fx/fx_engine.h ****   class Context {
 144:./mi-custom/clouds/dsp/fx/fx_engine.h ****    friend class FxEngine;
 145:./mi-custom/clouds/dsp/fx/fx_engine.h ****    public:
 146:./mi-custom/clouds/dsp/fx/fx_engine.h ****     Context() { }
 205              		.loc 10 146 5 view .LVU41
 206              		.loc 10 146 5 is_stmt 0 view .LVU42
 207              	.LBE800:
  78:./mi-custom/clouds/dsp/fx/voxverb.h **** 
  79:./mi-custom/clouds/dsp/fx/voxverb.h ****     const float kap = diffusion_;
 208              		.loc 9 79 5 is_stmt 1 view .LVU43
 209              		.loc 9 79 17 is_stmt 0 view .LVU44
 210 0000 90ED0D6A 		vldr.32	s12, [r0, #52]
 211              	.LVL5:
  80:./mi-custom/clouds/dsp/fx/voxverb.h ****     const float klp = lp_;
ARM GAS  C:\Users\pedro\AppData\Local\Temp\cce24yZj.s 			page 26


 212              		.loc 9 80 5 is_stmt 1 view .LVU45
 213              		.loc 9 80 17 is_stmt 0 view .LVU46
 214 0004 90ED0E3A 		vldr.32	s6, [r0, #56]
 215              	.LVL6:
  81:./mi-custom/clouds/dsp/fx/voxverb.h ****     const float khp = hp_;
 216              		.loc 9 81 5 is_stmt 1 view .LVU47
 217              		.loc 9 81 17 is_stmt 0 view .LVU48
 218 0008 D0ED0F2A 		vldr.32	s5, [r0, #60]
 219              	.LVL7:
  82:./mi-custom/clouds/dsp/fx/voxverb.h ****     const float krt = reverb_time_;
 220              		.loc 9 82 5 is_stmt 1 view .LVU49
 221              		.loc 9 82 17 is_stmt 0 view .LVU50
 222 000c D0ED0C1A 		vldr.32	s3, [r0, #48]
 223              	.LVL8:
  83:./mi-custom/clouds/dsp/fx/voxverb.h ****     const float amount = amount_;
 224              		.loc 9 83 5 is_stmt 1 view .LVU51
 225              		.loc 9 83 17 is_stmt 0 view .LVU52
 226 0010 90ED0A2A 		vldr.32	s4, [r0, #40]
 227              	.LVL9:
  84:./mi-custom/clouds/dsp/fx/voxverb.h ****     const float gain = input_gain_;
 228              		.loc 9 84 5 is_stmt 1 view .LVU53
 229              		.loc 9 84 17 is_stmt 0 view .LVU54
 230 0014 90ED0B1A 		vldr.32	s2, [r0, #44]
 231              	.LVL10:
  85:./mi-custom/clouds/dsp/fx/voxverb.h **** 
  86:./mi-custom/clouds/dsp/fx/voxverb.h ****     float lp_1 = lp_decay_1_;
 232              		.loc 9 86 5 is_stmt 1 view .LVU55
 233              		.loc 9 86 18 is_stmt 0 view .LVU56
 234 0018 90ED104A 		vldr.32	s8, [r0, #64]
 235              	.LVL11:
  87:./mi-custom/clouds/dsp/fx/voxverb.h ****     float lp_2 = lp_decay_2_;
 236              		.loc 9 87 5 is_stmt 1 view .LVU57
 237              		.loc 9 87 18 is_stmt 0 view .LVU58
 238 001c D0ED114A 		vldr.32	s9, [r0, #68]
 239              	.LVL12:
  88:./mi-custom/clouds/dsp/fx/voxverb.h ****     float hp_1 = hp_decay_1_;
 240              		.loc 9 88 5 is_stmt 1 view .LVU59
 241              		.loc 9 88 18 is_stmt 0 view .LVU60
 242 0020 D0ED120A 		vldr.32	s1, [r0, #72]
 243              	.LVL13:
  89:./mi-custom/clouds/dsp/fx/voxverb.h ****     float hp_2 = hp_decay_2_;
 244              		.loc 9 89 5 is_stmt 1 view .LVU61
  90:./mi-custom/clouds/dsp/fx/voxverb.h **** 
  91:./mi-custom/clouds/dsp/fx/voxverb.h ****     while (size--) {
 245              		.loc 9 91 5 view .LVU62
 246              		.loc 9 91 16 view .LVU63
 247              		.loc 9 91 16 is_stmt 0 view .LVU64
 248 0024 002A     		cmp	r2, #0
 249 0026 00F01882 		beq	.L18
 250              	.LBB801:
  92:./mi-custom/clouds/dsp/fx/voxverb.h ****       float wet;
  93:./mi-custom/clouds/dsp/fx/voxverb.h ****       float apout = 0.0f;
  94:./mi-custom/clouds/dsp/fx/voxverb.h ****       engine_.Start(&c);
  95:./mi-custom/clouds/dsp/fx/voxverb.h ****       
  96:./mi-custom/clouds/dsp/fx/voxverb.h ****       // Smear AP1 inside the loop.
  97:./mi-custom/clouds/dsp/fx/voxverb.h ****       c.Interpolate(ap1, 10.0f, LFO_1, 60.0f, 1.0f);
  98:./mi-custom/clouds/dsp/fx/voxverb.h ****       c.Write(ap1, 100, 0.0f);
ARM GAS  C:\Users\pedro\AppData\Local\Temp\cce24yZj.s 			page 27


  99:./mi-custom/clouds/dsp/fx/voxverb.h ****       
 100:./mi-custom/clouds/dsp/fx/voxverb.h ****       c.Read(in_out->l + in_out->r, gain);
 101:./mi-custom/clouds/dsp/fx/voxverb.h **** 
 102:./mi-custom/clouds/dsp/fx/voxverb.h ****       // Diffuse through 4 allpasses.
 103:./mi-custom/clouds/dsp/fx/voxverb.h ****       c.Read(ap1 TAIL, kap);
 104:./mi-custom/clouds/dsp/fx/voxverb.h ****       c.WriteAllPass(ap1, -kap);
 105:./mi-custom/clouds/dsp/fx/voxverb.h ****       c.Read(ap2 TAIL, kap);
 106:./mi-custom/clouds/dsp/fx/voxverb.h ****       c.WriteAllPass(ap2, -kap);
 107:./mi-custom/clouds/dsp/fx/voxverb.h ****       c.Read(ap3 TAIL, kap);
 108:./mi-custom/clouds/dsp/fx/voxverb.h ****       c.WriteAllPass(ap3, -kap);
 109:./mi-custom/clouds/dsp/fx/voxverb.h ****       c.Read(ap4 TAIL, kap);
 110:./mi-custom/clouds/dsp/fx/voxverb.h ****       c.WriteAllPass(ap4, -kap);
 111:./mi-custom/clouds/dsp/fx/voxverb.h ****       c.Write(apout); 
 112:./mi-custom/clouds/dsp/fx/voxverb.h ****       
 113:./mi-custom/clouds/dsp/fx/voxverb.h ****       // Main reverb loop.
 114:./mi-custom/clouds/dsp/fx/voxverb.h ****       c.Load(apout);
 115:./mi-custom/clouds/dsp/fx/voxverb.h ****       // c.Interpolate(del2, 4680.0f, LFO_2, 100.0f, krt);
 116:./mi-custom/clouds/dsp/fx/voxverb.h ****       c.Interpolate(del2, delay_time_ * 0.5, LFO_2);
 251              		.loc 9 116 20 view .LVU65
 252 002a F6EE007A 		vmov.f32	s15, #5.0e-1
 253 002e D0ED143A 		vldr.32	s7, [r0, #80]
 104:./mi-custom/clouds/dsp/fx/voxverb.h ****       c.Read(ap2 TAIL, kap);
 254              		.loc 9 104 21 view .LVU66
 255 0032 F1EE465A 		vneg.f32	s11, s12
 256              		.loc 9 116 20 view .LVU67
 257 0036 63EEA73A 		vmul.f32	s7, s7, s15
 258              	.LBE801:
  52:./mi-custom/clouds/dsp/fx/voxverb.h ****     // This is the Griesinger topology described in the Dattorro paper
 259              		.loc 9 52 8 view .LVU68
 260 003a 2DE9F04F 		push	{r4, r5, r6, r7, r8, r9, r10, fp, lr}
 261              		.cfi_def_cfa_offset 36
 262              		.cfi_offset 4, -36
 263              		.cfi_offset 5, -32
 264              		.cfi_offset 6, -28
 265              		.cfi_offset 7, -24
 266              		.cfi_offset 8, -20
 267              		.cfi_offset 9, -16
 268              		.cfi_offset 10, -12
 269              		.cfi_offset 11, -8
 270              		.cfi_offset 14, -4
 271              	.LBB1476:
 272              	.LBB802:
 273              	.LBB803:
 147:./mi-custom/clouds/dsp/fx/fx_engine.h ****     ~Context() { }
 148:./mi-custom/clouds/dsp/fx/fx_engine.h ****     
 149:./mi-custom/clouds/dsp/fx/fx_engine.h ****     inline void Load(float value) {
 150:./mi-custom/clouds/dsp/fx/fx_engine.h ****       accumulator_ = value;
 151:./mi-custom/clouds/dsp/fx/fx_engine.h ****     }
 152:./mi-custom/clouds/dsp/fx/fx_engine.h **** 
 153:./mi-custom/clouds/dsp/fx/fx_engine.h ****     inline void Read(float value, float scale) {
 154:./mi-custom/clouds/dsp/fx/fx_engine.h ****       accumulator_ += value * scale;
 155:./mi-custom/clouds/dsp/fx/fx_engine.h ****     }
 156:./mi-custom/clouds/dsp/fx/fx_engine.h **** 
 157:./mi-custom/clouds/dsp/fx/fx_engine.h ****     inline void Read(float value) {
 158:./mi-custom/clouds/dsp/fx/fx_engine.h ****       accumulator_ += value;
 159:./mi-custom/clouds/dsp/fx/fx_engine.h ****     }
 160:./mi-custom/clouds/dsp/fx/fx_engine.h **** 
ARM GAS  C:\Users\pedro\AppData\Local\Temp\cce24yZj.s 			page 28


 161:./mi-custom/clouds/dsp/fx/fx_engine.h ****     inline void Write(float& value) {
 162:./mi-custom/clouds/dsp/fx/fx_engine.h ****       value = accumulator_;
 163:./mi-custom/clouds/dsp/fx/fx_engine.h ****     }
 164:./mi-custom/clouds/dsp/fx/fx_engine.h **** 
 165:./mi-custom/clouds/dsp/fx/fx_engine.h ****     inline void Write(float& value, float scale) {
 166:./mi-custom/clouds/dsp/fx/fx_engine.h ****       value = accumulator_;
 167:./mi-custom/clouds/dsp/fx/fx_engine.h ****       accumulator_ *= scale;
 168:./mi-custom/clouds/dsp/fx/fx_engine.h ****     }
 169:./mi-custom/clouds/dsp/fx/fx_engine.h ****     
 170:./mi-custom/clouds/dsp/fx/fx_engine.h ****     template<typename D>
 171:./mi-custom/clouds/dsp/fx/fx_engine.h ****     inline void Write(D& d, int32_t offset, float scale) {
 172:./mi-custom/clouds/dsp/fx/fx_engine.h ****       STATIC_ASSERT(D::base + D::length <= size, delay_memory_full);
 173:./mi-custom/clouds/dsp/fx/fx_engine.h ****       T w = DataType<format>::Compress(accumulator_);
 174:./mi-custom/clouds/dsp/fx/fx_engine.h ****       if (offset == -1) {
 175:./mi-custom/clouds/dsp/fx/fx_engine.h ****         buffer_[(write_ptr_ + D::base + D::length - 1) & MASK] = w;
 176:./mi-custom/clouds/dsp/fx/fx_engine.h ****       } else {
 177:./mi-custom/clouds/dsp/fx/fx_engine.h ****         buffer_[(write_ptr_ + D::base + offset) & MASK] = w;
 178:./mi-custom/clouds/dsp/fx/fx_engine.h ****       }
 179:./mi-custom/clouds/dsp/fx/fx_engine.h ****       accumulator_ *= scale;
 180:./mi-custom/clouds/dsp/fx/fx_engine.h ****     }
 181:./mi-custom/clouds/dsp/fx/fx_engine.h ****     
 182:./mi-custom/clouds/dsp/fx/fx_engine.h ****     template<typename D>
 183:./mi-custom/clouds/dsp/fx/fx_engine.h ****     inline void Write(D& d, float scale) {
 184:./mi-custom/clouds/dsp/fx/fx_engine.h ****       Write(d, 0, scale);
 185:./mi-custom/clouds/dsp/fx/fx_engine.h ****     }
 186:./mi-custom/clouds/dsp/fx/fx_engine.h **** 
 187:./mi-custom/clouds/dsp/fx/fx_engine.h ****     template<typename D>
 188:./mi-custom/clouds/dsp/fx/fx_engine.h ****     inline void WriteAllPass(D& d, int32_t offset, float scale) {
 189:./mi-custom/clouds/dsp/fx/fx_engine.h ****       Write(d, offset, scale);
 190:./mi-custom/clouds/dsp/fx/fx_engine.h ****       accumulator_ += previous_read_;
 191:./mi-custom/clouds/dsp/fx/fx_engine.h ****     }
 192:./mi-custom/clouds/dsp/fx/fx_engine.h ****     
 193:./mi-custom/clouds/dsp/fx/fx_engine.h ****     template<typename D>
 194:./mi-custom/clouds/dsp/fx/fx_engine.h ****     inline void WriteAllPass(D& d, float scale) {
 195:./mi-custom/clouds/dsp/fx/fx_engine.h ****       WriteAllPass(d, 0, scale);
 196:./mi-custom/clouds/dsp/fx/fx_engine.h ****     }
 197:./mi-custom/clouds/dsp/fx/fx_engine.h ****     
 198:./mi-custom/clouds/dsp/fx/fx_engine.h ****     template<typename D>
 199:./mi-custom/clouds/dsp/fx/fx_engine.h ****     inline void Read(D& d, int32_t offset, float scale) {
 200:./mi-custom/clouds/dsp/fx/fx_engine.h ****       STATIC_ASSERT(D::base + D::length <= size, delay_memory_full);
 201:./mi-custom/clouds/dsp/fx/fx_engine.h ****       T r;
 202:./mi-custom/clouds/dsp/fx/fx_engine.h ****       if (offset == -1) {
 203:./mi-custom/clouds/dsp/fx/fx_engine.h ****         r = buffer_[(write_ptr_ + D::base + D::length - 1) & MASK];
 204:./mi-custom/clouds/dsp/fx/fx_engine.h ****       } else {
 205:./mi-custom/clouds/dsp/fx/fx_engine.h ****         r = buffer_[(write_ptr_ + D::base + offset) & MASK];
 206:./mi-custom/clouds/dsp/fx/fx_engine.h ****       }
 207:./mi-custom/clouds/dsp/fx/fx_engine.h ****       float r_f = DataType<format>::Decompress(r);
 208:./mi-custom/clouds/dsp/fx/fx_engine.h ****       previous_read_ = r_f;
 209:./mi-custom/clouds/dsp/fx/fx_engine.h ****       accumulator_ += r_f * scale;
 210:./mi-custom/clouds/dsp/fx/fx_engine.h ****     }
 211:./mi-custom/clouds/dsp/fx/fx_engine.h ****     
 212:./mi-custom/clouds/dsp/fx/fx_engine.h ****     template<typename D>
 213:./mi-custom/clouds/dsp/fx/fx_engine.h ****     inline void Read(D& d, float scale) {
 214:./mi-custom/clouds/dsp/fx/fx_engine.h ****       Read(d, 0, scale);
 215:./mi-custom/clouds/dsp/fx/fx_engine.h ****     }
 216:./mi-custom/clouds/dsp/fx/fx_engine.h ****     
 217:./mi-custom/clouds/dsp/fx/fx_engine.h ****     inline void Lp(float& state, float coefficient) {
ARM GAS  C:\Users\pedro\AppData\Local\Temp\cce24yZj.s 			page 29


 218:./mi-custom/clouds/dsp/fx/fx_engine.h ****       state += coefficient * (accumulator_ - state);
 219:./mi-custom/clouds/dsp/fx/fx_engine.h ****       accumulator_ = state;
 220:./mi-custom/clouds/dsp/fx/fx_engine.h ****     }
 221:./mi-custom/clouds/dsp/fx/fx_engine.h **** 
 222:./mi-custom/clouds/dsp/fx/fx_engine.h ****     inline void Hp(float& state, float coefficient) {
 223:./mi-custom/clouds/dsp/fx/fx_engine.h ****       state += coefficient * (accumulator_ - state);
 224:./mi-custom/clouds/dsp/fx/fx_engine.h ****       accumulator_ -= state;
 225:./mi-custom/clouds/dsp/fx/fx_engine.h ****     }
 226:./mi-custom/clouds/dsp/fx/fx_engine.h ****     
 227:./mi-custom/clouds/dsp/fx/fx_engine.h ****     template<typename D>
 228:./mi-custom/clouds/dsp/fx/fx_engine.h ****     inline void Interpolate(D& d, float offset, float scale) {
 229:./mi-custom/clouds/dsp/fx/fx_engine.h ****       STATIC_ASSERT(D::base + D::length <= size, delay_memory_full);
 230:./mi-custom/clouds/dsp/fx/fx_engine.h ****       MAKE_INTEGRAL_FRACTIONAL(offset);
 274              		.loc 10 230 7 view .LVU69
 275 003e FDEEE37A 		vcvt.s32.f32	s15, s7
 276 0042 541E     		subs	r4, r2, #1
 277              	.LVL14:
 278              		.loc 10 230 7 view .LVU70
 279 0044 01F1080E 		add	lr, r1, #8
 280 0048 17EE905A 		vmov	r5, s15	@ int
 281 004c F8EEE77A 		vcvt.f32.s32	s15, s15
 282              	.LBE803:
 283              	.LBE802:
 284              	.LBB837:
 285              	.LBB838:
 231:./mi-custom/clouds/dsp/fx/fx_engine.h ****       float a = DataType<format>::Decompress(
 232:./mi-custom/clouds/dsp/fx/fx_engine.h ****           buffer_[(write_ptr_ + offset_integral + D::base) & MASK]);
 233:./mi-custom/clouds/dsp/fx/fx_engine.h ****       float b = DataType<format>::Decompress(
 234:./mi-custom/clouds/dsp/fx/fx_engine.h ****           buffer_[(write_ptr_ + offset_integral + D::base + 1) & MASK]);
 235:./mi-custom/clouds/dsp/fx/fx_engine.h ****       float x = a + (b - a) * offset_fractional;
 236:./mi-custom/clouds/dsp/fx/fx_engine.h ****       previous_read_ = x;
 237:./mi-custom/clouds/dsp/fx/fx_engine.h ****       accumulator_ += x * scale;
 238:./mi-custom/clouds/dsp/fx/fx_engine.h ****     }
 239:./mi-custom/clouds/dsp/fx/fx_engine.h ****     
 240:./mi-custom/clouds/dsp/fx/fx_engine.h ****     template<typename D>
 241:./mi-custom/clouds/dsp/fx/fx_engine.h ****     inline void Interpolate(
 242:./mi-custom/clouds/dsp/fx/fx_engine.h ****         D& d, float offset, LFOIndex index, float amplitude, float scale) {
 243:./mi-custom/clouds/dsp/fx/fx_engine.h ****       STATIC_ASSERT(D::base + D::length <= size, delay_memory_full);
 244:./mi-custom/clouds/dsp/fx/fx_engine.h ****       offset += amplitude * lfo_value_[index];
 245:./mi-custom/clouds/dsp/fx/fx_engine.h ****       MAKE_INTEGRAL_FRACTIONAL(offset);
 246:./mi-custom/clouds/dsp/fx/fx_engine.h ****       float a = DataType<format>::Decompress(
 247:./mi-custom/clouds/dsp/fx/fx_engine.h ****           buffer_[(write_ptr_ + offset_integral + D::base) & MASK]);
 248:./mi-custom/clouds/dsp/fx/fx_engine.h ****       float b = DataType<format>::Decompress(
 249:./mi-custom/clouds/dsp/fx/fx_engine.h ****           buffer_[(write_ptr_ + offset_integral + D::base + 1) & MASK]);
 250:./mi-custom/clouds/dsp/fx/fx_engine.h ****       float x = a + (b - a) * offset_fractional;
 251:./mi-custom/clouds/dsp/fx/fx_engine.h ****       previous_read_ = x;
 252:./mi-custom/clouds/dsp/fx/fx_engine.h ****       accumulator_ += x * scale;
 253:./mi-custom/clouds/dsp/fx/fx_engine.h ****     }
 254:./mi-custom/clouds/dsp/fx/fx_engine.h ****     
 255:./mi-custom/clouds/dsp/fx/fx_engine.h ****    private:
 256:./mi-custom/clouds/dsp/fx/fx_engine.h ****     float accumulator_;
 257:./mi-custom/clouds/dsp/fx/fx_engine.h ****     float previous_read_;
 258:./mi-custom/clouds/dsp/fx/fx_engine.h ****     float lfo_value_[2];
 259:./mi-custom/clouds/dsp/fx/fx_engine.h ****     T* buffer_;
 260:./mi-custom/clouds/dsp/fx/fx_engine.h ****     int32_t write_ptr_;
 261:./mi-custom/clouds/dsp/fx/fx_engine.h **** 
 262:./mi-custom/clouds/dsp/fx/fx_engine.h ****     DISALLOW_COPY_AND_ASSIGN(Context);
ARM GAS  C:\Users\pedro\AppData\Local\Temp\cce24yZj.s 			page 30


 263:./mi-custom/clouds/dsp/fx/fx_engine.h ****   };
 264:./mi-custom/clouds/dsp/fx/fx_engine.h ****   
 265:./mi-custom/clouds/dsp/fx/fx_engine.h ****   inline void SetLFOFrequency(LFOIndex index, float frequency) {
 266:./mi-custom/clouds/dsp/fx/fx_engine.h ****     lfo_[index].template Init<stmlib::COSINE_OSCILLATOR_APPROXIMATE>(
 267:./mi-custom/clouds/dsp/fx/fx_engine.h ****         frequency * 32.0f);
 268:./mi-custom/clouds/dsp/fx/fx_engine.h ****   }
 269:./mi-custom/clouds/dsp/fx/fx_engine.h ****   
 270:./mi-custom/clouds/dsp/fx/fx_engine.h ****   inline void Start(Context* c) {
 271:./mi-custom/clouds/dsp/fx/fx_engine.h ****     --write_ptr_;
 272:./mi-custom/clouds/dsp/fx/fx_engine.h ****     if (write_ptr_ < 0) {
 273:./mi-custom/clouds/dsp/fx/fx_engine.h ****       write_ptr_ += size;
 274:./mi-custom/clouds/dsp/fx/fx_engine.h ****     }
 275:./mi-custom/clouds/dsp/fx/fx_engine.h ****     c->accumulator_ = 0.0f;
 276:./mi-custom/clouds/dsp/fx/fx_engine.h ****     c->previous_read_ = 0.0f;
 277:./mi-custom/clouds/dsp/fx/fx_engine.h ****     c->buffer_ = buffer_;
 286              		.loc 10 277 18 view .LVU71
 287 0050 D0E90032 		ldrd	r3, r2, [r0]
 288              	.LBE838:
 289              	.LBE837:
 290              	.LBB867:
 291              	.LBB822:
 230:./mi-custom/clouds/dsp/fx/fx_engine.h ****       float a = DataType<format>::Decompress(
 292              		.loc 10 230 7 view .LVU72
 293 0054 73EEE73A 		vsub.f32	s7, s7, s15
 294              	.LBE822:
 295              	.LBE867:
 296              	.LBE1476:
  52:./mi-custom/clouds/dsp/fx/voxverb.h ****     // This is the Griesinger topology described in the Dattorro paper
 297              		.loc 9 52 8 view .LVU73
 298 0058 2DED088B 		vpush.64	{d8, d9, d10, d11}
 299              		.cfi_def_cfa_offset 68
 300              		.cfi_offset 80, -68
 301              		.cfi_offset 81, -64
 302              		.cfi_offset 82, -60
 303              		.cfi_offset 83, -56
 304              		.cfi_offset 84, -52
 305              		.cfi_offset 85, -48
 306              		.cfi_offset 86, -44
 307              		.cfi_offset 87, -40
 308 005c E1E1     		b	.L12
 309              	.LVL15:
 310              	.L22:
 311              	.LBB1477:
 312              	.LBB868:
 313              	.LBB863:
 314              	.LBB839:
 315              	.LBI839:
 270:./mi-custom/clouds/dsp/fx/fx_engine.h ****     --write_ptr_;
 316              		.loc 10 270 15 is_stmt 1 view .LVU74
 317              	.LBB840:
 318              	.LBB841:
 319              	.LBI841:
 320              		.file 13 "./mi-custom/stmlib/dsp/cosine_oscillator.h"
   1:./mi-custom/stmlib/dsp/cosine_oscillator.h **** // Copyright 2014 Emilie Gillet.
   2:./mi-custom/stmlib/dsp/cosine_oscillator.h **** //
   3:./mi-custom/stmlib/dsp/cosine_oscillator.h **** // Author: Emilie Gillet (emilie.o.gillet@gmail.com)
   4:./mi-custom/stmlib/dsp/cosine_oscillator.h **** //
ARM GAS  C:\Users\pedro\AppData\Local\Temp\cce24yZj.s 			page 31


   5:./mi-custom/stmlib/dsp/cosine_oscillator.h **** // Permission is hereby granted, free of charge, to any person obtaining a copy
   6:./mi-custom/stmlib/dsp/cosine_oscillator.h **** // of this software and associated documentation files (the "Software"), to deal
   7:./mi-custom/stmlib/dsp/cosine_oscillator.h **** // in the Software without restriction, including without limitation the rights
   8:./mi-custom/stmlib/dsp/cosine_oscillator.h **** // to use, copy, modify, merge, publish, distribute, sublicense, and/or sell
   9:./mi-custom/stmlib/dsp/cosine_oscillator.h **** // copies of the Software, and to permit persons to whom the Software is
  10:./mi-custom/stmlib/dsp/cosine_oscillator.h **** // furnished to do so, subject to the following conditions:
  11:./mi-custom/stmlib/dsp/cosine_oscillator.h **** // 
  12:./mi-custom/stmlib/dsp/cosine_oscillator.h **** // The above copyright notice and this permission notice shall be included in
  13:./mi-custom/stmlib/dsp/cosine_oscillator.h **** // all copies or substantial portions of the Software.
  14:./mi-custom/stmlib/dsp/cosine_oscillator.h **** // 
  15:./mi-custom/stmlib/dsp/cosine_oscillator.h **** // THE SOFTWARE IS PROVIDED "AS IS", WITHOUT WARRANTY OF ANY KIND, EXPRESS OR
  16:./mi-custom/stmlib/dsp/cosine_oscillator.h **** // IMPLIED, INCLUDING BUT NOT LIMITED TO THE WARRANTIES OF MERCHANTABILITY,
  17:./mi-custom/stmlib/dsp/cosine_oscillator.h **** // FITNESS FOR A PARTICULAR PURPOSE AND NONINFRINGEMENT. IN NO EVENT SHALL THE
  18:./mi-custom/stmlib/dsp/cosine_oscillator.h **** // AUTHORS OR COPYRIGHT HOLDERS BE LIABLE FOR ANY CLAIM, DAMAGES OR OTHER
  19:./mi-custom/stmlib/dsp/cosine_oscillator.h **** // LIABILITY, WHETHER IN AN ACTION OF CONTRACT, TORT OR OTHERWISE, ARISING FROM,
  20:./mi-custom/stmlib/dsp/cosine_oscillator.h **** // OUT OF OR IN CONNECTION WITH THE SOFTWARE OR THE USE OR OTHER DEALINGS IN
  21:./mi-custom/stmlib/dsp/cosine_oscillator.h **** // THE SOFTWARE.
  22:./mi-custom/stmlib/dsp/cosine_oscillator.h **** // 
  23:./mi-custom/stmlib/dsp/cosine_oscillator.h **** // See http://creativecommons.org/licenses/MIT/ for more information.
  24:./mi-custom/stmlib/dsp/cosine_oscillator.h **** //
  25:./mi-custom/stmlib/dsp/cosine_oscillator.h **** // -----------------------------------------------------------------------------
  26:./mi-custom/stmlib/dsp/cosine_oscillator.h **** //
  27:./mi-custom/stmlib/dsp/cosine_oscillator.h **** // Cosine oscillator. Generates a cosine between 0.0 and 1.0 with minimal
  28:./mi-custom/stmlib/dsp/cosine_oscillator.h **** // CPU use.
  29:./mi-custom/stmlib/dsp/cosine_oscillator.h **** 
  30:./mi-custom/stmlib/dsp/cosine_oscillator.h **** #ifndef STMLIB_DSP_COSINE_OSCILLATOR_H_
  31:./mi-custom/stmlib/dsp/cosine_oscillator.h **** #define STMLIB_DSP_COSINE_OSCILLATOR_H_
  32:./mi-custom/stmlib/dsp/cosine_oscillator.h **** 
  33:./mi-custom/stmlib/dsp/cosine_oscillator.h **** #include "stmlib/stmlib.h"
  34:./mi-custom/stmlib/dsp/cosine_oscillator.h **** 
  35:./mi-custom/stmlib/dsp/cosine_oscillator.h **** #include <cmath>
  36:./mi-custom/stmlib/dsp/cosine_oscillator.h **** 
  37:./mi-custom/stmlib/dsp/cosine_oscillator.h **** namespace stmlib {
  38:./mi-custom/stmlib/dsp/cosine_oscillator.h **** 
  39:./mi-custom/stmlib/dsp/cosine_oscillator.h **** enum CosineOscillatorMode {
  40:./mi-custom/stmlib/dsp/cosine_oscillator.h ****   COSINE_OSCILLATOR_APPROXIMATE,
  41:./mi-custom/stmlib/dsp/cosine_oscillator.h ****   COSINE_OSCILLATOR_EXACT
  42:./mi-custom/stmlib/dsp/cosine_oscillator.h **** };
  43:./mi-custom/stmlib/dsp/cosine_oscillator.h **** 
  44:./mi-custom/stmlib/dsp/cosine_oscillator.h **** class CosineOscillator {
  45:./mi-custom/stmlib/dsp/cosine_oscillator.h ****  public:
  46:./mi-custom/stmlib/dsp/cosine_oscillator.h ****   CosineOscillator() { }
  47:./mi-custom/stmlib/dsp/cosine_oscillator.h ****   ~CosineOscillator() { }
  48:./mi-custom/stmlib/dsp/cosine_oscillator.h **** 
  49:./mi-custom/stmlib/dsp/cosine_oscillator.h ****   template<CosineOscillatorMode mode>
  50:./mi-custom/stmlib/dsp/cosine_oscillator.h ****   inline void Init(float frequency) {
  51:./mi-custom/stmlib/dsp/cosine_oscillator.h ****     if (mode == COSINE_OSCILLATOR_APPROXIMATE) {
  52:./mi-custom/stmlib/dsp/cosine_oscillator.h ****       InitApproximate(frequency);
  53:./mi-custom/stmlib/dsp/cosine_oscillator.h ****     } else {
  54:./mi-custom/stmlib/dsp/cosine_oscillator.h ****       iir_coefficient_ = 2.0f * cosf(2.0f * M_PI * frequency);
  55:./mi-custom/stmlib/dsp/cosine_oscillator.h ****       initial_amplitude_ = iir_coefficient_ * 0.25f;
  56:./mi-custom/stmlib/dsp/cosine_oscillator.h ****     }
  57:./mi-custom/stmlib/dsp/cosine_oscillator.h ****     Start();
  58:./mi-custom/stmlib/dsp/cosine_oscillator.h ****   }
  59:./mi-custom/stmlib/dsp/cosine_oscillator.h ****   
  60:./mi-custom/stmlib/dsp/cosine_oscillator.h ****   inline void InitApproximate(float frequency) {
  61:./mi-custom/stmlib/dsp/cosine_oscillator.h ****     float sign = 16.0f;
ARM GAS  C:\Users\pedro\AppData\Local\Temp\cce24yZj.s 			page 32


  62:./mi-custom/stmlib/dsp/cosine_oscillator.h ****     frequency -= 0.25f;
  63:./mi-custom/stmlib/dsp/cosine_oscillator.h ****     if (frequency < 0.0f) {
  64:./mi-custom/stmlib/dsp/cosine_oscillator.h ****       frequency = -frequency;
  65:./mi-custom/stmlib/dsp/cosine_oscillator.h ****     } else {
  66:./mi-custom/stmlib/dsp/cosine_oscillator.h ****       if (frequency > 0.5f) {
  67:./mi-custom/stmlib/dsp/cosine_oscillator.h ****         frequency -= 0.5f;
  68:./mi-custom/stmlib/dsp/cosine_oscillator.h ****       } else {
  69:./mi-custom/stmlib/dsp/cosine_oscillator.h ****         sign = -16.0f;
  70:./mi-custom/stmlib/dsp/cosine_oscillator.h ****       }
  71:./mi-custom/stmlib/dsp/cosine_oscillator.h ****     }
  72:./mi-custom/stmlib/dsp/cosine_oscillator.h ****     iir_coefficient_ = sign * frequency * (1.0f - 2.0f * frequency);
  73:./mi-custom/stmlib/dsp/cosine_oscillator.h ****     initial_amplitude_ = iir_coefficient_ * 0.25f;
  74:./mi-custom/stmlib/dsp/cosine_oscillator.h ****   }
  75:./mi-custom/stmlib/dsp/cosine_oscillator.h ****   
  76:./mi-custom/stmlib/dsp/cosine_oscillator.h ****   inline void Start() {
  77:./mi-custom/stmlib/dsp/cosine_oscillator.h ****     y1_ = initial_amplitude_;
  78:./mi-custom/stmlib/dsp/cosine_oscillator.h ****     y0_ = 0.5f;
  79:./mi-custom/stmlib/dsp/cosine_oscillator.h ****   }
  80:./mi-custom/stmlib/dsp/cosine_oscillator.h ****   
  81:./mi-custom/stmlib/dsp/cosine_oscillator.h ****   inline float value() const {
  82:./mi-custom/stmlib/dsp/cosine_oscillator.h ****     return y1_ + 0.5f;
  83:./mi-custom/stmlib/dsp/cosine_oscillator.h ****   }
  84:./mi-custom/stmlib/dsp/cosine_oscillator.h **** 
  85:./mi-custom/stmlib/dsp/cosine_oscillator.h ****   inline float Next() {
 321              		.loc 13 85 16 view .LVU75
 322              	.LBB842:
  86:./mi-custom/stmlib/dsp/cosine_oscillator.h ****     float temp = y0_;
 323              		.loc 13 86 5 view .LVU76
 324              		.loc 13 86 11 is_stmt 0 view .LVU77
 325 005e D0ED036A 		vldr.32	s13, [r0, #12]
 326              	.LVL16:
  87:./mi-custom/stmlib/dsp/cosine_oscillator.h ****     y0_ = iir_coefficient_ * y0_ - y1_;
 327              		.loc 13 87 5 is_stmt 1 view .LVU78
  88:./mi-custom/stmlib/dsp/cosine_oscillator.h ****     y1_ = temp;
  89:./mi-custom/stmlib/dsp/cosine_oscillator.h ****     return temp + 0.5f;
 328              		.loc 13 89 19 is_stmt 0 view .LVU79
 329 0062 B6EE000A 		vmov.f32	s0, #5.0e-1
 330              	.LBE842:
 331              	.LBE841:
 332              	.LBB847:
 333              	.LBB848:
  86:./mi-custom/stmlib/dsp/cosine_oscillator.h ****     y0_ = iir_coefficient_ * y0_ - y1_;
 334              		.loc 13 86 11 view .LVU80
 335 0066 90ED075A 		vldr.32	s10, [r0, #28]
 336              	.LBE848:
 337              	.LBE847:
 338              	.LBB853:
 339              	.LBB843:
  87:./mi-custom/stmlib/dsp/cosine_oscillator.h ****     y0_ = iir_coefficient_ * y0_ - y1_;
 340              		.loc 13 87 34 view .LVU81
 341 006a 90ED027A 		vldr.32	s14, [r0, #8]
 342              	.LBE843:
 343              	.LBE853:
 344              	.LBB854:
 345              	.LBB849:
 346 006e D0ED067A 		vldr.32	s15, [r0, #24]
 347              	.LBE849:
ARM GAS  C:\Users\pedro\AppData\Local\Temp\cce24yZj.s 			page 33


 348              	.LBE854:
 349              	.LBB855:
 350              	.LBB844:
 351 0072 D0ED048A 		vldr.32	s17, [r0, #16]
 352              	.LBE844:
 353              	.LBE855:
 354              	.LBB856:
 355              	.LBB850:
 356 0076 90ED088A 		vldr.32	s16, [r0, #32]
 357              	.LBE850:
 358              	.LBE856:
 359              	.LBB857:
 360              	.LBB845:
 361 007a 96EEA87A 		vfnms.f32	s14, s13, s17
  88:./mi-custom/stmlib/dsp/cosine_oscillator.h ****     y1_ = temp;
 362              		.loc 13 88 9 view .LVU82
 363 007e C0ED026A 		vstr.32	s13, [r0, #8]
 364              	.LBE845:
 365              	.LBE857:
 366              	.LBB858:
 367              	.LBB851:
  87:./mi-custom/stmlib/dsp/cosine_oscillator.h ****     y0_ = iir_coefficient_ * y0_ - y1_;
 368              		.loc 13 87 34 view .LVU83
 369 0082 D5EE087A 		vfnms.f32	s15, s10, s16
  88:./mi-custom/stmlib/dsp/cosine_oscillator.h ****     y1_ = temp;
 370              		.loc 13 88 9 view .LVU84
 371 0086 80ED065A 		vstr.32	s10, [r0, #24]
 372              	.LBE851:
 373              	.LBE858:
 374              	.LBB859:
 375              	.LBB846:
 376              		.loc 13 89 19 view .LVU85
 377 008a 76EE806A 		vadd.f32	s13, s13, s0
 378              	.LVL17:
  87:./mi-custom/stmlib/dsp/cosine_oscillator.h ****     y0_ = iir_coefficient_ * y0_ - y1_;
 379              		.loc 13 87 9 view .LVU86
 380 008e 80ED037A 		vstr.32	s14, [r0, #12]
 381              	.LVL18:
  88:./mi-custom/stmlib/dsp/cosine_oscillator.h ****     y1_ = temp;
 382              		.loc 13 88 5 is_stmt 1 view .LVU87
 383              		.loc 13 89 5 view .LVU88
 384              		.loc 13 89 5 is_stmt 0 view .LVU89
 385              	.LBE846:
 386              	.LBE859:
 387              	.LBB860:
 388              	.LBI847:
  85:./mi-custom/stmlib/dsp/cosine_oscillator.h ****     float temp = y0_;
 389              		.loc 13 85 16 is_stmt 1 view .LVU90
 390              	.LBB852:
  86:./mi-custom/stmlib/dsp/cosine_oscillator.h ****     y0_ = iir_coefficient_ * y0_ - y1_;
 391              		.loc 13 86 5 view .LVU91
  87:./mi-custom/stmlib/dsp/cosine_oscillator.h ****     y1_ = temp;
 392              		.loc 13 87 5 view .LVU92
  87:./mi-custom/stmlib/dsp/cosine_oscillator.h ****     y1_ = temp;
 393              		.loc 13 87 9 is_stmt 0 view .LVU93
 394 0092 C0ED077A 		vstr.32	s15, [r0, #28]
  88:./mi-custom/stmlib/dsp/cosine_oscillator.h ****     return temp + 0.5f;
ARM GAS  C:\Users\pedro\AppData\Local\Temp\cce24yZj.s 			page 34


 395              		.loc 13 88 5 is_stmt 1 view .LVU94
 396              		.loc 13 89 5 view .LVU95
 397              	.LVL19:
 398              	.L11:
 399              		.loc 13 89 5 is_stmt 0 view .LVU96
 400              	.LBE852:
 401              	.LBE860:
 402              	.LBE840:
 403              	.LBE839:
 404              	.LBE863:
 405              	.LBE868:
  97:./mi-custom/clouds/dsp/fx/voxverb.h ****       c.Write(ap1, 100, 0.0f);
 406              		.loc 9 97 7 is_stmt 1 view .LVU97
 407              	.LBB869:
 408              	.LBI869:
 241:./mi-custom/clouds/dsp/fx/fx_engine.h ****         D& d, float offset, LFOIndex index, float amplitude, float scale) {
 409              		.loc 10 241 17 view .LVU98
 410              	.LBB870:
 244:./mi-custom/clouds/dsp/fx/fx_engine.h ****       MAKE_INTEGRAL_FRACTIONAL(offset);
 411              		.loc 10 244 14 is_stmt 0 view .LVU99
 412 0096 B2EE047A 		vmov.f32	s14, #1.0e+1
 413 009a 9FEDF20A 		vldr.32	s0, .L23
 414              	.LBE870:
 415              	.LBE869:
 100:./mi-custom/clouds/dsp/fx/voxverb.h **** 
 416              		.loc 9 100 22 view .LVU100
 417 009e 1EED028A 		vldr.32	s16, [lr, #-8]
 418              	.LBB891:
 419              	.LBB892:
 177:./mi-custom/clouds/dsp/fx/fx_engine.h ****       }
 420              		.loc 10 177 39 view .LVU101
 421 00a2 03F16409 		add	r9, r3, #100
 422              	.LBE892:
 423              	.LBE891:
 100:./mi-custom/clouds/dsp/fx/voxverb.h **** 
 424              		.loc 9 100 34 view .LVU102
 425 00a6 1EED015A 		vldr.32	s10, [lr, #-4]
 426              	.LBB904:
 427              	.LBB905:
 203:./mi-custom/clouds/dsp/fx/fx_engine.h ****       } else {
 428              		.loc 10 203 55 view .LVU103
 429 00aa 03F17001 		add	r1, r3, #112
 430              	.LBE905:
 431              	.LBE904:
 432              	.LBB922:
 433              	.LBB887:
 244:./mi-custom/clouds/dsp/fx/fx_engine.h ****       MAKE_INTEGRAL_FRACTIONAL(offset);
 434              		.loc 10 244 14 view .LVU104
 435 00ae A6EE807A 		vfma.f32	s14, s13, s0
 436              	.LVL20:
 437              	.LBB871:
 438              	.LBB872:
  62:./mi-custom/clouds/dsp/fx/fx_engine.h ****   }
 439              		.loc 10 62 62 view .LVU105
 440 00b2 DFEDED7A 		vldr.32	s15, .L23+4
 441              	.LBE872:
 442              	.LBE871:
ARM GAS  C:\Users\pedro\AppData\Local\Temp\cce24yZj.s 			page 35


 443              	.LBE887:
 444              	.LBE922:
 100:./mi-custom/clouds/dsp/fx/voxverb.h **** 
 445              		.loc 9 100 13 view .LVU106
 446 00b6 78EE056A 		vadd.f32	s13, s16, s10
 447              	.LVL21:
 448              	.LBB923:
 449              	.LBB888:
 252:./mi-custom/clouds/dsp/fx/fx_engine.h ****     }
 450              		.loc 10 252 20 view .LVU107
 451 00ba DFEDEC8A 		vldr.32	s17, .L23+8
 452              	.LBE888:
 453              	.LBE923:
 454              	.LBB924:
 455              	.LBB901:
 177:./mi-custom/clouds/dsp/fx/fx_engine.h ****       }
 456              		.loc 10 177 49 view .LVU108
 457 00be C9F30D09 		ubfx	r9, r9, #0, #14
 458              	.LBE901:
 459              	.LBE924:
 460              	.LBB925:
 461              	.LBB916:
 203:./mi-custom/clouds/dsp/fx/fx_engine.h ****       } else {
 462              		.loc 10 203 60 view .LVU109
 463 00c2 C1F30D01 		ubfx	r1, r1, #0, #14
 464              	.LBE916:
 465              	.LBE925:
 466              	.LBB926:
 467              	.LBB927:
 203:./mi-custom/clouds/dsp/fx/fx_engine.h ****       } else {
 468              		.loc 10 203 55 view .LVU110
 469 00c6 03F21316 		addw	r6, r3, #275
 470              	.LBE927:
 471              	.LBE926:
 472              	.LBB941:
 473              	.LBB942:
 474              	.LBB943:
 475              	.LBB944:
 476              	.LBB945:
 177:./mi-custom/clouds/dsp/fx/fx_engine.h ****       }
 477              		.loc 10 177 49 view .LVU111
 478 00ca C8F30D08 		ubfx	r8, r8, #0, #14
 479              	.LBE945:
 480              	.LBE944:
 481              	.LBE943:
 482              	.LBE942:
 483              	.LBE941:
 484              	.LBB964:
 485              	.LBB965:
 154:./mi-custom/clouds/dsp/fx/fx_engine.h ****     }
 486              		.loc 10 154 29 view .LVU112
 487 00ce 26EE810A 		vmul.f32	s0, s13, s2
 488              	.LBE965:
 489              	.LBE964:
 490              	.LBB968:
 491              	.LBB969:
 492              	.LBB970:
ARM GAS  C:\Users\pedro\AppData\Local\Temp\cce24yZj.s 			page 36


 493              	.LBB971:
 494              	.LBB972:
 177:./mi-custom/clouds/dsp/fx/fx_engine.h ****       }
 495              		.loc 10 177 29 view .LVU113
 496 00d2 03F1720C 		add	ip, r3, #114
 497              	.LBE972:
 498              	.LBE971:
 499              	.LBE970:
 500              	.LBE969:
 501              	.LBE968:
 502              	.LBB991:
 503              	.LBB936:
 203:./mi-custom/clouds/dsp/fx/fx_engine.h ****       } else {
 504              		.loc 10 203 60 view .LVU114
 505 00d6 C6F30D06 		ubfx	r6, r6, #0, #14
 506              	.LBE936:
 507              	.LBE991:
 508              	.LBB992:
 509              	.LBB993:
 203:./mi-custom/clouds/dsp/fx/fx_engine.h ****       } else {
 510              		.loc 10 203 55 view .LVU115
 511 00da 03F20527 		addw	r7, r3, #517
 512              	.LBE993:
 513              	.LBE992:
 514              	.LBB1008:
 515              	.LBB889:
 245:./mi-custom/clouds/dsp/fx/fx_engine.h ****       float a = DataType<format>::Decompress(
 516              		.loc 10 245 7 view .LVU116
 517 00de FDEEC76A 		vcvt.s32.f32	s13, s14
 518              	.LVL22:
 245:./mi-custom/clouds/dsp/fx/fx_engine.h ****       float a = DataType<format>::Decompress(
 519              		.loc 10 245 7 view .LVU117
 520              	.LBE889:
 521              	.LBE1008:
 522              	.LBB1009:
 523              	.LBB989:
 524              	.LBB987:
 525              	.LBB984:
 526              	.LBB981:
 177:./mi-custom/clouds/dsp/fx/fx_engine.h ****       }
 527              		.loc 10 177 49 view .LVU118
 528 00e2 CCF30D0C 		ubfx	ip, ip, #0, #14
 529              	.LBE981:
 530              	.LBE984:
 531              	.LBE987:
 532              	.LBE989:
 533              	.LBE1009:
 534              	.LBB1010:
 535              	.LBB1002:
 203:./mi-custom/clouds/dsp/fx/fx_engine.h ****       } else {
 536              		.loc 10 203 60 view .LVU119
 537 00e6 C7F30D07 		ubfx	r7, r7, #0, #14
 538              	.LBE1002:
 539              	.LBE1010:
 117:./mi-custom/clouds/dsp/fx/voxverb.h ****       c.Lp(lp_1, klp);
 118:./mi-custom/clouds/dsp/fx/voxverb.h ****       c.Hp(hp_1, khp);
 119:./mi-custom/clouds/dsp/fx/voxverb.h ****       c.Read(dap1a TAIL, -kap);
ARM GAS  C:\Users\pedro\AppData\Local\Temp\cce24yZj.s 			page 37


 120:./mi-custom/clouds/dsp/fx/voxverb.h ****       c.WriteAllPass(dap1a, kap);
 121:./mi-custom/clouds/dsp/fx/voxverb.h ****       c.Read(dap1b TAIL, kap);
 122:./mi-custom/clouds/dsp/fx/voxverb.h ****       c.WriteAllPass(dap1b, -kap);
 123:./mi-custom/clouds/dsp/fx/voxverb.h ****       c.Write(del1, 2.0f);
 124:./mi-custom/clouds/dsp/fx/voxverb.h ****       c.Write(wet, 0.0f);
 125:./mi-custom/clouds/dsp/fx/voxverb.h **** 
 126:./mi-custom/clouds/dsp/fx/voxverb.h ****       in_out->l += (wet - in_out->l) * amount;
 540              		.loc 9 126 25 view .LVU120
 541 00ea B0EE48BA 		vmov.f32	s22, s16
 542              	.LBE1477:
  91:./mi-custom/clouds/dsp/fx/voxverb.h ****       float wet;
 543              		.loc 9 91 16 view .LVU121
 544 00ee 0EF1080E 		add	lr, lr, #8
 545              	.LVL23:
  91:./mi-custom/clouds/dsp/fx/voxverb.h ****       float wet;
 546              		.loc 9 91 16 view .LVU122
 547 00f2 013C     		subs	r4, r4, #1
 548              	.LVL24:
 549              	.LBB1478:
 550              	.LBB1011:
 551              	.LBB890:
 247:./mi-custom/clouds/dsp/fx/fx_engine.h ****       float b = DataType<format>::Decompress(
 552              		.loc 10 247 31 view .LVU123
 553 00f4 16EE90AA 		vmov	r10, s13	@ int
 245:./mi-custom/clouds/dsp/fx/fx_engine.h ****       float a = DataType<format>::Decompress(
 554              		.loc 10 245 7 view .LVU124
 555 00f8 F8EEE66A 		vcvt.f32.s32	s13, s13
 556              	.LVL25:
 247:./mi-custom/clouds/dsp/fx/fx_engine.h ****       float b = DataType<format>::Decompress(
 557              		.loc 10 247 31 view .LVU125
 558 00fc 03EB0A0B 		add	fp, r3, r10
 245:./mi-custom/clouds/dsp/fx/fx_engine.h ****       float a = DataType<format>::Decompress(
 559              		.loc 10 245 7 view .LVU126
 560 0100 77EE666A 		vsub.f32	s13, s14, s13
 561              	.LVL26:
 562              	.LBB876:
 563              	.LBI876:
  61:./mi-custom/clouds/dsp/fx/fx_engine.h ****     return static_cast<float>(static_cast<int16_t>(value)) / 4096.0f;
 564              		.loc 10 61 23 is_stmt 1 view .LVU127
 565              	.LBB877:
  62:./mi-custom/clouds/dsp/fx/fx_engine.h ****   }
 566              		.loc 10 62 5 view .LVU128
 567              	.LBE877:
 568              	.LBE876:
 249:./mi-custom/clouds/dsp/fx/fx_engine.h ****       float x = a + (b - a) * offset_fractional;
 569              		.loc 10 249 59 is_stmt 0 view .LVU129
 570 0104 0BF1010A 		add	r10, fp, #1
 571              	.LVL27:
 247:./mi-custom/clouds/dsp/fx/fx_engine.h ****       float b = DataType<format>::Decompress(
 572              		.loc 10 247 60 view .LVU130
 573 0108 CBF30D0B 		ubfx	fp, fp, #0, #14
 574              	.LVL28:
 249:./mi-custom/clouds/dsp/fx/fx_engine.h ****       float x = a + (b - a) * offset_fractional;
 575              		.loc 10 249 64 view .LVU131
 576 010c CAF30D0A 		ubfx	r10, r10, #0, #14
 577              	.LVL29:
 578              	.LBB881:
ARM GAS  C:\Users\pedro\AppData\Local\Temp\cce24yZj.s 			page 38


 579              	.LBB878:
  62:./mi-custom/clouds/dsp/fx/fx_engine.h ****   }
 580              		.loc 10 62 12 view .LVU132
 581 0110 32F91BB0 		ldrsh	fp, [r2, fp, lsl #1]
 582              	.LBE878:
 583              	.LBE881:
 584              	.LBB882:
 585              	.LBB873:
 586 0114 32F91AA0 		ldrsh	r10, [r2, r10, lsl #1]
 587              	.LBE873:
 588              	.LBE882:
 589              	.LBB883:
 590              	.LBB879:
 591 0118 09EE10BA 		vmov	s18, fp	@ int
 592              	.LBE879:
 593              	.LBE883:
 594              	.LBB884:
 595              	.LBB874:
 596 011c 07EE10AA 		vmov	s14, r10	@ int
 597              	.LVL30:
  62:./mi-custom/clouds/dsp/fx/fx_engine.h ****   }
 598              		.loc 10 62 12 view .LVU133
 599              	.LBE874:
 600              	.LBE884:
 601              	.LBB885:
 602              	.LBB880:
 603 0120 B8EEC99A 		vcvt.f32.s32	s18, s18
 604              	.LVL31:
  62:./mi-custom/clouds/dsp/fx/fx_engine.h ****   }
 605              		.loc 10 62 12 view .LVU134
 606              	.LBE880:
 607              	.LBE885:
 608              	.LBB886:
 609              	.LBI871:
  61:./mi-custom/clouds/dsp/fx/fx_engine.h ****     return static_cast<float>(static_cast<int16_t>(value)) / 4096.0f;
 610              		.loc 10 61 23 is_stmt 1 view .LVU135
 611              	.LBB875:
  62:./mi-custom/clouds/dsp/fx/fx_engine.h ****   }
 612              		.loc 10 62 5 view .LVU136
  62:./mi-custom/clouds/dsp/fx/fx_engine.h ****   }
 613              		.loc 10 62 12 is_stmt 0 view .LVU137
 614 0124 B8EEC77A 		vcvt.f32.s32	s14, s14
  62:./mi-custom/clouds/dsp/fx/fx_engine.h ****   }
 615              		.loc 10 62 62 view .LVU138
 616 0128 27EE277A 		vmul.f32	s14, s14, s15
 617              	.LBE875:
 618              	.LBE886:
 250:./mi-custom/clouds/dsp/fx/fx_engine.h ****       previous_read_ = x;
 619              		.loc 10 250 24 view .LVU139
 620 012c A9EE677A 		vfms.f32	s14, s18, s15
 250:./mi-custom/clouds/dsp/fx/fx_engine.h ****       previous_read_ = x;
 621              		.loc 10 250 29 view .LVU140
 622 0130 26EE877A 		vmul.f32	s14, s13, s14
 250:./mi-custom/clouds/dsp/fx/fx_engine.h ****       previous_read_ = x;
 623              		.loc 10 250 13 view .LVU141
 624 0134 A9EE277A 		vfma.f32	s14, s18, s15
 625              	.LVL32:
ARM GAS  C:\Users\pedro\AppData\Local\Temp\cce24yZj.s 			page 39


 252:./mi-custom/clouds/dsp/fx/fx_engine.h ****     }
 626              		.loc 10 252 20 view .LVU142
 627 0138 37EE287A 		vadd.f32	s14, s14, s17
 628              	.LVL33:
 252:./mi-custom/clouds/dsp/fx/fx_engine.h ****     }
 629              		.loc 10 252 20 view .LVU143
 630              	.LBE890:
 631              	.LBE1011:
  98:./mi-custom/clouds/dsp/fx/voxverb.h ****       
 632              		.loc 9 98 7 is_stmt 1 view .LVU144
 633              	.LBB1012:
 634              	.LBI891:
 171:./mi-custom/clouds/dsp/fx/fx_engine.h ****       STATIC_ASSERT(D::base + D::length <= size, delay_memory_full);
 635              		.loc 10 171 17 view .LVU145
 636              	.LBB902:
 637              	.LBB893:
 638              	.LBI893:
  65:./mi-custom/clouds/dsp/fx/fx_engine.h ****     return static_cast<uint16_t>(
 639              		.loc 10 65 19 view .LVU146
 640              	.LBB894:
  66:./mi-custom/clouds/dsp/fx/fx_engine.h ****         stmlib::Clip16(static_cast<int32_t>(value * 4096.0f)));
 641              		.loc 10 66 5 view .LVU147
 642              	.LBB895:
 643              	.LBI895:
 644              		.file 14 "./mi-custom/stmlib/dsp/dsp.h"
   1:./mi-custom/stmlib/dsp/dsp.h **** // Copyright 2012 Emilie Gillet.
   2:./mi-custom/stmlib/dsp/dsp.h **** //
   3:./mi-custom/stmlib/dsp/dsp.h **** // Author: Emilie Gillet (emilie.o.gillet@gmail.com)
   4:./mi-custom/stmlib/dsp/dsp.h **** //
   5:./mi-custom/stmlib/dsp/dsp.h **** // Permission is hereby granted, free of charge, to any person obtaining a copy
   6:./mi-custom/stmlib/dsp/dsp.h **** // of this software and associated documentation files (the "Software"), to deal
   7:./mi-custom/stmlib/dsp/dsp.h **** // in the Software without restriction, including without limitation the rights
   8:./mi-custom/stmlib/dsp/dsp.h **** // to use, copy, modify, merge, publish, distribute, sublicense, and/or sell
   9:./mi-custom/stmlib/dsp/dsp.h **** // copies of the Software, and to permit persons to whom the Software is
  10:./mi-custom/stmlib/dsp/dsp.h **** // furnished to do so, subject to the following conditions:
  11:./mi-custom/stmlib/dsp/dsp.h **** // 
  12:./mi-custom/stmlib/dsp/dsp.h **** // The above copyright notice and this permission notice shall be included in
  13:./mi-custom/stmlib/dsp/dsp.h **** // all copies or substantial portions of the Software.
  14:./mi-custom/stmlib/dsp/dsp.h **** // 
  15:./mi-custom/stmlib/dsp/dsp.h **** // THE SOFTWARE IS PROVIDED "AS IS", WITHOUT WARRANTY OF ANY KIND, EXPRESS OR
  16:./mi-custom/stmlib/dsp/dsp.h **** // IMPLIED, INCLUDING BUT NOT LIMITED TO THE WARRANTIES OF MERCHANTABILITY,
  17:./mi-custom/stmlib/dsp/dsp.h **** // FITNESS FOR A PARTICULAR PURPOSE AND NONINFRINGEMENT. IN NO EVENT SHALL THE
  18:./mi-custom/stmlib/dsp/dsp.h **** // AUTHORS OR COPYRIGHT HOLDERS BE LIABLE FOR ANY CLAIM, DAMAGES OR OTHER
  19:./mi-custom/stmlib/dsp/dsp.h **** // LIABILITY, WHETHER IN AN ACTION OF CONTRACT, TORT OR OTHERWISE, ARISING FROM,
  20:./mi-custom/stmlib/dsp/dsp.h **** // OUT OF OR IN CONNECTION WITH THE SOFTWARE OR THE USE OR OTHER DEALINGS IN
  21:./mi-custom/stmlib/dsp/dsp.h **** // THE SOFTWARE.
  22:./mi-custom/stmlib/dsp/dsp.h **** // 
  23:./mi-custom/stmlib/dsp/dsp.h **** // See http://creativecommons.org/licenses/MIT/ for more information.
  24:./mi-custom/stmlib/dsp/dsp.h **** //
  25:./mi-custom/stmlib/dsp/dsp.h **** // -----------------------------------------------------------------------------
  26:./mi-custom/stmlib/dsp/dsp.h **** //
  27:./mi-custom/stmlib/dsp/dsp.h **** // DSP utility routines.
  28:./mi-custom/stmlib/dsp/dsp.h **** 
  29:./mi-custom/stmlib/dsp/dsp.h **** #ifndef STMLIB_UTILS_DSP_DSP_H_
  30:./mi-custom/stmlib/dsp/dsp.h **** #define STMLIB_UTILS_DSP_DSP_H_
  31:./mi-custom/stmlib/dsp/dsp.h **** 
  32:./mi-custom/stmlib/dsp/dsp.h **** #include "stmlib/stmlib.h"
ARM GAS  C:\Users\pedro\AppData\Local\Temp\cce24yZj.s 			page 40


  33:./mi-custom/stmlib/dsp/dsp.h **** 
  34:./mi-custom/stmlib/dsp/dsp.h **** #include <cmath>
  35:./mi-custom/stmlib/dsp/dsp.h **** #include <math.h>
  36:./mi-custom/stmlib/dsp/dsp.h **** 
  37:./mi-custom/stmlib/dsp/dsp.h **** namespace stmlib {
  38:./mi-custom/stmlib/dsp/dsp.h **** 
  39:./mi-custom/stmlib/dsp/dsp.h **** #define MAKE_INTEGRAL_FRACTIONAL(x) \
  40:./mi-custom/stmlib/dsp/dsp.h ****   int32_t x ## _integral = static_cast<int32_t>(x); \
  41:./mi-custom/stmlib/dsp/dsp.h ****   float x ## _fractional = x - static_cast<float>(x ## _integral);
  42:./mi-custom/stmlib/dsp/dsp.h **** 
  43:./mi-custom/stmlib/dsp/dsp.h **** inline float Interpolate(const float* table, float index, float size) {
  44:./mi-custom/stmlib/dsp/dsp.h ****   index *= size;
  45:./mi-custom/stmlib/dsp/dsp.h ****   MAKE_INTEGRAL_FRACTIONAL(index)
  46:./mi-custom/stmlib/dsp/dsp.h ****   float a = table[index_integral];
  47:./mi-custom/stmlib/dsp/dsp.h ****   float b = table[index_integral + 1];
  48:./mi-custom/stmlib/dsp/dsp.h ****   return a + (b - a) * index_fractional;
  49:./mi-custom/stmlib/dsp/dsp.h **** }
  50:./mi-custom/stmlib/dsp/dsp.h **** 
  51:./mi-custom/stmlib/dsp/dsp.h **** 
  52:./mi-custom/stmlib/dsp/dsp.h **** inline float InterpolateHermite(const float* table, float index, float size) {
  53:./mi-custom/stmlib/dsp/dsp.h ****   index *= size;
  54:./mi-custom/stmlib/dsp/dsp.h ****   MAKE_INTEGRAL_FRACTIONAL(index)
  55:./mi-custom/stmlib/dsp/dsp.h ****   const float xm1 = table[index_integral - 1];
  56:./mi-custom/stmlib/dsp/dsp.h ****   const float x0 = table[index_integral + 0];
  57:./mi-custom/stmlib/dsp/dsp.h ****   const float x1 = table[index_integral + 1];
  58:./mi-custom/stmlib/dsp/dsp.h ****   const float x2 = table[index_integral + 2];
  59:./mi-custom/stmlib/dsp/dsp.h ****   const float c = (x1 - xm1) * 0.5f;
  60:./mi-custom/stmlib/dsp/dsp.h ****   const float v = x0 - x1;
  61:./mi-custom/stmlib/dsp/dsp.h ****   const float w = c + v;
  62:./mi-custom/stmlib/dsp/dsp.h ****   const float a = w + v + (x2 - x0) * 0.5f;
  63:./mi-custom/stmlib/dsp/dsp.h ****   const float b_neg = w + a;
  64:./mi-custom/stmlib/dsp/dsp.h ****   const float f = index_fractional;
  65:./mi-custom/stmlib/dsp/dsp.h ****   return (((a * f) - b_neg) * f + c) * f + x0;
  66:./mi-custom/stmlib/dsp/dsp.h **** }
  67:./mi-custom/stmlib/dsp/dsp.h **** 
  68:./mi-custom/stmlib/dsp/dsp.h **** inline float InterpolateWrap(const float* table, float index, float size) {
  69:./mi-custom/stmlib/dsp/dsp.h ****   index -= static_cast<float>(static_cast<int32_t>(index));
  70:./mi-custom/stmlib/dsp/dsp.h ****   index *= size;
  71:./mi-custom/stmlib/dsp/dsp.h ****   MAKE_INTEGRAL_FRACTIONAL(index)
  72:./mi-custom/stmlib/dsp/dsp.h ****   float a = table[index_integral];
  73:./mi-custom/stmlib/dsp/dsp.h ****   float b = table[index_integral + 1];
  74:./mi-custom/stmlib/dsp/dsp.h ****   return a + (b - a) * index_fractional;
  75:./mi-custom/stmlib/dsp/dsp.h **** }
  76:./mi-custom/stmlib/dsp/dsp.h **** 
  77:./mi-custom/stmlib/dsp/dsp.h **** #define ONE_POLE(out, in, coefficient) out += (coefficient) * ((in) - out);
  78:./mi-custom/stmlib/dsp/dsp.h **** #define SLOPE(out, in, positive, negative) { \
  79:./mi-custom/stmlib/dsp/dsp.h ****   float error = (in) - out; \
  80:./mi-custom/stmlib/dsp/dsp.h ****   out += (error > 0 ? positive : negative) * error; \
  81:./mi-custom/stmlib/dsp/dsp.h **** }
  82:./mi-custom/stmlib/dsp/dsp.h **** #define SLEW(out, in, delta) { \
  83:./mi-custom/stmlib/dsp/dsp.h ****   float error = (in) - out; \
  84:./mi-custom/stmlib/dsp/dsp.h ****   float d = (delta); \
  85:./mi-custom/stmlib/dsp/dsp.h ****   if (error > d) { \
  86:./mi-custom/stmlib/dsp/dsp.h ****     error = d; \
  87:./mi-custom/stmlib/dsp/dsp.h ****   } else if (error < -d) { \
  88:./mi-custom/stmlib/dsp/dsp.h ****     error = -d; \
  89:./mi-custom/stmlib/dsp/dsp.h ****   } \
ARM GAS  C:\Users\pedro\AppData\Local\Temp\cce24yZj.s 			page 41


  90:./mi-custom/stmlib/dsp/dsp.h ****   out += error; \
  91:./mi-custom/stmlib/dsp/dsp.h **** }
  92:./mi-custom/stmlib/dsp/dsp.h **** 
  93:./mi-custom/stmlib/dsp/dsp.h **** inline float Crossfade(float a, float b, float fade) {
  94:./mi-custom/stmlib/dsp/dsp.h ****   return a + (b - a) * fade;
  95:./mi-custom/stmlib/dsp/dsp.h **** }
  96:./mi-custom/stmlib/dsp/dsp.h **** 
  97:./mi-custom/stmlib/dsp/dsp.h **** inline float SoftLimit(float x) {
  98:./mi-custom/stmlib/dsp/dsp.h ****   return x * (27.0f + x * x) / (27.0f + 9.0f * x * x);
  99:./mi-custom/stmlib/dsp/dsp.h **** }
 100:./mi-custom/stmlib/dsp/dsp.h **** 
 101:./mi-custom/stmlib/dsp/dsp.h **** inline float SoftClip(float x) {
 102:./mi-custom/stmlib/dsp/dsp.h ****   if (x < -3.0f) {
 103:./mi-custom/stmlib/dsp/dsp.h ****     return -1.0f;
 104:./mi-custom/stmlib/dsp/dsp.h ****   } else if (x > 3.0f) {
 105:./mi-custom/stmlib/dsp/dsp.h ****     return 1.0f;
 106:./mi-custom/stmlib/dsp/dsp.h ****   } else {
 107:./mi-custom/stmlib/dsp/dsp.h ****     return SoftLimit(x);
 108:./mi-custom/stmlib/dsp/dsp.h ****   }
 109:./mi-custom/stmlib/dsp/dsp.h **** }
 110:./mi-custom/stmlib/dsp/dsp.h **** 
 111:./mi-custom/stmlib/dsp/dsp.h **** #ifdef TEST
 112:./mi-custom/stmlib/dsp/dsp.h ****   inline int32_t Clip16(int32_t x) {
 113:./mi-custom/stmlib/dsp/dsp.h ****     if (x < -32768) {
 114:./mi-custom/stmlib/dsp/dsp.h ****       return -32768;
 115:./mi-custom/stmlib/dsp/dsp.h ****     } else if (x > 32767) {
 116:./mi-custom/stmlib/dsp/dsp.h ****       return 32767;
 117:./mi-custom/stmlib/dsp/dsp.h ****     } else {
 118:./mi-custom/stmlib/dsp/dsp.h ****       return x;
 119:./mi-custom/stmlib/dsp/dsp.h ****     }
 120:./mi-custom/stmlib/dsp/dsp.h ****   }
 121:./mi-custom/stmlib/dsp/dsp.h ****   inline uint16_t ClipU16(int32_t x) {
 122:./mi-custom/stmlib/dsp/dsp.h ****     if (x < 0) {
 123:./mi-custom/stmlib/dsp/dsp.h ****       return 0;
 124:./mi-custom/stmlib/dsp/dsp.h ****     } else if (x > 65535) {
 125:./mi-custom/stmlib/dsp/dsp.h ****       return 65535;
 126:./mi-custom/stmlib/dsp/dsp.h ****     } else {
 127:./mi-custom/stmlib/dsp/dsp.h ****       return x;
 128:./mi-custom/stmlib/dsp/dsp.h ****     }
 129:./mi-custom/stmlib/dsp/dsp.h ****   }
 130:./mi-custom/stmlib/dsp/dsp.h **** #else
 131:./mi-custom/stmlib/dsp/dsp.h ****   inline int32_t Clip16(int32_t x) {
 645              		.loc 14 131 18 view .LVU148
 646              	.LBB896:
 132:./mi-custom/stmlib/dsp/dsp.h ****     int32_t result;
 647              		.loc 14 132 5 view .LVU149
 133:./mi-custom/stmlib/dsp/dsp.h ****     __asm ("ssat %0, %1, %2" : "=r" (result) :  "I" (16), "r" (x) );
 648              		.loc 14 133 5 view .LVU150
 649              	.LBE896:
 650              	.LBE895:
  67:./mi-custom/clouds/dsp/fx/fx_engine.h ****   }
 651              		.loc 10 67 23 is_stmt 0 view .LVU151
 652 013c F0EE476A 		vmov.f32	s13, s14
 653 0140 FEEECA6A 		vcvt.s32.f32	s13, s13, #12
 654 0144 16EE90AA 		vmov	r10, s13	@ int
 655              	.LBE894:
 656              	.LBE893:
ARM GAS  C:\Users\pedro\AppData\Local\Temp\cce24yZj.s 			page 42


 657              	.LBE902:
 658              	.LBE1012:
 659              	.LBB1013:
 660              	.LBB966:
 154:./mi-custom/clouds/dsp/fx/fx_engine.h ****     }
 661              		.loc 10 154 20 view .LVU152
 662 0148 F0EE406A 		vmov.f32	s13, s0
 663              	.LBE966:
 664              	.LBE1013:
 665              	.LBB1014:
 666              	.LBB903:
 667              	.LBB900:
 668              	.LBB899:
 669              	.LBB898:
 670              	.LBB897:
 671              		.loc 14 133 5 view .LVU153
 672              		.syntax unified
 673              	@ 133 "./mi-custom/stmlib/dsp/dsp.h" 1
 674 014c 0AF30F0A 		ssat r10, #16, r10
 675              	@ 0 "" 2
 676              	.LVL34:
 134:./mi-custom/stmlib/dsp/dsp.h ****     return result;
 677              		.loc 14 134 5 is_stmt 1 view .LVU154
 678              		.loc 14 134 5 is_stmt 0 view .LVU155
 679              		.thumb
 680              		.syntax unified
 681              	.LBE897:
 682              	.LBE898:
  67:./mi-custom/clouds/dsp/fx/fx_engine.h ****   }
 683              		.loc 10 67 62 view .LVU156
 684 0150 22F819A0 		strh	r10, [r2, r9, lsl #1]	@ movhi
 685              	.LVL35:
  67:./mi-custom/clouds/dsp/fx/fx_engine.h ****   }
 686              		.loc 10 67 62 view .LVU157
 687              	.LBE899:
 688              	.LBE900:
 689              	.LBE903:
 690              	.LBE1014:
 100:./mi-custom/clouds/dsp/fx/voxverb.h **** 
 691              		.loc 9 100 7 is_stmt 1 view .LVU158
 692              	.LBB1015:
 693              	.LBI964:
 153:./mi-custom/clouds/dsp/fx/fx_engine.h ****       accumulator_ += value * scale;
 694              		.loc 10 153 17 view .LVU159
 153:./mi-custom/clouds/dsp/fx/fx_engine.h ****       accumulator_ += value * scale;
 695              		.loc 10 153 17 is_stmt 0 view .LVU160
 696              	.LBE1015:
 103:./mi-custom/clouds/dsp/fx/voxverb.h ****       c.WriteAllPass(ap1, -kap);
 697              		.loc 9 103 7 is_stmt 1 view .LVU161
 698              	.LBB1016:
 699              	.LBI904:
 199:./mi-custom/clouds/dsp/fx/fx_engine.h ****       STATIC_ASSERT(D::base + D::length <= size, delay_memory_full);
 700              		.loc 10 199 17 view .LVU162
 701              	.LBB917:
 702              	.LBB906:
 703              	.LBI906:
  61:./mi-custom/clouds/dsp/fx/fx_engine.h ****     return static_cast<float>(static_cast<int16_t>(value)) / 4096.0f;
ARM GAS  C:\Users\pedro\AppData\Local\Temp\cce24yZj.s 			page 43


 704              		.loc 10 61 23 view .LVU163
 705              	.LBB907:
  62:./mi-custom/clouds/dsp/fx/fx_engine.h ****   }
 706              		.loc 10 62 5 view .LVU164
 707              	.LBE907:
 708              	.LBE906:
 709              	.LBE917:
 710              	.LBE1016:
 711              	.LBB1017:
 712              	.LBB1018:
 713              	.LBB1019:
 714              	.LBB1020:
 715              	.LBB1021:
 177:./mi-custom/clouds/dsp/fx/fx_engine.h ****       }
 716              		.loc 10 177 29 is_stmt 0 view .LVU165
 717 0154 03F21519 		addw	r9, r3, #277
 718              	.LBE1021:
 719              	.LBE1020:
 720              	.LBE1019:
 721              	.LBE1018:
 722              	.LBE1017:
 723              	.LBB1040:
 724              	.LBB918:
 725              	.LBB912:
 726              	.LBB908:
  62:./mi-custom/clouds/dsp/fx/fx_engine.h ****   }
 727              		.loc 10 62 12 view .LVU166
 728 0158 32F91110 		ldrsh	r1, [r2, r1, lsl #1]
 729              	.LBE908:
 730              	.LBE912:
 731              	.LBE918:
 732              	.LBE1040:
 733              	.LBB1041:
 734              	.LBB967:
 154:./mi-custom/clouds/dsp/fx/fx_engine.h ****     }
 735              		.loc 10 154 20 view .LVU167
 736 015c E7EE286A 		vfma.f32	s13, s14, s17
 737              	.LBE967:
 738              	.LBE1041:
 739              	.LBB1042:
 740              	.LBB1038:
 741              	.LBB1036:
 742              	.LBB1033:
 743              	.LBB1030:
 177:./mi-custom/clouds/dsp/fx/fx_engine.h ****       }
 744              		.loc 10 177 49 view .LVU168
 745 0160 C9F30D09 		ubfx	r9, r9, #0, #14
 746              	.LBE1030:
 747              	.LBE1033:
 748              	.LBE1036:
 749              	.LBE1038:
 750              	.LBE1042:
 751              		.loc 9 126 25 view .LVU169
 752 0164 B0EE000A 		vmov.f32	s0, #2.0e+0
 753              	.LBB1043:
 754              	.LBB919:
 755              	.LBB913:
ARM GAS  C:\Users\pedro\AppData\Local\Temp\cce24yZj.s 			page 44


 756              	.LBB909:
  62:./mi-custom/clouds/dsp/fx/fx_engine.h ****   }
 757              		.loc 10 62 12 view .LVU170
 758 0168 07EE101A 		vmov	s14, r1	@ int
 759              	.LBE909:
 760              	.LBE913:
 761              	.LBE919:
 762              	.LBE1043:
 763              	.LBB1044:
 764              	.LBB1045:
 203:./mi-custom/clouds/dsp/fx/fx_engine.h ****       } else {
 765              		.loc 10 203 55 view .LVU171
 766 016c 03F29531 		addw	r1, r3, #917
 767              	.LBE1045:
 768              	.LBE1044:
 769              	.LBB1062:
 770              	.LBB920:
 771              	.LBB914:
 772              	.LBB910:
  62:./mi-custom/clouds/dsp/fx/fx_engine.h ****   }
 773              		.loc 10 62 12 view .LVU172
 774 0170 B8EEC77A 		vcvt.f32.s32	s14, s14
 775              	.LBE910:
 776              	.LBE914:
 777              	.LBE920:
 778              	.LBE1062:
 779              	.LBB1063:
 780              	.LBB1056:
 203:./mi-custom/clouds/dsp/fx/fx_engine.h ****       } else {
 781              		.loc 10 203 60 view .LVU173
 782 0174 C1F30D01 		ubfx	r1, r1, #0, #14
 783              	.LBE1056:
 784              	.LBE1063:
 785              	.LBB1064:
 786              	.LBB921:
 787              	.LBB915:
 788              	.LBB911:
  62:./mi-custom/clouds/dsp/fx/fx_engine.h ****   }
 789              		.loc 10 62 62 view .LVU174
 790 0178 27EE277A 		vmul.f32	s14, s14, s15
 791              	.LVL36:
  62:./mi-custom/clouds/dsp/fx/fx_engine.h ****   }
 792              		.loc 10 62 62 view .LVU175
 793              	.LBE911:
 794              	.LBE915:
 209:./mi-custom/clouds/dsp/fx/fx_engine.h ****     }
 795              		.loc 10 209 20 view .LVU176
 796 017c E6EE076A 		vfma.f32	s13, s12, s14
 797              	.LVL37:
 209:./mi-custom/clouds/dsp/fx/fx_engine.h ****     }
 798              		.loc 10 209 20 view .LVU177
 799              	.LBE921:
 800              	.LBE1064:
 104:./mi-custom/clouds/dsp/fx/voxverb.h ****       c.Read(ap2 TAIL, kap);
 801              		.loc 9 104 7 is_stmt 1 view .LVU178
 802              	.LBB1065:
 803              	.LBI941:
ARM GAS  C:\Users\pedro\AppData\Local\Temp\cce24yZj.s 			page 45


 194:./mi-custom/clouds/dsp/fx/fx_engine.h ****       WriteAllPass(d, 0, scale);
 804              		.loc 10 194 17 view .LVU179
 805              	.LBB962:
 806              	.LBI942:
 188:./mi-custom/clouds/dsp/fx/fx_engine.h ****       Write(d, offset, scale);
 807              		.loc 10 188 17 view .LVU180
 808              	.LBB960:
 809              	.LBB957:
 810              	.LBI944:
 171:./mi-custom/clouds/dsp/fx/fx_engine.h ****       STATIC_ASSERT(D::base + D::length <= size, delay_memory_full);
 811              		.loc 10 171 17 view .LVU181
 812              	.LBB954:
 813              	.LBB946:
 814              	.LBI946:
  65:./mi-custom/clouds/dsp/fx/fx_engine.h ****     return static_cast<uint16_t>(
 815              		.loc 10 65 19 view .LVU182
 816              	.LBB947:
  66:./mi-custom/clouds/dsp/fx/fx_engine.h ****         stmlib::Clip16(static_cast<int32_t>(value * 4096.0f)));
 817              		.loc 10 66 5 view .LVU183
 818              	.LBB948:
 819              	.LBI948:
 131:./mi-custom/stmlib/dsp/dsp.h ****     int32_t result;
 820              		.loc 14 131 18 view .LVU184
 821              	.LBB949:
 132:./mi-custom/stmlib/dsp/dsp.h ****     __asm ("ssat %0, %1, %2" : "=r" (result) :  "I" (16), "r" (x) );
 822              		.loc 14 132 5 view .LVU185
 133:./mi-custom/stmlib/dsp/dsp.h ****     return result;
 823              		.loc 14 133 5 view .LVU186
 824              	.LBE949:
 825              	.LBE948:
  67:./mi-custom/clouds/dsp/fx/fx_engine.h ****   }
 826              		.loc 10 67 23 is_stmt 0 view .LVU187
 827 0180 B0EE669A 		vmov.f32	s18, s13
 828              	.LVL38:
  67:./mi-custom/clouds/dsp/fx/fx_engine.h ****   }
 829              		.loc 10 67 23 view .LVU188
 830              	.LBE947:
 831              	.LBE946:
 832              	.LBE954:
 833              	.LBE957:
 190:./mi-custom/clouds/dsp/fx/fx_engine.h ****     }
 834              		.loc 10 190 20 view .LVU189
 835 0184 A6EEA57A 		vfma.f32	s14, s13, s11
 836              	.LVL39:
 837              	.LBB958:
 838              	.LBB955:
 839              	.LBB953:
 840              	.LBB952:
  67:./mi-custom/clouds/dsp/fx/fx_engine.h ****   }
 841              		.loc 10 67 23 view .LVU190
 842 0188 BEEECA9A 		vcvt.s32.f32	s18, s18, #12
 843 018c 19EE10AA 		vmov	r10, s18	@ int
 844              	.LVL40:
 845              	.LBB951:
 846              	.LBB950:
 133:./mi-custom/stmlib/dsp/dsp.h ****     return result;
 847              		.loc 14 133 5 view .LVU191
ARM GAS  C:\Users\pedro\AppData\Local\Temp\cce24yZj.s 			page 46


 848              		.syntax unified
 849              	@ 133 "./mi-custom/stmlib/dsp/dsp.h" 1
 850 0190 0AF30F0A 		ssat r10, #16, r10
 851              	@ 0 "" 2
 852              	.LVL41:
 853              		.loc 14 134 5 is_stmt 1 view .LVU192
 854              		.loc 14 134 5 is_stmt 0 view .LVU193
 855              		.thumb
 856              		.syntax unified
 857              	.LBE950:
 858              	.LBE951:
  67:./mi-custom/clouds/dsp/fx/fx_engine.h ****   }
 859              		.loc 10 67 62 view .LVU194
 860 0194 22F818A0 		strh	r10, [r2, r8, lsl #1]	@ movhi
 861              	.LVL42:
  67:./mi-custom/clouds/dsp/fx/fx_engine.h ****   }
 862              		.loc 10 67 62 view .LVU195
 863              	.LBE952:
 864              	.LBE953:
 865              	.LBE955:
 866              	.LBE958:
 867              	.LBE960:
 868              	.LBE962:
 869              	.LBE1065:
 105:./mi-custom/clouds/dsp/fx/voxverb.h ****       c.WriteAllPass(ap2, -kap);
 870              		.loc 9 105 7 is_stmt 1 view .LVU196
 871              	.LBB1066:
 872              	.LBI926:
 199:./mi-custom/clouds/dsp/fx/fx_engine.h ****       STATIC_ASSERT(D::base + D::length <= size, delay_memory_full);
 873              		.loc 10 199 17 view .LVU197
 874              	.LBB937:
 875              	.LBB928:
 876              	.LBI928:
  61:./mi-custom/clouds/dsp/fx/fx_engine.h ****     return static_cast<float>(static_cast<int16_t>(value)) / 4096.0f;
 877              		.loc 10 61 23 view .LVU198
 878              	.LBB929:
  62:./mi-custom/clouds/dsp/fx/fx_engine.h ****   }
 879              		.loc 10 62 5 view .LVU199
 880              	.LBE929:
 881              	.LBE928:
 882              	.LBE937:
 883              	.LBE1066:
 884              	.LBB1067:
 885              	.LBB1068:
 886              	.LBB1069:
 887              	.LBB1070:
 888              	.LBB1071:
 177:./mi-custom/clouds/dsp/fx/fx_engine.h ****       }
 889              		.loc 10 177 29 is_stmt 0 view .LVU200
 890 0198 03F20728 		addw	r8, r3, #519
 891              	.LBE1071:
 892              	.LBE1070:
 893              	.LBE1069:
 894              	.LBE1068:
 895              	.LBE1067:
 896              	.LBB1090:
 897              	.LBB938:
ARM GAS  C:\Users\pedro\AppData\Local\Temp\cce24yZj.s 			page 47


 898              	.LBB933:
 899              	.LBB930:
  62:./mi-custom/clouds/dsp/fx/fx_engine.h ****   }
 900              		.loc 10 62 12 view .LVU201
 901 019c 32F91660 		ldrsh	r6, [r2, r6, lsl #1]
 902              	.LBE930:
 903              	.LBE933:
 904              	.LBE938:
 905              	.LBE1090:
 906              	.LBB1091:
 907              	.LBB1088:
 908              	.LBB1086:
 909              	.LBB1083:
 910              	.LBB1080:
 177:./mi-custom/clouds/dsp/fx/fx_engine.h ****       }
 911              		.loc 10 177 49 view .LVU202
 912 01a0 C8F30D08 		ubfx	r8, r8, #0, #14
 913              	.LBE1080:
 914              	.LBE1083:
 915              	.LBE1086:
 916              	.LBE1088:
 917              	.LBE1091:
 918              	.LBB1092:
 919              	.LBB939:
 920              	.LBB934:
 921              	.LBB931:
  62:./mi-custom/clouds/dsp/fx/fx_engine.h ****   }
 922              		.loc 10 62 12 view .LVU203
 923 01a4 06EE906A 		vmov	s13, r6	@ int
 924              	.LBE931:
 925              	.LBE934:
 926              	.LBE939:
 927              	.LBE1092:
 928              	.LBB1093:
 929              	.LBB823:
 232:./mi-custom/clouds/dsp/fx/fx_engine.h ****       float b = DataType<format>::Decompress(
 930              		.loc 10 232 31 view .LVU204
 931 01a8 5E19     		adds	r6, r3, r5
 932              	.LBE823:
 933              	.LBE1093:
 934              	.LBB1094:
 935              	.LBB940:
 936              	.LBB935:
 937              	.LBB932:
  62:./mi-custom/clouds/dsp/fx/fx_engine.h ****   }
 938              		.loc 10 62 12 view .LVU205
 939 01aa F8EEE66A 		vcvt.f32.s32	s13, s13
  62:./mi-custom/clouds/dsp/fx/fx_engine.h ****   }
 940              		.loc 10 62 62 view .LVU206
 941 01ae 66EEA76A 		vmul.f32	s13, s13, s15
 942              	.LVL43:
  62:./mi-custom/clouds/dsp/fx/fx_engine.h ****   }
 943              		.loc 10 62 62 view .LVU207
 944              	.LBE932:
 945              	.LBE935:
 209:./mi-custom/clouds/dsp/fx/fx_engine.h ****     }
 946              		.loc 10 209 20 view .LVU208
ARM GAS  C:\Users\pedro\AppData\Local\Temp\cce24yZj.s 			page 48


 947 01b2 A6EE267A 		vfma.f32	s14, s12, s13
 948              	.LVL44:
 209:./mi-custom/clouds/dsp/fx/fx_engine.h ****     }
 949              		.loc 10 209 20 view .LVU209
 950              	.LBE940:
 951              	.LBE1094:
 106:./mi-custom/clouds/dsp/fx/voxverb.h ****       c.Read(ap3 TAIL, kap);
 952              		.loc 9 106 7 is_stmt 1 view .LVU210
 953              	.LBB1095:
 954              	.LBI968:
 194:./mi-custom/clouds/dsp/fx/fx_engine.h ****       WriteAllPass(d, 0, scale);
 955              		.loc 10 194 17 view .LVU211
 956              	.LBB990:
 957              	.LBI969:
 188:./mi-custom/clouds/dsp/fx/fx_engine.h ****       Write(d, offset, scale);
 958              		.loc 10 188 17 view .LVU212
 959              	.LBB988:
 960              	.LBB985:
 961              	.LBI971:
 171:./mi-custom/clouds/dsp/fx/fx_engine.h ****       STATIC_ASSERT(D::base + D::length <= size, delay_memory_full);
 962              		.loc 10 171 17 view .LVU213
 963              	.LBB982:
 964              	.LBB973:
 965              	.LBI973:
  65:./mi-custom/clouds/dsp/fx/fx_engine.h ****     return static_cast<uint16_t>(
 966              		.loc 10 65 19 view .LVU214
 967              	.LBB974:
  66:./mi-custom/clouds/dsp/fx/fx_engine.h ****         stmlib::Clip16(static_cast<int32_t>(value * 4096.0f)));
 968              		.loc 10 66 5 view .LVU215
 969              	.LBB975:
 970              	.LBI975:
 131:./mi-custom/stmlib/dsp/dsp.h ****     int32_t result;
 971              		.loc 14 131 18 view .LVU216
 972              	.LBB976:
 132:./mi-custom/stmlib/dsp/dsp.h ****     __asm ("ssat %0, %1, %2" : "=r" (result) :  "I" (16), "r" (x) );
 973              		.loc 14 132 5 view .LVU217
 133:./mi-custom/stmlib/dsp/dsp.h ****     return result;
 974              		.loc 14 133 5 view .LVU218
 975              	.LBE976:
 976              	.LBE975:
  67:./mi-custom/clouds/dsp/fx/fx_engine.h ****   }
 977              		.loc 10 67 23 is_stmt 0 view .LVU219
 978 01b6 B0EE479A 		vmov.f32	s18, s14
 979              	.LBE974:
 980              	.LBE973:
 981              	.LBE982:
 982              	.LBE985:
 190:./mi-custom/clouds/dsp/fx/fx_engine.h ****     }
 983              		.loc 10 190 20 view .LVU220
 984 01ba E7EE256A 		vfma.f32	s13, s14, s11
 985              	.LVL45:
 986              	.LBB986:
 987              	.LBB983:
 988              	.LBB980:
 989              	.LBB979:
  67:./mi-custom/clouds/dsp/fx/fx_engine.h ****   }
 990              		.loc 10 67 23 view .LVU221
ARM GAS  C:\Users\pedro\AppData\Local\Temp\cce24yZj.s 			page 49


 991 01be BEEECA9A 		vcvt.s32.f32	s18, s18, #12
 992 01c2 19EE10AA 		vmov	r10, s18	@ int
 993              	.LVL46:
 994              	.LBB978:
 995              	.LBB977:
 133:./mi-custom/stmlib/dsp/dsp.h ****     return result;
 996              		.loc 14 133 5 view .LVU222
 997              		.syntax unified
 998              	@ 133 "./mi-custom/stmlib/dsp/dsp.h" 1
 999 01c6 0AF30F0A 		ssat r10, #16, r10
 1000              	@ 0 "" 2
 1001              	.LVL47:
 1002              		.loc 14 134 5 is_stmt 1 view .LVU223
 1003              		.loc 14 134 5 is_stmt 0 view .LVU224
 1004              		.thumb
 1005              		.syntax unified
 1006              	.LBE977:
 1007              	.LBE978:
  67:./mi-custom/clouds/dsp/fx/fx_engine.h ****   }
 1008              		.loc 10 67 62 view .LVU225
 1009 01ca 22F81CA0 		strh	r10, [r2, ip, lsl #1]	@ movhi
 1010              	.LVL48:
  67:./mi-custom/clouds/dsp/fx/fx_engine.h ****   }
 1011              		.loc 10 67 62 view .LVU226
 1012              	.LBE979:
 1013              	.LBE980:
 1014              	.LBE983:
 1015              	.LBE986:
 1016              	.LBE988:
 1017              	.LBE990:
 1018              	.LBE1095:
 107:./mi-custom/clouds/dsp/fx/voxverb.h ****       c.WriteAllPass(ap3, -kap);
 1019              		.loc 9 107 7 is_stmt 1 view .LVU227
 1020              	.LBB1096:
 1021              	.LBI992:
 199:./mi-custom/clouds/dsp/fx/fx_engine.h ****       STATIC_ASSERT(D::base + D::length <= size, delay_memory_full);
 1022              		.loc 10 199 17 view .LVU228
 1023              	.LBB1003:
 1024              	.LBB994:
 1025              	.LBI994:
  61:./mi-custom/clouds/dsp/fx/fx_engine.h ****     return static_cast<float>(static_cast<int16_t>(value)) / 4096.0f;
 1026              		.loc 10 61 23 view .LVU229
 1027              	.LBB995:
  62:./mi-custom/clouds/dsp/fx/fx_engine.h ****   }
 1028              		.loc 10 62 5 view .LVU230
 1029              	.LBE995:
 1030              	.LBE994:
 1031              	.LBE1003:
 1032              	.LBE1096:
 1033              	.LBB1097:
 1034              	.LBB824:
 232:./mi-custom/clouds/dsp/fx/fx_engine.h ****       float b = DataType<format>::Decompress(
 1035              		.loc 10 232 49 is_stmt 0 view .LVU231
 1036 01ce 42F6525C 		movw	ip, #11602
 1037              	.LBE824:
 1038              	.LBE1097:
 1039              	.LBB1098:
ARM GAS  C:\Users\pedro\AppData\Local\Temp\cce24yZj.s 			page 50


 1040              	.LBB1004:
 1041              	.LBB999:
 1042              	.LBB996:
  62:./mi-custom/clouds/dsp/fx/fx_engine.h ****   }
 1043              		.loc 10 62 12 view .LVU232
 1044 01d2 32F91770 		ldrsh	r7, [r2, r7, lsl #1]
 1045 01d6 07EE107A 		vmov	s14, r7	@ int
 1046              	.LBE996:
 1047              	.LBE999:
 1048              	.LBE1004:
 1049              	.LBE1098:
 1050              	.LBB1099:
 1051              	.LBB825:
 234:./mi-custom/clouds/dsp/fx/fx_engine.h ****       float x = a + (b - a) * offset_fractional;
 1052              		.loc 10 234 59 view .LVU233
 1053 01da 42F65357 		movw	r7, #11603
 1054              	.LBE825:
 1055              	.LBE1099:
 1056              	.LBB1100:
 1057              	.LBB1005:
 1058              	.LBB1000:
 1059              	.LBB997:
  62:./mi-custom/clouds/dsp/fx/fx_engine.h ****   }
 1060              		.loc 10 62 12 view .LVU234
 1061 01de B8EEC77A 		vcvt.f32.s32	s14, s14
 1062              	.LBE997:
 1063              	.LBE1000:
 1064              	.LBE1005:
 1065              	.LBE1100:
 1066              	.LBB1101:
 1067              	.LBB826:
 234:./mi-custom/clouds/dsp/fx/fx_engine.h ****       float x = a + (b - a) * offset_fractional;
 1068              		.loc 10 234 59 view .LVU235
 1069 01e2 3744     		add	r7, r7, r6
 232:./mi-custom/clouds/dsp/fx/fx_engine.h ****       float b = DataType<format>::Decompress(
 1070              		.loc 10 232 49 view .LVU236
 1071 01e4 6644     		add	r6, r6, ip
 1072              	.LBE826:
 1073              	.LBE1101:
 1074              	.LBB1102:
 1075              	.LBB1103:
 1076              	.LBB1104:
 177:./mi-custom/clouds/dsp/fx/fx_engine.h ****       }
 1077              		.loc 10 177 29 view .LVU237
 1078 01e6 9C44     		add	ip, ip, r3
 1079              	.LBE1104:
 1080              	.LBE1103:
 1081              	.LBE1102:
 1082              	.LBB1123:
 1083              	.LBB827:
 234:./mi-custom/clouds/dsp/fx/fx_engine.h ****       float x = a + (b - a) * offset_fractional;
 1084              		.loc 10 234 64 view .LVU238
 1085 01e8 C7F30D07 		ubfx	r7, r7, #0, #14
 1086              	.LBE827:
 1087              	.LBE1123:
 1088              	.LBB1124:
 1089              	.LBB1006:
ARM GAS  C:\Users\pedro\AppData\Local\Temp\cce24yZj.s 			page 51


 1090              	.LBB1001:
 1091              	.LBB998:
  62:./mi-custom/clouds/dsp/fx/fx_engine.h ****   }
 1092              		.loc 10 62 62 view .LVU239
 1093 01ec 27EE277A 		vmul.f32	s14, s14, s15
 1094              	.LVL49:
  62:./mi-custom/clouds/dsp/fx/fx_engine.h ****   }
 1095              		.loc 10 62 62 view .LVU240
 1096              	.LBE998:
 1097              	.LBE1001:
 1098              	.LBE1006:
 1099              	.LBE1124:
 1100              	.LBB1125:
 1101              	.LBB828:
 232:./mi-custom/clouds/dsp/fx/fx_engine.h ****       float b = DataType<format>::Decompress(
 1102              		.loc 10 232 60 view .LVU241
 1103 01f0 C6F30D06 		ubfx	r6, r6, #0, #14
 1104              	.LBE828:
 1105              	.LBE1125:
 1106              	.LBB1126:
 1107              	.LBB1119:
 1108              	.LBB1115:
 177:./mi-custom/clouds/dsp/fx/fx_engine.h ****       }
 1109              		.loc 10 177 49 view .LVU242
 1110 01f4 CCF30D0C 		ubfx	ip, ip, #0, #14
 1111              	.LBE1115:
 1112              	.LBE1119:
 1113              	.LBE1126:
 1114              	.LBB1127:
 1115              	.LBB1007:
 209:./mi-custom/clouds/dsp/fx/fx_engine.h ****     }
 1116              		.loc 10 209 20 view .LVU243
 1117 01f8 E6EE076A 		vfma.f32	s13, s12, s14
 1118              	.LVL50:
 209:./mi-custom/clouds/dsp/fx/fx_engine.h ****     }
 1119              		.loc 10 209 20 view .LVU244
 1120              	.LBE1007:
 1121              	.LBE1127:
 108:./mi-custom/clouds/dsp/fx/voxverb.h ****       c.Read(ap4 TAIL, kap);
 1122              		.loc 9 108 7 is_stmt 1 view .LVU245
 1123              	.LBB1128:
 1124              	.LBI1017:
 194:./mi-custom/clouds/dsp/fx/fx_engine.h ****       WriteAllPass(d, 0, scale);
 1125              		.loc 10 194 17 view .LVU246
 1126              	.LBB1039:
 1127              	.LBI1018:
 188:./mi-custom/clouds/dsp/fx/fx_engine.h ****       Write(d, offset, scale);
 1128              		.loc 10 188 17 view .LVU247
 1129              	.LBB1037:
 1130              	.LBB1034:
 1131              	.LBI1020:
 171:./mi-custom/clouds/dsp/fx/fx_engine.h ****       STATIC_ASSERT(D::base + D::length <= size, delay_memory_full);
 1132              		.loc 10 171 17 view .LVU248
 1133              	.LBB1031:
 1134              	.LBB1022:
 1135              	.LBI1022:
  65:./mi-custom/clouds/dsp/fx/fx_engine.h ****     return static_cast<uint16_t>(
ARM GAS  C:\Users\pedro\AppData\Local\Temp\cce24yZj.s 			page 52


 1136              		.loc 10 65 19 view .LVU249
 1137              	.LBB1023:
  66:./mi-custom/clouds/dsp/fx/fx_engine.h ****         stmlib::Clip16(static_cast<int32_t>(value * 4096.0f)));
 1138              		.loc 10 66 5 view .LVU250
 1139              	.LBB1024:
 1140              	.LBI1024:
 131:./mi-custom/stmlib/dsp/dsp.h ****     int32_t result;
 1141              		.loc 14 131 18 view .LVU251
 1142              	.LBB1025:
 132:./mi-custom/stmlib/dsp/dsp.h ****     __asm ("ssat %0, %1, %2" : "=r" (result) :  "I" (16), "r" (x) );
 1143              		.loc 14 132 5 view .LVU252
 133:./mi-custom/stmlib/dsp/dsp.h ****     return result;
 1144              		.loc 14 133 5 view .LVU253
 1145              	.LBE1025:
 1146              	.LBE1024:
  67:./mi-custom/clouds/dsp/fx/fx_engine.h ****   }
 1147              		.loc 10 67 23 is_stmt 0 view .LVU254
 1148 01fc B0EE669A 		vmov.f32	s18, s13
 1149              	.LBE1023:
 1150              	.LBE1022:
 1151              	.LBE1031:
 1152              	.LBE1034:
 190:./mi-custom/clouds/dsp/fx/fx_engine.h ****     }
 1153              		.loc 10 190 20 view .LVU255
 1154 0200 A6EEA57A 		vfma.f32	s14, s13, s11
 1155              	.LVL51:
 1156              	.LBB1035:
 1157              	.LBB1032:
 1158              	.LBB1029:
 1159              	.LBB1028:
  67:./mi-custom/clouds/dsp/fx/fx_engine.h ****   }
 1160              		.loc 10 67 23 view .LVU256
 1161 0204 BEEECA9A 		vcvt.s32.f32	s18, s18, #12
 1162 0208 19EE10AA 		vmov	r10, s18	@ int
 1163              	.LVL52:
 1164              	.LBB1027:
 1165              	.LBB1026:
 133:./mi-custom/stmlib/dsp/dsp.h ****     return result;
 1166              		.loc 14 133 5 view .LVU257
 1167              		.syntax unified
 1168              	@ 133 "./mi-custom/stmlib/dsp/dsp.h" 1
 1169 020c 0AF30F0A 		ssat r10, #16, r10
 1170              	@ 0 "" 2
 1171              	.LVL53:
 1172              		.loc 14 134 5 is_stmt 1 view .LVU258
 1173              		.loc 14 134 5 is_stmt 0 view .LVU259
 1174              		.thumb
 1175              		.syntax unified
 1176              	.LBE1026:
 1177              	.LBE1027:
  67:./mi-custom/clouds/dsp/fx/fx_engine.h ****   }
 1178              		.loc 10 67 62 view .LVU260
 1179 0210 22F819A0 		strh	r10, [r2, r9, lsl #1]	@ movhi
 1180              	.LVL54:
  67:./mi-custom/clouds/dsp/fx/fx_engine.h ****   }
 1181              		.loc 10 67 62 view .LVU261
 1182              	.LBE1028:
ARM GAS  C:\Users\pedro\AppData\Local\Temp\cce24yZj.s 			page 53


 1183              	.LBE1029:
 1184              	.LBE1032:
 1185              	.LBE1035:
 1186              	.LBE1037:
 1187              	.LBE1039:
 1188              	.LBE1128:
 109:./mi-custom/clouds/dsp/fx/voxverb.h ****       c.WriteAllPass(ap4, -kap);
 1189              		.loc 9 109 7 is_stmt 1 view .LVU262
 1190              	.LBB1129:
 1191              	.LBI1044:
 199:./mi-custom/clouds/dsp/fx/fx_engine.h ****       STATIC_ASSERT(D::base + D::length <= size, delay_memory_full);
 1192              		.loc 10 199 17 view .LVU263
 1193              	.LBB1057:
 1194              	.LBB1046:
 1195              	.LBI1046:
  61:./mi-custom/clouds/dsp/fx/fx_engine.h ****     return static_cast<float>(static_cast<int16_t>(value)) / 4096.0f;
 1196              		.loc 10 61 23 view .LVU264
 1197              	.LBB1047:
  62:./mi-custom/clouds/dsp/fx/fx_engine.h ****   }
 1198              		.loc 10 62 5 view .LVU265
 1199              	.LBE1047:
 1200              	.LBE1046:
 1201              	.LBE1057:
 1202              	.LBE1129:
 1203              	.LBB1130:
 1204              	.LBB1131:
 203:./mi-custom/clouds/dsp/fx/fx_engine.h ****       } else {
 1205              		.loc 10 203 55 is_stmt 0 view .LVU266
 1206 0214 03F60B29 		addw	r9, r3, #2571
 1207              	.LBE1131:
 1208              	.LBE1130:
 1209              	.LBB1149:
 1210              	.LBB1058:
 1211              	.LBB1052:
 1212              	.LBB1048:
  62:./mi-custom/clouds/dsp/fx/fx_engine.h ****   }
 1213              		.loc 10 62 12 view .LVU267
 1214 0218 32F91110 		ldrsh	r1, [r2, r1, lsl #1]
 1215              	.LBE1048:
 1216              	.LBE1052:
 1217              	.LBE1058:
 1218              	.LBE1149:
 1219              	.LBB1150:
 1220              	.LBB1142:
 203:./mi-custom/clouds/dsp/fx/fx_engine.h ****       } else {
 1221              		.loc 10 203 60 view .LVU268
 1222 021c C9F30D09 		ubfx	r9, r9, #0, #14
 1223              	.LBE1142:
 1224              	.LBE1150:
 1225              	.LBB1151:
 1226              	.LBB1059:
 1227              	.LBB1053:
 1228              	.LBB1049:
  62:./mi-custom/clouds/dsp/fx/fx_engine.h ****   }
 1229              		.loc 10 62 12 view .LVU269
 1230 0220 09EE101A 		vmov	s18, r1	@ int
 1231              	.LBE1049:
ARM GAS  C:\Users\pedro\AppData\Local\Temp\cce24yZj.s 			page 54


 1232              	.LBE1053:
 1233              	.LBE1059:
 1234              	.LBE1151:
 1235              	.LBB1152:
 1236              	.LBB1153:
 1237              	.LBB1154:
 1238              	.LBB1155:
 1239              	.LBB1156:
 177:./mi-custom/clouds/dsp/fx/fx_engine.h ****       }
 1240              		.loc 10 177 29 view .LVU270
 1241 0224 03F29731 		addw	r1, r3, #919
 1242              	.LBE1156:
 1243              	.LBE1155:
 1244              	.LBE1154:
 1245              	.LBE1153:
 1246              	.LBE1152:
 1247              	.LBB1175:
 1248              	.LBB1060:
 1249              	.LBB1054:
 1250              	.LBB1050:
  62:./mi-custom/clouds/dsp/fx/fx_engine.h ****   }
 1251              		.loc 10 62 12 view .LVU271
 1252 0228 B8EEC99A 		vcvt.f32.s32	s18, s18
 1253              	.LBE1050:
 1254              	.LBE1054:
 1255              	.LBE1060:
 1256              	.LBE1175:
 1257              	.LBB1176:
 1258              	.LBB1173:
 1259              	.LBB1171:
 1260              	.LBB1168:
 1261              	.LBB1165:
 177:./mi-custom/clouds/dsp/fx/fx_engine.h ****       }
 1262              		.loc 10 177 49 view .LVU272
 1263 022c C1F30D01 		ubfx	r1, r1, #0, #14
 1264              	.LBE1165:
 1265              	.LBE1168:
 1266              	.LBE1171:
 1267              	.LBE1173:
 1268              	.LBE1176:
 1269              	.LBB1177:
 1270              	.LBB1061:
 1271              	.LBB1055:
 1272              	.LBB1051:
  62:./mi-custom/clouds/dsp/fx/fx_engine.h ****   }
 1273              		.loc 10 62 62 view .LVU273
 1274 0230 29EE279A 		vmul.f32	s18, s18, s15
 1275              	.LVL55:
  62:./mi-custom/clouds/dsp/fx/fx_engine.h ****   }
 1276              		.loc 10 62 62 view .LVU274
 1277              	.LBE1051:
 1278              	.LBE1055:
 209:./mi-custom/clouds/dsp/fx/fx_engine.h ****     }
 1279              		.loc 10 209 20 view .LVU275
 1280 0234 A6EE097A 		vfma.f32	s14, s12, s18
 1281              	.LVL56:
 209:./mi-custom/clouds/dsp/fx/fx_engine.h ****     }
ARM GAS  C:\Users\pedro\AppData\Local\Temp\cce24yZj.s 			page 55


 1282              		.loc 10 209 20 view .LVU276
 1283              	.LBE1061:
 1284              	.LBE1177:
 110:./mi-custom/clouds/dsp/fx/voxverb.h ****       c.Write(apout); 
 1285              		.loc 9 110 7 is_stmt 1 view .LVU277
 1286              	.LBB1178:
 1287              	.LBI1067:
 194:./mi-custom/clouds/dsp/fx/fx_engine.h ****       WriteAllPass(d, 0, scale);
 1288              		.loc 10 194 17 view .LVU278
 1289              	.LBB1089:
 1290              	.LBI1068:
 188:./mi-custom/clouds/dsp/fx/fx_engine.h ****       Write(d, offset, scale);
 1291              		.loc 10 188 17 view .LVU279
 1292              	.LBB1087:
 1293              	.LBB1084:
 1294              	.LBI1070:
 171:./mi-custom/clouds/dsp/fx/fx_engine.h ****       STATIC_ASSERT(D::base + D::length <= size, delay_memory_full);
 1295              		.loc 10 171 17 view .LVU280
 1296              	.LBB1081:
 1297              	.LBB1072:
 1298              	.LBI1072:
  65:./mi-custom/clouds/dsp/fx/fx_engine.h ****     return static_cast<uint16_t>(
 1299              		.loc 10 65 19 view .LVU281
 1300              	.LBB1073:
  66:./mi-custom/clouds/dsp/fx/fx_engine.h ****         stmlib::Clip16(static_cast<int32_t>(value * 4096.0f)));
 1301              		.loc 10 66 5 view .LVU282
 1302              	.LBB1074:
 1303              	.LBI1074:
 131:./mi-custom/stmlib/dsp/dsp.h ****     int32_t result;
 1304              		.loc 14 131 18 view .LVU283
 1305              	.LBB1075:
 132:./mi-custom/stmlib/dsp/dsp.h ****     __asm ("ssat %0, %1, %2" : "=r" (result) :  "I" (16), "r" (x) );
 1306              		.loc 14 132 5 view .LVU284
 133:./mi-custom/stmlib/dsp/dsp.h ****     return result;
 1307              		.loc 14 133 5 view .LVU285
 1308              	.LBE1075:
 1309              	.LBE1074:
  67:./mi-custom/clouds/dsp/fx/fx_engine.h ****   }
 1310              		.loc 10 67 23 is_stmt 0 view .LVU286
 1311 0238 F0EE476A 		vmov.f32	s13, s14
 1312              	.LBE1073:
 1313              	.LBE1072:
 1314              	.LBE1081:
 1315              	.LBE1084:
 190:./mi-custom/clouds/dsp/fx/fx_engine.h ****     }
 1316              		.loc 10 190 20 view .LVU287
 1317 023c A7EE259A 		vfma.f32	s18, s14, s11
 1318              	.LVL57:
 1319              	.LBB1085:
 1320              	.LBB1082:
 1321              	.LBB1079:
 1322              	.LBB1078:
  67:./mi-custom/clouds/dsp/fx/fx_engine.h ****   }
 1323              		.loc 10 67 23 view .LVU288
 1324 0240 FEEECA6A 		vcvt.s32.f32	s13, s13, #12
 1325 0244 16EE90AA 		vmov	r10, s13	@ int
 1326              	.LVL58:
ARM GAS  C:\Users\pedro\AppData\Local\Temp\cce24yZj.s 			page 56


 1327              	.LBB1077:
 1328              	.LBB1076:
 133:./mi-custom/stmlib/dsp/dsp.h ****     return result;
 1329              		.loc 14 133 5 view .LVU289
 1330              		.syntax unified
 1331              	@ 133 "./mi-custom/stmlib/dsp/dsp.h" 1
 1332 0248 0AF30F0A 		ssat r10, #16, r10
 1333              	@ 0 "" 2
 1334              	.LVL59:
 1335              		.loc 14 134 5 is_stmt 1 view .LVU290
 1336              		.loc 14 134 5 is_stmt 0 view .LVU291
 1337              		.thumb
 1338              		.syntax unified
 1339              	.LBE1076:
 1340              	.LBE1077:
  67:./mi-custom/clouds/dsp/fx/fx_engine.h ****   }
 1341              		.loc 10 67 62 view .LVU292
 1342 024c 22F818A0 		strh	r10, [r2, r8, lsl #1]	@ movhi
 1343              	.LVL60:
  67:./mi-custom/clouds/dsp/fx/fx_engine.h ****   }
 1344              		.loc 10 67 62 view .LVU293
 1345              	.LBE1078:
 1346              	.LBE1079:
 1347              	.LBE1082:
 1348              	.LBE1085:
 1349              	.LBE1087:
 1350              	.LBE1089:
 1351              	.LBE1178:
 111:./mi-custom/clouds/dsp/fx/voxverb.h ****       
 1352              		.loc 9 111 7 is_stmt 1 view .LVU294
 114:./mi-custom/clouds/dsp/fx/voxverb.h ****       // c.Interpolate(del2, 4680.0f, LFO_2, 100.0f, krt);
 1353              		.loc 9 114 7 view .LVU295
 116:./mi-custom/clouds/dsp/fx/voxverb.h ****       c.Lp(lp_1, klp);
 1354              		.loc 9 116 7 view .LVU296
 1355              	.LBB1179:
 1356              	.LBI802:
 228:./mi-custom/clouds/dsp/fx/fx_engine.h ****       STATIC_ASSERT(D::base + D::length <= size, delay_memory_full);
 1357              		.loc 10 228 17 view .LVU297
 1358              	.LBB829:
 1359              	.LBB804:
 1360              	.LBI804:
  61:./mi-custom/clouds/dsp/fx/fx_engine.h ****     return static_cast<float>(static_cast<int16_t>(value)) / 4096.0f;
 1361              		.loc 10 61 23 view .LVU298
 1362              	.LBB805:
  62:./mi-custom/clouds/dsp/fx/fx_engine.h ****   }
 1363              		.loc 10 62 5 view .LVU299
 1364              	.LBE805:
 1365              	.LBE804:
 1366              	.LBE829:
 1367              	.LBE1179:
 1368              	.LBB1180:
 1369              	.LBB1181:
 203:./mi-custom/clouds/dsp/fx/fx_engine.h ****       } else {
 1370              		.loc 10 203 55 is_stmt 0 view .LVU300
 1371 0250 41F2022A 		movw	r10, #4610
 1372              	.LVL61:
 203:./mi-custom/clouds/dsp/fx/fx_engine.h ****       } else {
ARM GAS  C:\Users\pedro\AppData\Local\Temp\cce24yZj.s 			page 57


 1373              		.loc 10 203 55 view .LVU301
 1374              	.LBE1181:
 1375              	.LBE1180:
 1376              	.LBB1196:
 1377              	.LBB830:
 1378              	.LBB809:
 1379              	.LBB810:
  62:./mi-custom/clouds/dsp/fx/fx_engine.h ****   }
 1380              		.loc 10 62 12 view .LVU302
 1381 0254 32F917B0 		ldrsh	fp, [r2, r7, lsl #1]
 1382              	.LVL62:
  62:./mi-custom/clouds/dsp/fx/fx_engine.h ****   }
 1383              		.loc 10 62 12 view .LVU303
 1384              	.LBE810:
 1385              	.LBE809:
 1386              	.LBE830:
 1387              	.LBE1196:
 1388              	.LBB1197:
 1389              	.LBB1143:
 1390              	.LBB1132:
 1391              	.LBB1133:
 1392 0258 32F91980 		ldrsh	r8, [r2, r9, lsl #1]
 1393              	.LVL63:
  62:./mi-custom/clouds/dsp/fx/fx_engine.h ****   }
 1394              		.loc 10 62 12 view .LVU304
 1395              	.LBE1133:
 1396              	.LBE1132:
 1397              	.LBE1143:
 1398              	.LBE1197:
 1399              	.LBB1198:
 1400              	.LBB1190:
 203:./mi-custom/clouds/dsp/fx/fx_engine.h ****       } else {
 1401              		.loc 10 203 55 view .LVU305
 1402 025c 9A44     		add	r10, r10, r3
 1403              	.LBE1190:
 1404              	.LBE1198:
 1405              	.LBB1199:
 1406              	.LBB831:
 1407              	.LBB815:
 1408              	.LBB811:
  62:./mi-custom/clouds/dsp/fx/fx_engine.h ****   }
 1409              		.loc 10 62 12 view .LVU306
 1410 025e 06EE90BA 		vmov	s13, fp	@ int
 1411              	.LBE811:
 1412              	.LBE815:
 1413              	.LBB816:
 1414              	.LBB806:
 1415 0262 32F916B0 		ldrsh	fp, [r2, r6, lsl #1]
 1416              	.LBE806:
 1417              	.LBE816:
 1418              	.LBE831:
 1419              	.LBE1199:
 1420              	.LBB1200:
 1421              	.LBB1144:
 1422              	.LBB1138:
 1423              	.LBB1134:
 1424 0266 07EE108A 		vmov	s14, r8	@ int
ARM GAS  C:\Users\pedro\AppData\Local\Temp\cce24yZj.s 			page 58


 1425              	.LBE1134:
 1426              	.LBE1138:
 1427              	.LBE1144:
 1428              	.LBE1200:
 1429              	.LBB1201:
 1430              	.LBB1191:
 203:./mi-custom/clouds/dsp/fx/fx_engine.h ****       } else {
 1431              		.loc 10 203 60 view .LVU307
 1432 026a CAF30D0A 		ubfx	r10, r10, #0, #14
 1433              	.LBE1191:
 1434              	.LBE1201:
 1435              	.LBB1202:
 1436              	.LBB832:
 1437              	.LBB817:
 1438              	.LBB812:
  62:./mi-custom/clouds/dsp/fx/fx_engine.h ****   }
 1439              		.loc 10 62 12 view .LVU308
 1440 026e F8EEE66A 		vcvt.f32.s32	s13, s13
 1441              	.LBE812:
 1442              	.LBE817:
 1443              	.LBB818:
 1444              	.LBB807:
 1445 0272 09EE90BA 		vmov	s19, fp	@ int
 1446              	.LBE807:
 1447              	.LBE818:
 1448              	.LBE832:
 1449              	.LBE1202:
 1450              	.LBB1203:
 1451              	.LBB1145:
 1452              	.LBB1139:
 1453              	.LBB1135:
 1454 0276 B8EEC77A 		vcvt.f32.s32	s14, s14
 1455              	.LBE1135:
 1456              	.LBE1139:
 1457              	.LBE1145:
 1458              	.LBE1203:
 1459              	.LBB1204:
 1460              	.LBB1205:
 1461              	.LBB1206:
 177:./mi-custom/clouds/dsp/fx/fx_engine.h ****       }
 1462              		.loc 10 177 29 view .LVU309
 1463 027a 41F20428 		movw	r8, #4612
 1464              	.LBE1206:
 1465              	.LBE1205:
 1466              	.LBE1204:
 1467              	.LBB1235:
 1468              	.LBB833:
 1469              	.LBB819:
 1470              	.LBB808:
  62:./mi-custom/clouds/dsp/fx/fx_engine.h ****   }
 1471              		.loc 10 62 12 view .LVU310
 1472 027e F8EEE99A 		vcvt.f32.s32	s19, s19
 1473              	.LVL64:
  62:./mi-custom/clouds/dsp/fx/fx_engine.h ****   }
 1474              		.loc 10 62 12 view .LVU311
 1475              	.LBE808:
 1476              	.LBE819:
ARM GAS  C:\Users\pedro\AppData\Local\Temp\cce24yZj.s 			page 59


 1477              	.LBB820:
 1478              	.LBI809:
  61:./mi-custom/clouds/dsp/fx/fx_engine.h ****     return static_cast<float>(static_cast<int16_t>(value)) / 4096.0f;
 1479              		.loc 10 61 23 is_stmt 1 view .LVU312
 1480              	.LBB813:
  62:./mi-custom/clouds/dsp/fx/fx_engine.h ****   }
 1481              		.loc 10 62 5 view .LVU313
  62:./mi-custom/clouds/dsp/fx/fx_engine.h ****   }
 1482              		.loc 10 62 5 is_stmt 0 view .LVU314
 1483              	.LBE813:
 1484              	.LBE820:
 1485              	.LBE833:
 1486              	.LBE1235:
 1487              	.LBB1236:
 1488              	.LBB1237:
 1489              	.LBB1238:
 1490              	.LBB1239:
 1491              	.LBB1240:
 177:./mi-custom/clouds/dsp/fx/fx_engine.h ****       }
 1492              		.loc 10 177 29 view .LVU315
 1493 0282 03F60D29 		addw	r9, r3, #2573
 1494              	.LBE1240:
 1495              	.LBE1239:
 1496              	.LBE1238:
 1497              	.LBE1237:
 1498              	.LBE1236:
 1499              	.LBB1265:
 1500              	.LBB834:
 1501              	.LBB821:
 1502              	.LBB814:
  62:./mi-custom/clouds/dsp/fx/fx_engine.h ****   }
 1503              		.loc 10 62 62 view .LVU316
 1504 0286 66EEA76A 		vmul.f32	s13, s13, s15
 1505              	.LBE814:
 1506              	.LBE821:
 1507              	.LBE834:
 1508              	.LBE1265:
 1509              	.LBB1266:
 1510              	.LBB1228:
 1511              	.LBB1221:
 177:./mi-custom/clouds/dsp/fx/fx_engine.h ****       }
 1512              		.loc 10 177 29 view .LVU317
 1513 028a 9844     		add	r8, r8, r3
 1514              	.LBE1221:
 1515              	.LBE1228:
 1516              	.LBE1266:
 1517              	.LBB1267:
 1518              	.LBB1146:
 1519              	.LBB1140:
 1520              	.LBB1136:
  62:./mi-custom/clouds/dsp/fx/fx_engine.h ****   }
 1521              		.loc 10 62 62 view .LVU318
 1522 028c 27EE277A 		vmul.f32	s14, s14, s15
 1523              	.LBE1136:
 1524              	.LBE1140:
 1525              	.LBE1146:
 1526              	.LBE1267:
ARM GAS  C:\Users\pedro\AppData\Local\Temp\cce24yZj.s 			page 60


 1527              	.LBB1268:
 1528              	.LBB1262:
 1529              	.LBB1259:
 1530              	.LBB1255:
 1531              	.LBB1251:
 177:./mi-custom/clouds/dsp/fx/fx_engine.h ****       }
 1532              		.loc 10 177 49 view .LVU319
 1533 0290 C9F30D09 		ubfx	r9, r9, #0, #14
 1534              	.LBE1251:
 1535              	.LBE1255:
 1536              	.LBE1259:
 1537              	.LBE1262:
 1538              	.LBE1268:
 1539              	.LBB1269:
 1540              	.LBB1229:
 1541              	.LBB1222:
 1542 0294 C8F30D08 		ubfx	r8, r8, #0, #14
 1543              	.LBE1222:
 1544              	.LBE1229:
 1545              	.LBE1269:
 1546              	.LBB1270:
 1547              	.LBB835:
 235:./mi-custom/clouds/dsp/fx/fx_engine.h ****       previous_read_ = x;
 1548              		.loc 10 235 24 view .LVU320
 1549 0298 E9EEE76A 		vfms.f32	s13, s19, s15
 235:./mi-custom/clouds/dsp/fx/fx_engine.h ****       previous_read_ = x;
 1550              		.loc 10 235 29 view .LVU321
 1551 029c 63EEA66A 		vmul.f32	s13, s7, s13
 235:./mi-custom/clouds/dsp/fx/fx_engine.h ****       previous_read_ = x;
 1552              		.loc 10 235 13 view .LVU322
 1553 02a0 E9EEA76A 		vfma.f32	s13, s19, s15
 1554              	.LVL65:
 235:./mi-custom/clouds/dsp/fx/fx_engine.h ****       previous_read_ = x;
 1555              		.loc 10 235 13 view .LVU323
 1556              	.LBE835:
 1557              	.LBE1270:
 117:./mi-custom/clouds/dsp/fx/voxverb.h ****       c.Hp(hp_1, khp);
 1558              		.loc 9 117 7 is_stmt 1 view .LVU324
 1559              	.LBB1271:
 1560              	.LBI1271:
 217:./mi-custom/clouds/dsp/fx/fx_engine.h ****       state += coefficient * (accumulator_ - state);
 1561              		.loc 10 217 17 view .LVU325
 1562              	.LBE1271:
 1563              	.LBB1273:
 1564              	.LBB836:
 237:./mi-custom/clouds/dsp/fx/fx_engine.h ****     }
 1565              		.loc 10 237 20 is_stmt 0 view .LVU326
 1566 02a4 76EE896A 		vadd.f32	s13, s13, s18
 1567              	.LBE836:
 1568              	.LBE1273:
 1569              	.LBB1274:
 1570              	.LBB1272:
 218:./mi-custom/clouds/dsp/fx/fx_engine.h ****       accumulator_ = state;
 1571              		.loc 10 218 44 view .LVU327
 1572 02a8 76EEC46A 		vsub.f32	s13, s13, s8
 218:./mi-custom/clouds/dsp/fx/fx_engine.h ****       accumulator_ = state;
 1573              		.loc 10 218 13 view .LVU328
ARM GAS  C:\Users\pedro\AppData\Local\Temp\cce24yZj.s 			page 61


 1574 02ac A3EE264A 		vfma.f32	s8, s6, s13
 1575              	.LVL66:
 218:./mi-custom/clouds/dsp/fx/fx_engine.h ****       accumulator_ = state;
 1576              		.loc 10 218 13 view .LVU329
 1577              	.LBE1272:
 1578              	.LBE1274:
 118:./mi-custom/clouds/dsp/fx/voxverb.h ****       c.Read(dap1a TAIL, -kap);
 1579              		.loc 9 118 7 is_stmt 1 view .LVU330
 1580              	.LBB1275:
 1581              	.LBI1275:
 222:./mi-custom/clouds/dsp/fx/fx_engine.h ****       state += coefficient * (accumulator_ - state);
 1582              		.loc 10 222 17 view .LVU331
 1583              	.LBB1276:
 223:./mi-custom/clouds/dsp/fx/fx_engine.h ****       accumulator_ -= state;
 1584              		.loc 10 223 44 is_stmt 0 view .LVU332
 1585 02b0 74EE606A 		vsub.f32	s13, s8, s1
 223:./mi-custom/clouds/dsp/fx/fx_engine.h ****       accumulator_ -= state;
 1586              		.loc 10 223 13 view .LVU333
 1587 02b4 E2EEA60A 		vfma.f32	s1, s5, s13
 1588              	.LVL67:
 223:./mi-custom/clouds/dsp/fx/fx_engine.h ****       accumulator_ -= state;
 1589              		.loc 10 223 13 view .LVU334
 1590              	.LBE1276:
 1591              	.LBE1275:
 119:./mi-custom/clouds/dsp/fx/voxverb.h ****       c.WriteAllPass(dap1a, kap);
 1592              		.loc 9 119 7 is_stmt 1 view .LVU335
 1593              	.LBB1278:
 1594              	.LBI1130:
 199:./mi-custom/clouds/dsp/fx/fx_engine.h ****       STATIC_ASSERT(D::base + D::length <= size, delay_memory_full);
 1595              		.loc 10 199 17 view .LVU336
 1596              	.LBB1147:
 1597              	.LBB1141:
 1598              	.LBI1132:
  61:./mi-custom/clouds/dsp/fx/fx_engine.h ****     return static_cast<float>(static_cast<int16_t>(value)) / 4096.0f;
 1599              		.loc 10 61 23 view .LVU337
 1600              	.LBB1137:
  62:./mi-custom/clouds/dsp/fx/fx_engine.h ****   }
 1601              		.loc 10 62 5 view .LVU338
  62:./mi-custom/clouds/dsp/fx/fx_engine.h ****   }
 1602              		.loc 10 62 5 is_stmt 0 view .LVU339
 1603              	.LBE1137:
 1604              	.LBE1141:
 1605              	.LBE1147:
 1606              	.LBE1278:
 1607              	.LBB1279:
 1608              	.LBB1277:
 224:./mi-custom/clouds/dsp/fx/fx_engine.h ****     }
 1609              		.loc 10 224 20 view .LVU340
 1610 02b8 74EE606A 		vsub.f32	s13, s8, s1
 1611              	.LBE1277:
 1612              	.LBE1279:
 1613              	.LBB1280:
 1614              	.LBB1148:
 209:./mi-custom/clouds/dsp/fx/fx_engine.h ****     }
 1615              		.loc 10 209 20 view .LVU341
 1616 02bc E7EE256A 		vfma.f32	s13, s14, s11
 1617              	.LVL68:
ARM GAS  C:\Users\pedro\AppData\Local\Temp\cce24yZj.s 			page 62


 209:./mi-custom/clouds/dsp/fx/fx_engine.h ****     }
 1618              		.loc 10 209 20 view .LVU342
 1619              	.LBE1148:
 1620              	.LBE1280:
 120:./mi-custom/clouds/dsp/fx/voxverb.h ****       c.Read(dap1b TAIL, kap);
 1621              		.loc 9 120 7 is_stmt 1 view .LVU343
 1622              	.LBB1281:
 1623              	.LBI1152:
 194:./mi-custom/clouds/dsp/fx/fx_engine.h ****       WriteAllPass(d, 0, scale);
 1624              		.loc 10 194 17 view .LVU344
 1625              	.LBB1174:
 1626              	.LBI1153:
 188:./mi-custom/clouds/dsp/fx/fx_engine.h ****       Write(d, offset, scale);
 1627              		.loc 10 188 17 view .LVU345
 1628              	.LBB1172:
 1629              	.LBB1169:
 1630              	.LBI1155:
 171:./mi-custom/clouds/dsp/fx/fx_engine.h ****       STATIC_ASSERT(D::base + D::length <= size, delay_memory_full);
 1631              		.loc 10 171 17 view .LVU346
 1632              	.LBB1166:
 1633              	.LBB1157:
 1634              	.LBI1157:
  65:./mi-custom/clouds/dsp/fx/fx_engine.h ****     return static_cast<uint16_t>(
 1635              		.loc 10 65 19 view .LVU347
 1636              	.LBB1158:
  66:./mi-custom/clouds/dsp/fx/fx_engine.h ****         stmlib::Clip16(static_cast<int32_t>(value * 4096.0f)));
 1637              		.loc 10 66 5 view .LVU348
 1638              	.LBB1159:
 1639              	.LBI1159:
 131:./mi-custom/stmlib/dsp/dsp.h ****     int32_t result;
 1640              		.loc 14 131 18 view .LVU349
 1641              	.LBB1160:
 132:./mi-custom/stmlib/dsp/dsp.h ****     __asm ("ssat %0, %1, %2" : "=r" (result) :  "I" (16), "r" (x) );
 1642              		.loc 14 132 5 view .LVU350
 133:./mi-custom/stmlib/dsp/dsp.h ****     return result;
 1643              		.loc 14 133 5 view .LVU351
 1644              	.LBE1160:
 1645              	.LBE1159:
 1646              	.LBE1158:
 1647              	.LBE1157:
 1648              	.LBE1166:
 1649              	.LBE1169:
 190:./mi-custom/clouds/dsp/fx/fx_engine.h ****     }
 1650              		.loc 10 190 20 is_stmt 0 view .LVU352
 1651 02c0 A6EE267A 		vfma.f32	s14, s12, s13
 1652              	.LVL69:
 1653              	.LBB1170:
 1654              	.LBB1167:
 1655              	.LBB1164:
 1656              	.LBB1163:
  67:./mi-custom/clouds/dsp/fx/fx_engine.h ****   }
 1657              		.loc 10 67 23 view .LVU353
 1658 02c4 FEEECA6A 		vcvt.s32.f32	s13, s13, #12
 1659              	.LVL70:
 1660              	.LBB1162:
 1661              	.LBB1161:
 133:./mi-custom/stmlib/dsp/dsp.h ****     return result;
ARM GAS  C:\Users\pedro\AppData\Local\Temp\cce24yZj.s 			page 63


 1662              		.loc 14 133 5 view .LVU354
 1663 02c8 16EE90BA 		vmov	fp, s13	@ int
 1664              		.syntax unified
 1665              	@ 133 "./mi-custom/stmlib/dsp/dsp.h" 1
 1666 02cc 0BF30F0B 		ssat fp, #16, fp
 1667              	@ 0 "" 2
 1668              	.LVL71:
 1669              		.loc 14 134 5 is_stmt 1 view .LVU355
 1670              		.loc 14 134 5 is_stmt 0 view .LVU356
 1671              		.thumb
 1672              		.syntax unified
 1673              	.LBE1161:
 1674              	.LBE1162:
  67:./mi-custom/clouds/dsp/fx/fx_engine.h ****   }
 1675              		.loc 10 67 62 view .LVU357
 1676 02d0 22F811B0 		strh	fp, [r2, r1, lsl #1]	@ movhi
 1677              	.LVL72:
  67:./mi-custom/clouds/dsp/fx/fx_engine.h ****   }
 1678              		.loc 10 67 62 view .LVU358
 1679              	.LBE1163:
 1680              	.LBE1164:
 1681              	.LBE1167:
 1682              	.LBE1170:
 1683              	.LBE1172:
 1684              	.LBE1174:
 1685              	.LBE1281:
 121:./mi-custom/clouds/dsp/fx/voxverb.h ****       c.WriteAllPass(dap1b, -kap);
 1686              		.loc 9 121 7 is_stmt 1 view .LVU359
 1687              	.LBB1282:
 1688              	.LBI1180:
 199:./mi-custom/clouds/dsp/fx/fx_engine.h ****       STATIC_ASSERT(D::base + D::length <= size, delay_memory_full);
 1689              		.loc 10 199 17 view .LVU360
 1690              	.LBB1192:
 1691              	.LBB1182:
 1692              	.LBI1182:
  61:./mi-custom/clouds/dsp/fx/fx_engine.h ****     return static_cast<float>(static_cast<int16_t>(value)) / 4096.0f;
 1693              		.loc 10 61 23 view .LVU361
 1694              	.LBB1183:
  62:./mi-custom/clouds/dsp/fx/fx_engine.h ****   }
 1695              		.loc 10 62 5 view .LVU362
  62:./mi-custom/clouds/dsp/fx/fx_engine.h ****   }
 1696              		.loc 10 62 12 is_stmt 0 view .LVU363
 1697 02d4 32F91A10 		ldrsh	r1, [r2, r10, lsl #1]
 1698              	.LBE1183:
 1699              	.LBE1182:
 1700              	.LBE1192:
 1701              	.LBE1282:
 1702              	.LBB1283:
 1703              	.LBB1284:
 203:./mi-custom/clouds/dsp/fx/fx_engine.h ****       } else {
 1704              		.loc 10 203 55 view .LVU364
 1705 02d8 41F6567A 		movw	r10, #8022
 1706              	.LBE1284:
 1707              	.LBE1283:
 1708              	.LBB1302:
 1709              	.LBB1193:
 1710              	.LBB1187:
ARM GAS  C:\Users\pedro\AppData\Local\Temp\cce24yZj.s 			page 64


 1711              	.LBB1184:
  62:./mi-custom/clouds/dsp/fx/fx_engine.h ****   }
 1712              		.loc 10 62 12 view .LVU365
 1713 02dc 09EE901A 		vmov	s19, r1	@ int
 1714              	.LVL73:
  62:./mi-custom/clouds/dsp/fx/fx_engine.h ****   }
 1715              		.loc 10 62 12 view .LVU366
 1716              	.LBE1184:
 1717              	.LBE1187:
 1718              	.LBE1193:
 1719              	.LBE1302:
 1720              	.LBB1303:
 1721              	.LBB1295:
 203:./mi-custom/clouds/dsp/fx/fx_engine.h ****       } else {
 1722              		.loc 10 203 55 view .LVU367
 1723 02e0 9A44     		add	r10, r10, r3
 1724              	.LBE1295:
 1725              	.LBE1303:
 1726              	.LBB1304:
 1727              	.LBB1194:
 1728              	.LBB1188:
 1729              	.LBB1185:
  62:./mi-custom/clouds/dsp/fx/fx_engine.h ****   }
 1730              		.loc 10 62 12 view .LVU368
 1731 02e2 F8EEE99A 		vcvt.f32.s32	s19, s19
 1732              	.LBE1185:
 1733              	.LBE1188:
 1734              	.LBE1194:
 1735              	.LBE1304:
 1736              	.LBB1305:
 1737              	.LBB1296:
 203:./mi-custom/clouds/dsp/fx/fx_engine.h ****       } else {
 1738              		.loc 10 203 60 view .LVU369
 1739 02e6 CAF30D0A 		ubfx	r10, r10, #0, #14
 1740              	.LBE1296:
 1741              	.LBE1305:
 1742              	.LBB1306:
 1743              	.LBB1195:
 1744              	.LBB1189:
 1745              	.LBB1186:
  62:./mi-custom/clouds/dsp/fx/fx_engine.h ****   }
 1746              		.loc 10 62 62 view .LVU370
 1747 02ea 69EEA79A 		vmul.f32	s19, s19, s15
 1748              	.LVL74:
  62:./mi-custom/clouds/dsp/fx/fx_engine.h ****   }
 1749              		.loc 10 62 62 view .LVU371
 1750              	.LBE1186:
 1751              	.LBE1189:
 209:./mi-custom/clouds/dsp/fx/fx_engine.h ****     }
 1752              		.loc 10 209 20 view .LVU372
 1753 02ee A6EE297A 		vfma.f32	s14, s12, s19
 1754              	.LVL75:
 209:./mi-custom/clouds/dsp/fx/fx_engine.h ****     }
 1755              		.loc 10 209 20 view .LVU373
 1756              	.LBE1195:
 1757              	.LBE1306:
 122:./mi-custom/clouds/dsp/fx/voxverb.h ****       c.Write(del1, 2.0f);
ARM GAS  C:\Users\pedro\AppData\Local\Temp\cce24yZj.s 			page 65


 1758              		.loc 9 122 7 is_stmt 1 view .LVU374
 1759              	.LBB1307:
 1760              	.LBI1236:
 194:./mi-custom/clouds/dsp/fx/fx_engine.h ****       WriteAllPass(d, 0, scale);
 1761              		.loc 10 194 17 view .LVU375
 1762              	.LBB1263:
 1763              	.LBI1237:
 188:./mi-custom/clouds/dsp/fx/fx_engine.h ****       Write(d, offset, scale);
 1764              		.loc 10 188 17 view .LVU376
 1765              	.LBB1260:
 1766              	.LBB1256:
 1767              	.LBI1239:
 171:./mi-custom/clouds/dsp/fx/fx_engine.h ****       STATIC_ASSERT(D::base + D::length <= size, delay_memory_full);
 1768              		.loc 10 171 17 view .LVU377
 1769              	.LBB1252:
 1770              	.LBB1241:
 1771              	.LBI1241:
  65:./mi-custom/clouds/dsp/fx/fx_engine.h ****     return static_cast<uint16_t>(
 1772              		.loc 10 65 19 view .LVU378
 1773              	.LBB1242:
  66:./mi-custom/clouds/dsp/fx/fx_engine.h ****         stmlib::Clip16(static_cast<int32_t>(value * 4096.0f)));
 1774              		.loc 10 66 5 view .LVU379
 1775              	.LBB1243:
 1776              	.LBI1243:
 131:./mi-custom/stmlib/dsp/dsp.h ****     int32_t result;
 1777              		.loc 14 131 18 view .LVU380
 1778              	.LBB1244:
 132:./mi-custom/stmlib/dsp/dsp.h ****     __asm ("ssat %0, %1, %2" : "=r" (result) :  "I" (16), "r" (x) );
 1779              		.loc 14 132 5 view .LVU381
 133:./mi-custom/stmlib/dsp/dsp.h ****     return result;
 1780              		.loc 14 133 5 view .LVU382
 1781              	.LBE1244:
 1782              	.LBE1243:
 1783              	.LBE1242:
 1784              	.LBE1241:
 1785              	.LBE1252:
 1786              	.LBE1256:
 190:./mi-custom/clouds/dsp/fx/fx_engine.h ****     }
 1787              		.loc 10 190 20 is_stmt 0 view .LVU383
 1788 02f2 E7EE259A 		vfma.f32	s19, s14, s11
 1789              	.LVL76:
 1790              	.LBB1257:
 1791              	.LBB1253:
 1792              	.LBB1249:
 1793              	.LBB1247:
  67:./mi-custom/clouds/dsp/fx/fx_engine.h ****   }
 1794              		.loc 10 67 23 view .LVU384
 1795 02f6 BEEECA7A 		vcvt.s32.f32	s14, s14, #12
 1796              	.LVL77:
 1797              	.LBB1246:
 1798              	.LBB1245:
 133:./mi-custom/stmlib/dsp/dsp.h ****     return result;
 1799              		.loc 14 133 5 view .LVU385
 1800 02fa 17EE101A 		vmov	r1, s14	@ int
 1801              	.LVL78:
 133:./mi-custom/stmlib/dsp/dsp.h ****     return result;
 1802              		.loc 14 133 5 view .LVU386
ARM GAS  C:\Users\pedro\AppData\Local\Temp\cce24yZj.s 			page 66


 1803              		.syntax unified
 1804              	@ 133 "./mi-custom/stmlib/dsp/dsp.h" 1
 1805 02fe 01F30F01 		ssat r1, #16, r1
 1806              	@ 0 "" 2
 1807              	.LVL79:
 1808              		.loc 14 134 5 is_stmt 1 view .LVU387
 1809              		.loc 14 134 5 is_stmt 0 view .LVU388
 1810              		.thumb
 1811              		.syntax unified
 1812              	.LBE1245:
 1813              	.LBE1246:
 1814              	.LBE1247:
 1815              	.LBE1249:
 1816              	.LBE1253:
 1817              	.LBE1257:
 1818              	.LBE1260:
 1819              	.LBE1263:
 1820              	.LBE1307:
 1821              	.LBB1308:
 1822              	.LBB1230:
 1823              	.LBB1223:
 1824              	.LBB1207:
 1825              	.LBB1208:
  67:./mi-custom/clouds/dsp/fx/fx_engine.h ****   }
 1826              		.loc 10 67 23 view .LVU389
 1827 0302 B0EE697A 		vmov.f32	s14, s19
 1828              	.LBE1208:
 1829              	.LBE1207:
 1830              	.LBE1223:
 1831              	.LBE1230:
 1832              	.LBE1308:
 1833              	.LBB1309:
 1834              	.LBB1264:
 1835              	.LBB1261:
 1836              	.LBB1258:
 1837              	.LBB1254:
 1838              	.LBB1250:
 1839              	.LBB1248:
  67:./mi-custom/clouds/dsp/fx/fx_engine.h ****   }
 1840              		.loc 10 67 62 view .LVU390
 1841 0306 22F81910 		strh	r1, [r2, r9, lsl #1]	@ movhi
 1842              	.LVL80:
  67:./mi-custom/clouds/dsp/fx/fx_engine.h ****   }
 1843              		.loc 10 67 62 view .LVU391
 1844              	.LBE1248:
 1845              	.LBE1250:
 1846              	.LBE1254:
 1847              	.LBE1258:
 1848              	.LBE1261:
 1849              	.LBE1264:
 1850              	.LBE1309:
 123:./mi-custom/clouds/dsp/fx/voxverb.h ****       c.Write(wet, 0.0f);
 1851              		.loc 9 123 7 is_stmt 1 view .LVU392
 1852              	.LBB1310:
 1853              	.LBI1204:
 183:./mi-custom/clouds/dsp/fx/fx_engine.h ****       Write(d, 0, scale);
 1854              		.loc 10 183 17 view .LVU393
ARM GAS  C:\Users\pedro\AppData\Local\Temp\cce24yZj.s 			page 67


 1855              	.LBB1231:
 1856              	.LBI1205:
 171:./mi-custom/clouds/dsp/fx/fx_engine.h ****       STATIC_ASSERT(D::base + D::length <= size, delay_memory_full);
 1857              		.loc 10 171 17 view .LVU394
 1858              	.LBB1224:
 1859              	.LBB1217:
 1860              	.LBI1207:
  65:./mi-custom/clouds/dsp/fx/fx_engine.h ****     return static_cast<uint16_t>(
 1861              		.loc 10 65 19 view .LVU395
 1862              	.LBB1213:
  66:./mi-custom/clouds/dsp/fx/fx_engine.h ****         stmlib::Clip16(static_cast<int32_t>(value * 4096.0f)));
 1863              		.loc 10 66 5 view .LVU396
 1864              	.LBB1209:
 1865              	.LBI1209:
 131:./mi-custom/stmlib/dsp/dsp.h ****     int32_t result;
 1866              		.loc 14 131 18 view .LVU397
 1867              	.LBB1210:
 132:./mi-custom/stmlib/dsp/dsp.h ****     __asm ("ssat %0, %1, %2" : "=r" (result) :  "I" (16), "r" (x) );
 1868              		.loc 14 132 5 view .LVU398
 133:./mi-custom/stmlib/dsp/dsp.h ****     return result;
 1869              		.loc 14 133 5 view .LVU399
 1870              	.LBE1210:
 1871              	.LBE1209:
 1872              	.LBE1213:
 1873              	.LBE1217:
 1874              	.LBE1224:
 1875              	.LBE1231:
 1876              	.LBE1310:
 1877              		.loc 9 126 25 is_stmt 0 view .LVU400
 1878 030a 99EE80BA 		vfnms.f32	s22, s19, s0
 1879              	.LBB1311:
 1880              	.LBB1312:
 203:./mi-custom/clouds/dsp/fx/fx_engine.h ****       } else {
 1881              		.loc 10 203 55 view .LVU401
 1882 030e 42F2D061 		movw	r1, #9936
 1883              	.LVL81:
 203:./mi-custom/clouds/dsp/fx/fx_engine.h ****       } else {
 1884              		.loc 10 203 55 view .LVU402
 1885              	.LBE1312:
 1886              	.LBE1311:
 1887              	.LBB1331:
 1888              	.LBB1332:
 1889              	.LBB1333:
 1890              	.LBB1334:
 1891              	.LBB1335:
 177:./mi-custom/clouds/dsp/fx/fx_engine.h ****       }
 1892              		.loc 10 177 29 view .LVU403
 1893 0312 41F65879 		movw	r9, #8024
 1894              	.LVL82:
 177:./mi-custom/clouds/dsp/fx/fx_engine.h ****       }
 1895              		.loc 10 177 29 view .LVU404
 1896              	.LBE1335:
 1897              	.LBE1334:
 1898              	.LBE1333:
 1899              	.LBE1332:
 1900              	.LBE1331:
 1901              	.LBB1360:
ARM GAS  C:\Users\pedro\AppData\Local\Temp\cce24yZj.s 			page 68


 1902              	.LBB1232:
 1903              	.LBB1225:
 1904              	.LBB1218:
 1905              	.LBB1214:
  67:./mi-custom/clouds/dsp/fx/fx_engine.h ****   }
 1906              		.loc 10 67 23 view .LVU405
 1907 0316 BEEECA7A 		vcvt.s32.f32	s14, s14, #12
 1908              	.LVL83:
  67:./mi-custom/clouds/dsp/fx/fx_engine.h ****   }
 1909              		.loc 10 67 23 view .LVU406
 1910              	.LBE1214:
 1911              	.LBE1218:
 1912              	.LBE1225:
 1913              	.LBE1232:
 1914              	.LBE1360:
 1915              	.LBB1361:
 1916              	.LBB1323:
 203:./mi-custom/clouds/dsp/fx/fx_engine.h ****       } else {
 1917              		.loc 10 203 55 view .LVU407
 1918 031a 1944     		add	r1, r1, r3
 1919              	.LBE1323:
 1920              	.LBE1361:
 1921              	.LBB1362:
 1922              	.LBB1356:
 1923              	.LBB1352:
 1924              	.LBB1348:
 1925              	.LBB1344:
 177:./mi-custom/clouds/dsp/fx/fx_engine.h ****       }
 1926              		.loc 10 177 29 view .LVU408
 1927 031c 9944     		add	r9, r9, r3
 1928              	.LBE1344:
 1929              	.LBE1348:
 1930              	.LBE1352:
 1931              	.LBE1356:
 1932              	.LBE1362:
 1933              	.LBB1363:
 1934              	.LBB1324:
 203:./mi-custom/clouds/dsp/fx/fx_engine.h ****       } else {
 1935              		.loc 10 203 60 view .LVU409
 1936 031e C1F30D01 		ubfx	r1, r1, #0, #14
 1937              	.LBE1324:
 1938              	.LBE1363:
 1939              	.LBB1364:
 1940              	.LBB1233:
 1941              	.LBB1226:
 1942              	.LBB1219:
 1943              	.LBB1215:
  67:./mi-custom/clouds/dsp/fx/fx_engine.h ****   }
 1944              		.loc 10 67 23 view .LVU410
 1945 0322 17EE10BA 		vmov	fp, s14	@ int
 1946              	.LVL84:
  67:./mi-custom/clouds/dsp/fx/fx_engine.h ****   }
 1947              		.loc 10 67 23 view .LVU411
 1948              	.LBE1215:
 1949              	.LBE1219:
 1950              	.LBE1226:
 1951              	.LBE1233:
ARM GAS  C:\Users\pedro\AppData\Local\Temp\cce24yZj.s 			page 69


 1952              	.LBE1364:
 1953              	.LBB1365:
 1954              	.LBB1357:
 1955              	.LBB1353:
 1956              	.LBB1349:
 1957              	.LBB1345:
 177:./mi-custom/clouds/dsp/fx/fx_engine.h ****       }
 1958              		.loc 10 177 49 view .LVU412
 1959 0326 C9F30D09 		ubfx	r9, r9, #0, #14
 1960              	.LBE1345:
 1961              	.LBE1349:
 1962              	.LBE1353:
 1963              	.LBE1357:
 1964              	.LBE1365:
 1965              	.LBB1366:
 1966              	.LBB1234:
 1967              	.LBB1227:
 1968              	.LBB1220:
 1969              	.LBB1216:
 1970              	.LBB1212:
 1971              	.LBB1211:
 133:./mi-custom/stmlib/dsp/dsp.h ****     return result;
 1972              		.loc 14 133 5 view .LVU413
 1973              		.syntax unified
 1974              	@ 133 "./mi-custom/stmlib/dsp/dsp.h" 1
 1975 032a 0BF30F0B 		ssat fp, #16, fp
 1976              	@ 0 "" 2
 1977              	.LVL85:
 1978              		.loc 14 134 5 is_stmt 1 view .LVU414
 1979              		.loc 14 134 5 is_stmt 0 view .LVU415
 1980              		.thumb
 1981              		.syntax unified
 1982              	.LBE1211:
 1983              	.LBE1212:
  67:./mi-custom/clouds/dsp/fx/fx_engine.h ****   }
 1984              		.loc 10 67 62 view .LVU416
 1985 032e 22F818B0 		strh	fp, [r2, r8, lsl #1]	@ movhi
 1986              	.LVL86:
  67:./mi-custom/clouds/dsp/fx/fx_engine.h ****   }
 1987              		.loc 10 67 62 view .LVU417
 1988              	.LBE1216:
 1989              	.LBE1220:
 1990              	.LBE1227:
 1991              	.LBE1234:
 1992              	.LBE1366:
 124:./mi-custom/clouds/dsp/fx/voxverb.h **** 
 1993              		.loc 9 124 7 is_stmt 1 view .LVU418
 1994              		.loc 9 126 7 view .LVU419
 1995              		.loc 9 126 17 is_stmt 0 view .LVU420
 1996 0332 ABEE028A 		vfma.f32	s16, s22, s4
 1997              	.LBB1367:
 1998              	.LBB1368:
 1999              	.LBB1369:
 2000              	.LBB1370:
  62:./mi-custom/clouds/dsp/fx/fx_engine.h ****   }
 2001              		.loc 10 62 12 view .LVU421
 2002 0336 32F91770 		ldrsh	r7, [r2, r7, lsl #1]
ARM GAS  C:\Users\pedro\AppData\Local\Temp\cce24yZj.s 			page 70


 2003              	.LBE1370:
 2004              	.LBE1369:
 2005              	.LBB1374:
 2006              	.LBB1375:
 2007 033a 32F91660 		ldrsh	r6, [r2, r6, lsl #1]
 2008              	.LBE1375:
 2009              	.LBE1374:
 2010              	.LBB1379:
 2011              	.LBB1371:
 2012 033e 06EE907A 		vmov	s13, r7	@ int
 2013              	.LBE1371:
 2014              	.LBE1379:
 2015              	.LBE1368:
 2016              	.LBE1367:
 2017              	.LBB1391:
 2018              	.LBB1325:
 2019              	.LBB1313:
 2020              	.LBB1314:
 2021 0342 32F91110 		ldrsh	r1, [r2, r1, lsl #1]
 2022              	.LBE1314:
 2023              	.LBE1313:
 2024              	.LBE1325:
 2025              	.LBE1391:
 2026              	.LBB1392:
 2027              	.LBB1385:
 2028              	.LBB1380:
 2029              	.LBB1376:
 2030 0346 0AEE906A 		vmov	s21, r6	@ int
 2031              	.LBE1376:
 2032              	.LBE1380:
 2033              	.LBE1385:
 2034              	.LBE1392:
 2035              	.LBB1393:
 2036              	.LBB1297:
 2037              	.LBB1285:
 2038              	.LBB1286:
 2039 034a 32F91A60 		ldrsh	r6, [r2, r10, lsl #1]
 2040              	.LBE1286:
 2041              	.LBE1285:
 2042              	.LBE1297:
 2043              	.LBE1393:
 2044              	.LBB1394:
 2045              	.LBB1386:
 2046              	.LBB1381:
 2047              	.LBB1372:
 2048 034e F8EEE66A 		vcvt.f32.s32	s13, s13
 2049              	.LBE1372:
 2050              	.LBE1381:
 2051              	.LBE1386:
 2052              	.LBE1394:
 2053              	.LBB1395:
 2054              	.LBB1326:
 2055              	.LBB1319:
 2056              	.LBB1315:
 2057 0352 07EE101A 		vmov	s14, r1	@ int
 2058              	.LBE1315:
 2059              	.LBE1319:
ARM GAS  C:\Users\pedro\AppData\Local\Temp\cce24yZj.s 			page 71


 2060              	.LBE1326:
 2061              	.LBE1395:
 2062              	.LBB1396:
 2063              	.LBB1387:
 2064              	.LBB1382:
 2065              	.LBB1377:
 2066 0356 F8EEEAAA 		vcvt.f32.s32	s21, s21
 2067              	.LBE1377:
 2068              	.LBE1382:
 2069              	.LBE1387:
 2070              	.LBE1396:
 2071              	.LBB1397:
 2072              	.LBB1298:
 2073              	.LBB1291:
 2074              	.LBB1287:
 2075 035a 0AEE106A 		vmov	s20, r6	@ int
 2076              	.LBE1287:
 2077              	.LBE1291:
 2078              	.LBE1298:
 2079              	.LBE1397:
 2080              	.LBB1398:
 2081              	.LBB1327:
 2082              	.LBB1320:
 2083              	.LBB1316:
 2084 035e B8EEC77A 		vcvt.f32.s32	s14, s14
 2085              	.LBE1316:
 2086              	.LBE1320:
 2087              	.LBE1327:
 2088              	.LBE1398:
 2089              		.loc 9 126 17 view .LVU422
 2090 0362 0EED048A 		vstr.32	s16, [lr, #-16]
 127:./mi-custom/clouds/dsp/fx/voxverb.h **** 
 128:./mi-custom/clouds/dsp/fx/voxverb.h ****       c.Load(apout);
 2091              		.loc 9 128 7 is_stmt 1 view .LVU423
 129:./mi-custom/clouds/dsp/fx/voxverb.h ****       // c.Interpolate(del1, 4450.0f, LFO_1, 50.0f, krt);
 130:./mi-custom/clouds/dsp/fx/voxverb.h ****       c.Interpolate(del2, delay_time_ * 0.5, LFO_1);
 2092              		.loc 9 130 7 view .LVU424
 2093              	.LVL87:
 2094              	.LBB1399:
 2095              	.LBI1367:
 228:./mi-custom/clouds/dsp/fx/fx_engine.h ****       STATIC_ASSERT(D::base + D::length <= size, delay_memory_full);
 2096              		.loc 10 228 17 view .LVU425
 2097              	.LBB1388:
 2098              	.LBB1383:
 2099              	.LBI1374:
  61:./mi-custom/clouds/dsp/fx/fx_engine.h ****     return static_cast<float>(static_cast<int16_t>(value)) / 4096.0f;
 2100              		.loc 10 61 23 view .LVU426
 2101              	.LBB1378:
  62:./mi-custom/clouds/dsp/fx/fx_engine.h ****   }
 2102              		.loc 10 62 5 view .LVU427
  62:./mi-custom/clouds/dsp/fx/fx_engine.h ****   }
 2103              		.loc 10 62 5 is_stmt 0 view .LVU428
 2104              	.LBE1378:
 2105              	.LBE1383:
 2106              	.LBB1384:
 2107              	.LBI1369:
  61:./mi-custom/clouds/dsp/fx/fx_engine.h ****     return static_cast<float>(static_cast<int16_t>(value)) / 4096.0f;
ARM GAS  C:\Users\pedro\AppData\Local\Temp\cce24yZj.s 			page 72


 2108              		.loc 10 61 23 is_stmt 1 view .LVU429
 2109              	.LBB1373:
  62:./mi-custom/clouds/dsp/fx/fx_engine.h ****   }
 2110              		.loc 10 62 5 view .LVU430
  62:./mi-custom/clouds/dsp/fx/fx_engine.h ****   }
 2111              		.loc 10 62 62 is_stmt 0 view .LVU431
 2112 0366 66EEA76A 		vmul.f32	s13, s13, s15
 2113              	.LBE1373:
 2114              	.LBE1384:
 2115              	.LBE1388:
 2116              	.LBE1399:
 2117              	.LBB1400:
 2118              	.LBB1401:
 203:./mi-custom/clouds/dsp/fx/fx_engine.h ****       } else {
 2119              		.loc 10 203 55 view .LVU432
 2120 036a 42F65051 		movw	r1, #11600
 2121              	.LBE1401:
 2122              	.LBE1400:
 2123              	.LBB1410:
 2124              	.LBB1299:
 2125              	.LBB1292:
 2126              	.LBB1288:
  62:./mi-custom/clouds/dsp/fx/fx_engine.h ****   }
 2127              		.loc 10 62 12 view .LVU433
 2128 036e B8EECAAA 		vcvt.f32.s32	s20, s20
 2129              	.LBE1288:
 2130              	.LBE1292:
 2131              	.LBE1299:
 2132              	.LBE1410:
 2133              	.LBB1411:
 2134              	.LBB1412:
 2135              	.LBB1413:
 2136              	.LBB1414:
 2137              	.LBB1415:
 177:./mi-custom/clouds/dsp/fx/fx_engine.h ****       }
 2138              		.loc 10 177 29 view .LVU434
 2139 0372 42F2D266 		movw	r6, #9938
 2140              	.LBE1415:
 2141              	.LBE1414:
 2142              	.LBE1413:
 2143              	.LBE1412:
 2144              	.LBE1411:
 2145              	.LBB1446:
 2146              	.LBB1328:
 2147              	.LBB1321:
 2148              	.LBB1317:
  62:./mi-custom/clouds/dsp/fx/fx_engine.h ****   }
 2149              		.loc 10 62 62 view .LVU435
 2150 0376 27EE277A 		vmul.f32	s14, s14, s15
 2151              	.LBE1317:
 2152              	.LBE1321:
 2153              	.LBE1328:
 2154              	.LBE1446:
 2155              	.LBB1447:
 2156              	.LBB1406:
 203:./mi-custom/clouds/dsp/fx/fx_engine.h ****       } else {
 2157              		.loc 10 203 55 view .LVU436
ARM GAS  C:\Users\pedro\AppData\Local\Temp\cce24yZj.s 			page 73


 2158 037a 1944     		add	r1, r1, r3
 2159              	.LBE1406:
 2160              	.LBE1447:
 2161              	.LBB1448:
 2162              	.LBB1389:
 235:./mi-custom/clouds/dsp/fx/fx_engine.h ****       previous_read_ = x;
 2163              		.loc 10 235 24 view .LVU437
 2164 037c EAEEE76A 		vfms.f32	s13, s21, s15
 2165              	.LBE1389:
 2166              	.LBE1448:
 2167              	.LBB1449:
 2168              	.LBB1442:
 2169              	.LBB1438:
 2170              	.LBB1433:
 2171              	.LBB1428:
 177:./mi-custom/clouds/dsp/fx/fx_engine.h ****       }
 2172              		.loc 10 177 29 view .LVU438
 2173 0380 1E44     		add	r6, r6, r3
 2174              	.LBE1428:
 2175              	.LBE1433:
 2176              	.LBE1438:
 2177              	.LBE1442:
 2178              	.LBE1449:
 2179              	.LBB1450:
 2180              	.LBB1300:
 2181              	.LBB1293:
 2182              	.LBB1289:
  62:./mi-custom/clouds/dsp/fx/fx_engine.h ****   }
 2183              		.loc 10 62 62 view .LVU439
 2184 0382 6AEE279A 		vmul.f32	s19, s20, s15
 2185              	.LVL88:
  62:./mi-custom/clouds/dsp/fx/fx_engine.h ****   }
 2186              		.loc 10 62 62 view .LVU440
 2187              	.LBE1289:
 2188              	.LBE1293:
 2189              	.LBE1300:
 2190              	.LBE1450:
 2191              	.LBB1451:
 2192              	.LBB1407:
 203:./mi-custom/clouds/dsp/fx/fx_engine.h ****       } else {
 2193              		.loc 10 203 60 view .LVU441
 2194 0386 C1F30D01 		ubfx	r1, r1, #0, #14
 2195              	.LBE1407:
 2196              	.LBE1451:
 2197              	.LBB1452:
 2198              	.LBB1443:
 2199              	.LBB1439:
 2200              	.LBB1434:
 2201              	.LBB1429:
 177:./mi-custom/clouds/dsp/fx/fx_engine.h ****       }
 2202              		.loc 10 177 49 view .LVU442
 2203 038a C6F30D06 		ubfx	r6, r6, #0, #14
 2204              	.LBE1429:
 2205              	.LBE1434:
 2206              	.LBE1439:
 2207              	.LBE1443:
 2208              	.LBE1452:
ARM GAS  C:\Users\pedro\AppData\Local\Temp\cce24yZj.s 			page 74


 2209              	.LBB1453:
 2210              	.LBB1390:
 235:./mi-custom/clouds/dsp/fx/fx_engine.h ****       previous_read_ = x;
 2211              		.loc 10 235 29 view .LVU443
 2212 038e 66EEA36A 		vmul.f32	s13, s13, s7
 235:./mi-custom/clouds/dsp/fx/fx_engine.h ****       previous_read_ = x;
 2213              		.loc 10 235 13 view .LVU444
 2214 0392 EAEEA76A 		vfma.f32	s13, s21, s15
 2215              	.LVL89:
 237:./mi-custom/clouds/dsp/fx/fx_engine.h ****     }
 2216              		.loc 10 237 20 view .LVU445
 2217 0396 A6EEA89A 		vfma.f32	s18, s13, s17
 2218              	.LVL90:
 237:./mi-custom/clouds/dsp/fx/fx_engine.h ****     }
 2219              		.loc 10 237 20 view .LVU446
 2220              	.LBE1390:
 2221              	.LBE1453:
 131:./mi-custom/clouds/dsp/fx/voxverb.h ****       c.Read(del1 TAIL, krt);
 2222              		.loc 9 131 7 is_stmt 1 view .LVU447
 2223              	.LBB1454:
 2224              	.LBI1283:
 199:./mi-custom/clouds/dsp/fx/fx_engine.h ****       STATIC_ASSERT(D::base + D::length <= size, delay_memory_full);
 2225              		.loc 10 199 17 view .LVU448
 2226              	.LBB1301:
 2227              	.LBB1294:
 2228              	.LBI1285:
  61:./mi-custom/clouds/dsp/fx/fx_engine.h ****     return static_cast<float>(static_cast<int16_t>(value)) / 4096.0f;
 2229              		.loc 10 61 23 view .LVU449
 2230              	.LBB1290:
  62:./mi-custom/clouds/dsp/fx/fx_engine.h ****   }
 2231              		.loc 10 62 5 view .LVU450
  62:./mi-custom/clouds/dsp/fx/fx_engine.h ****   }
 2232              		.loc 10 62 5 is_stmt 0 view .LVU451
 2233              	.LBE1290:
 2234              	.LBE1294:
 209:./mi-custom/clouds/dsp/fx/fx_engine.h ****     }
 2235              		.loc 10 209 20 view .LVU452
 2236 039a A1EEA99A 		vfma.f32	s18, s3, s19
 2237              	.LVL91:
 209:./mi-custom/clouds/dsp/fx/fx_engine.h ****     }
 2238              		.loc 10 209 20 view .LVU453
 2239              	.LBE1301:
 2240              	.LBE1454:
 132:./mi-custom/clouds/dsp/fx/voxverb.h ****       c.Lp(lp_2, klp);
 2241              		.loc 9 132 7 is_stmt 1 view .LVU454
 2242              	.LBB1455:
 2243              	.LBI1455:
 217:./mi-custom/clouds/dsp/fx/fx_engine.h ****       state += coefficient * (accumulator_ - state);
 2244              		.loc 10 217 17 view .LVU455
 2245              	.LBB1456:
 218:./mi-custom/clouds/dsp/fx/fx_engine.h ****       accumulator_ = state;
 2246              		.loc 10 218 44 is_stmt 0 view .LVU456
 2247 039e 39EE649A 		vsub.f32	s18, s18, s9
 218:./mi-custom/clouds/dsp/fx/fx_engine.h ****       accumulator_ = state;
 2248              		.loc 10 218 13 view .LVU457
 2249 03a2 E3EE094A 		vfma.f32	s9, s6, s18
 2250              	.LVL92:
ARM GAS  C:\Users\pedro\AppData\Local\Temp\cce24yZj.s 			page 75


 218:./mi-custom/clouds/dsp/fx/fx_engine.h ****       accumulator_ = state;
 2251              		.loc 10 218 13 view .LVU458
 2252              	.LBE1456:
 2253              	.LBE1455:
 133:./mi-custom/clouds/dsp/fx/voxverb.h ****       c.Hp(hp_1, khp);
 2254              		.loc 9 133 7 is_stmt 1 view .LVU459
 2255              	.LBB1457:
 2256              	.LBI1457:
 222:./mi-custom/clouds/dsp/fx/fx_engine.h ****       state += coefficient * (accumulator_ - state);
 2257              		.loc 10 222 17 view .LVU460
 2258              	.LBB1458:
 223:./mi-custom/clouds/dsp/fx/fx_engine.h ****       accumulator_ -= state;
 2259              		.loc 10 223 44 is_stmt 0 view .LVU461
 2260 03a6 74EEE06A 		vsub.f32	s13, s9, s1
 223:./mi-custom/clouds/dsp/fx/fx_engine.h ****       accumulator_ -= state;
 2261              		.loc 10 223 13 view .LVU462
 2262 03aa E2EEA60A 		vfma.f32	s1, s5, s13
 2263              	.LVL93:
 223:./mi-custom/clouds/dsp/fx/fx_engine.h ****       accumulator_ -= state;
 2264              		.loc 10 223 13 view .LVU463
 2265              	.LBE1458:
 2266              	.LBE1457:
 134:./mi-custom/clouds/dsp/fx/voxverb.h ****       c.Read(dap2a TAIL, kap);
 2267              		.loc 9 134 7 is_stmt 1 view .LVU464
 2268              	.LBB1460:
 2269              	.LBI1311:
 199:./mi-custom/clouds/dsp/fx/fx_engine.h ****       STATIC_ASSERT(D::base + D::length <= size, delay_memory_full);
 2270              		.loc 10 199 17 view .LVU465
 2271              	.LBB1329:
 2272              	.LBB1322:
 2273              	.LBI1313:
  61:./mi-custom/clouds/dsp/fx/fx_engine.h ****     return static_cast<float>(static_cast<int16_t>(value)) / 4096.0f;
 2274              		.loc 10 61 23 view .LVU466
 2275              	.LBB1318:
  62:./mi-custom/clouds/dsp/fx/fx_engine.h ****   }
 2276              		.loc 10 62 5 view .LVU467
  62:./mi-custom/clouds/dsp/fx/fx_engine.h ****   }
 2277              		.loc 10 62 5 is_stmt 0 view .LVU468
 2278              	.LBE1318:
 2279              	.LBE1322:
 2280              	.LBE1329:
 2281              	.LBE1460:
 2282              	.LBB1461:
 2283              	.LBB1459:
 224:./mi-custom/clouds/dsp/fx/fx_engine.h ****     }
 2284              		.loc 10 224 20 view .LVU469
 2285 03ae 34EEE08A 		vsub.f32	s16, s9, s1
 2286              	.LBE1459:
 2287              	.LBE1461:
 2288              	.LBB1462:
 2289              	.LBB1330:
 209:./mi-custom/clouds/dsp/fx/fx_engine.h ****     }
 2290              		.loc 10 209 20 view .LVU470
 2291 03b2 A6EE078A 		vfma.f32	s16, s12, s14
 2292              	.LVL94:
 209:./mi-custom/clouds/dsp/fx/fx_engine.h ****     }
 2293              		.loc 10 209 20 view .LVU471
ARM GAS  C:\Users\pedro\AppData\Local\Temp\cce24yZj.s 			page 76


 2294              	.LBE1330:
 2295              	.LBE1462:
 135:./mi-custom/clouds/dsp/fx/voxverb.h ****       c.WriteAllPass(dap2a, -kap);
 2296              		.loc 9 135 7 is_stmt 1 view .LVU472
 2297              	.LBB1463:
 2298              	.LBI1331:
 194:./mi-custom/clouds/dsp/fx/fx_engine.h ****       WriteAllPass(d, 0, scale);
 2299              		.loc 10 194 17 view .LVU473
 2300              	.LBB1358:
 2301              	.LBI1332:
 188:./mi-custom/clouds/dsp/fx/fx_engine.h ****       Write(d, offset, scale);
 2302              		.loc 10 188 17 view .LVU474
 2303              	.LBB1354:
 2304              	.LBB1350:
 2305              	.LBI1334:
 171:./mi-custom/clouds/dsp/fx/fx_engine.h ****       STATIC_ASSERT(D::base + D::length <= size, delay_memory_full);
 2306              		.loc 10 171 17 view .LVU475
 2307              	.LBB1346:
 2308              	.LBB1336:
 2309              	.LBI1336:
  65:./mi-custom/clouds/dsp/fx/fx_engine.h ****     return static_cast<uint16_t>(
 2310              		.loc 10 65 19 view .LVU476
 2311              	.LBB1337:
  66:./mi-custom/clouds/dsp/fx/fx_engine.h ****         stmlib::Clip16(static_cast<int32_t>(value * 4096.0f)));
 2312              		.loc 10 66 5 view .LVU477
 2313              	.LBB1338:
 2314              	.LBI1338:
 131:./mi-custom/stmlib/dsp/dsp.h ****     int32_t result;
 2315              		.loc 14 131 18 view .LVU478
 2316              	.LBB1339:
 132:./mi-custom/stmlib/dsp/dsp.h ****     __asm ("ssat %0, %1, %2" : "=r" (result) :  "I" (16), "r" (x) );
 2317              		.loc 14 132 5 view .LVU479
 133:./mi-custom/stmlib/dsp/dsp.h ****     return result;
 2318              		.loc 14 133 5 view .LVU480
 2319              	.LBE1339:
 2320              	.LBE1338:
  67:./mi-custom/clouds/dsp/fx/fx_engine.h ****   }
 2321              		.loc 10 67 23 is_stmt 0 view .LVU481
 2322 03b6 F0EE486A 		vmov.f32	s13, s16
 2323              	.LBE1337:
 2324              	.LBE1336:
 2325              	.LBE1346:
 2326              	.LBE1350:
 190:./mi-custom/clouds/dsp/fx/fx_engine.h ****     }
 2327              		.loc 10 190 20 view .LVU482
 2328 03ba A8EE257A 		vfma.f32	s14, s16, s11
 2329              	.LVL95:
 2330              	.LBB1351:
 2331              	.LBB1347:
 2332              	.LBB1343:
 2333              	.LBB1342:
  67:./mi-custom/clouds/dsp/fx/fx_engine.h ****   }
 2334              		.loc 10 67 23 view .LVU483
 2335 03be FEEECA6A 		vcvt.s32.f32	s13, s13, #12
 2336 03c2 16EE907A 		vmov	r7, s13	@ int
 2337              	.LBB1341:
 2338              	.LBB1340:
ARM GAS  C:\Users\pedro\AppData\Local\Temp\cce24yZj.s 			page 77


 133:./mi-custom/stmlib/dsp/dsp.h ****     return result;
 2339              		.loc 14 133 5 view .LVU484
 2340              		.syntax unified
 2341              	@ 133 "./mi-custom/stmlib/dsp/dsp.h" 1
 2342 03c6 07F30F07 		ssat r7, #16, r7
 2343              	@ 0 "" 2
 2344              	.LVL96:
 2345              		.loc 14 134 5 is_stmt 1 view .LVU485
 2346              		.loc 14 134 5 is_stmt 0 view .LVU486
 2347              		.thumb
 2348              		.syntax unified
 2349              	.LBE1340:
 2350              	.LBE1341:
  67:./mi-custom/clouds/dsp/fx/fx_engine.h ****   }
 2351              		.loc 10 67 62 view .LVU487
 2352 03ca 22F81970 		strh	r7, [r2, r9, lsl #1]	@ movhi
 2353              	.LVL97:
  67:./mi-custom/clouds/dsp/fx/fx_engine.h ****   }
 2354              		.loc 10 67 62 view .LVU488
 2355              	.LBE1342:
 2356              	.LBE1343:
 2357              	.LBE1347:
 2358              	.LBE1351:
 2359              	.LBE1354:
 2360              	.LBE1358:
 2361              	.LBE1463:
 136:./mi-custom/clouds/dsp/fx/voxverb.h ****       c.Read(dap2b TAIL, -kap);
 2362              		.loc 9 136 7 is_stmt 1 view .LVU489
 2363              	.LBB1464:
 2364              	.LBI1400:
 199:./mi-custom/clouds/dsp/fx/fx_engine.h ****       STATIC_ASSERT(D::base + D::length <= size, delay_memory_full);
 2365              		.loc 10 199 17 view .LVU490
 2366              	.LBB1408:
 2367              	.LBB1402:
 2368              	.LBI1402:
  61:./mi-custom/clouds/dsp/fx/fx_engine.h ****     return static_cast<float>(static_cast<int16_t>(value)) / 4096.0f;
 2369              		.loc 10 61 23 view .LVU491
 2370              	.LBB1403:
  62:./mi-custom/clouds/dsp/fx/fx_engine.h ****   }
 2371              		.loc 10 62 5 view .LVU492
 2372              	.LBE1403:
 2373              	.LBE1402:
 2374              	.LBE1408:
 2375              	.LBE1464:
 2376              	.LBB1465:
 2377              	.LBB1359:
 2378              	.LBB1355:
 190:./mi-custom/clouds/dsp/fx/fx_engine.h ****     }
 2379              		.loc 10 190 20 is_stmt 0 view .LVU493
 2380 03ce F0EE476A 		vmov.f32	s13, s14
 2381              	.LBE1355:
 2382              	.LBE1359:
 2383              	.LBE1465:
 2384              	.LBB1466:
 2385              	.LBB1409:
 2386              	.LBB1405:
 2387              	.LBB1404:
ARM GAS  C:\Users\pedro\AppData\Local\Temp\cce24yZj.s 			page 78


  62:./mi-custom/clouds/dsp/fx/fx_engine.h ****   }
 2388              		.loc 10 62 12 view .LVU494
 2389 03d2 32F91110 		ldrsh	r1, [r2, r1, lsl #1]
 2390 03d6 07EE101A 		vmov	s14, r1	@ int
 2391 03da B8EEC77A 		vcvt.f32.s32	s14, s14
  62:./mi-custom/clouds/dsp/fx/fx_engine.h ****   }
 2392              		.loc 10 62 62 view .LVU495
 2393 03de 67EE277A 		vmul.f32	s15, s14, s15
 2394              	.LVL98:
  62:./mi-custom/clouds/dsp/fx/fx_engine.h ****   }
 2395              		.loc 10 62 62 view .LVU496
 2396              	.LBE1404:
 2397              	.LBE1405:
 209:./mi-custom/clouds/dsp/fx/fx_engine.h ****     }
 2398              		.loc 10 209 20 view .LVU497
 2399 03e2 B0EE667A 		vmov.f32	s14, s13
 2400 03e6 A7EEA57A 		vfma.f32	s14, s15, s11
 2401              	.LVL99:
 209:./mi-custom/clouds/dsp/fx/fx_engine.h ****     }
 2402              		.loc 10 209 20 view .LVU498
 2403              	.LBE1409:
 2404              	.LBE1466:
 137:./mi-custom/clouds/dsp/fx/voxverb.h ****       c.WriteAllPass(dap2b, kap);
 2405              		.loc 9 137 7 is_stmt 1 view .LVU499
 2406              	.LBB1467:
 2407              	.LBI1411:
 194:./mi-custom/clouds/dsp/fx/fx_engine.h ****       WriteAllPass(d, 0, scale);
 2408              		.loc 10 194 17 view .LVU500
 2409              	.LBB1444:
 2410              	.LBI1412:
 188:./mi-custom/clouds/dsp/fx/fx_engine.h ****       Write(d, offset, scale);
 2411              		.loc 10 188 17 view .LVU501
 2412              	.LBB1440:
 2413              	.LBB1435:
 2414              	.LBI1414:
 171:./mi-custom/clouds/dsp/fx/fx_engine.h ****       STATIC_ASSERT(D::base + D::length <= size, delay_memory_full);
 2415              		.loc 10 171 17 view .LVU502
 2416              	.LBB1430:
 2417              	.LBB1416:
 2418              	.LBI1416:
  65:./mi-custom/clouds/dsp/fx/fx_engine.h ****     return static_cast<uint16_t>(
 2419              		.loc 10 65 19 view .LVU503
 2420              	.LBB1417:
  66:./mi-custom/clouds/dsp/fx/fx_engine.h ****         stmlib::Clip16(static_cast<int32_t>(value * 4096.0f)));
 2421              		.loc 10 66 5 view .LVU504
 2422              	.LBB1418:
 2423              	.LBI1418:
 131:./mi-custom/stmlib/dsp/dsp.h ****     int32_t result;
 2424              		.loc 14 131 18 view .LVU505
 2425              	.LBB1419:
 132:./mi-custom/stmlib/dsp/dsp.h ****     __asm ("ssat %0, %1, %2" : "=r" (result) :  "I" (16), "r" (x) );
 2426              		.loc 14 132 5 view .LVU506
 133:./mi-custom/stmlib/dsp/dsp.h ****     return result;
 2427              		.loc 14 133 5 view .LVU507
 2428              	.LBE1419:
 2429              	.LBE1418:
 2430              	.LBE1417:
ARM GAS  C:\Users\pedro\AppData\Local\Temp\cce24yZj.s 			page 79


 2431              	.LBE1416:
 2432              	.LBE1430:
 2433              	.LBE1435:
 190:./mi-custom/clouds/dsp/fx/fx_engine.h ****     }
 2434              		.loc 10 190 20 is_stmt 0 view .LVU508
 2435 03ea E6EE077A 		vfma.f32	s15, s12, s14
 2436              	.LVL100:
 2437              	.LBB1436:
 2438              	.LBB1431:
 2439              	.LBB1426:
 2440              	.LBB1424:
  67:./mi-custom/clouds/dsp/fx/fx_engine.h ****   }
 2441              		.loc 10 67 23 view .LVU509
 2442 03ee BEEECA7A 		vcvt.s32.f32	s14, s14, #12
 2443              	.LVL101:
 2444              	.LBB1422:
 2445              	.LBB1420:
 133:./mi-custom/stmlib/dsp/dsp.h ****     return result;
 2446              		.loc 14 133 5 view .LVU510
 2447 03f2 17EE101A 		vmov	r1, s14	@ int
 2448              	.LVL102:
 133:./mi-custom/stmlib/dsp/dsp.h ****     return result;
 2449              		.loc 14 133 5 view .LVU511
 2450              	.LBE1420:
 2451              	.LBE1422:
 2452              	.LBE1424:
 2453              	.LBE1426:
 2454              	.LBE1431:
 2455              	.LBE1436:
 2456              	.LBE1440:
 2457              	.LBE1444:
 2458              	.LBE1467:
 138:./mi-custom/clouds/dsp/fx/voxverb.h ****       c.Write(del2, 2.0f);
 139:./mi-custom/clouds/dsp/fx/voxverb.h ****       c.Write(wet, 0.0f);
 140:./mi-custom/clouds/dsp/fx/voxverb.h **** 
 141:./mi-custom/clouds/dsp/fx/voxverb.h ****       in_out->r += (wet - in_out->r) * amount;
 2459              		.loc 9 141 25 view .LVU512
 2460 03f6 B0EE457A 		vmov.f32	s14, s10
 2461              	.LBB1468:
 2462              	.LBB1445:
 2463              	.LBB1441:
 2464              	.LBB1437:
 2465              	.LBB1432:
 2466              	.LBB1427:
 2467              	.LBB1425:
 2468              	.LBB1423:
 2469              	.LBB1421:
 133:./mi-custom/stmlib/dsp/dsp.h ****     return result;
 2470              		.loc 14 133 5 view .LVU513
 2471              		.syntax unified
 2472              	@ 133 "./mi-custom/stmlib/dsp/dsp.h" 1
 2473 03fa 01F30F01 		ssat r1, #16, r1
 2474              	@ 0 "" 2
 2475              	.LVL103:
 2476              		.loc 14 134 5 is_stmt 1 view .LVU514
 2477              		.loc 14 134 5 is_stmt 0 view .LVU515
 2478              		.thumb
ARM GAS  C:\Users\pedro\AppData\Local\Temp\cce24yZj.s 			page 80


 2479              		.syntax unified
 2480              	.LBE1421:
 2481              	.LBE1423:
  67:./mi-custom/clouds/dsp/fx/fx_engine.h ****   }
 2482              		.loc 10 67 62 view .LVU516
 2483 03fe 22F81610 		strh	r1, [r2, r6, lsl #1]	@ movhi
 2484              	.LVL104:
  67:./mi-custom/clouds/dsp/fx/fx_engine.h ****   }
 2485              		.loc 10 67 62 view .LVU517
 2486              	.LBE1425:
 2487              	.LBE1427:
 2488              	.LBE1432:
 2489              	.LBE1437:
 2490              	.LBE1441:
 2491              	.LBE1445:
 2492              	.LBE1468:
 138:./mi-custom/clouds/dsp/fx/voxverb.h ****       c.Write(del2, 2.0f);
 2493              		.loc 9 138 7 is_stmt 1 view .LVU518
 2494              	.LBB1469:
 2495              	.LBI1102:
 183:./mi-custom/clouds/dsp/fx/fx_engine.h ****       Write(d, 0, scale);
 2496              		.loc 10 183 17 view .LVU519
 2497              	.LBB1120:
 2498              	.LBI1103:
 171:./mi-custom/clouds/dsp/fx/fx_engine.h ****       STATIC_ASSERT(D::base + D::length <= size, delay_memory_full);
 2499              		.loc 10 171 17 view .LVU520
 2500              	.LBB1116:
 2501              	.LBB1105:
 2502              	.LBI1105:
  65:./mi-custom/clouds/dsp/fx/fx_engine.h ****     return static_cast<uint16_t>(
 2503              		.loc 10 65 19 view .LVU521
 2504              	.LBB1106:
  66:./mi-custom/clouds/dsp/fx/fx_engine.h ****         stmlib::Clip16(static_cast<int32_t>(value * 4096.0f)));
 2505              		.loc 10 66 5 view .LVU522
 2506              	.LBB1107:
 2507              	.LBI1107:
 131:./mi-custom/stmlib/dsp/dsp.h ****     int32_t result;
 2508              		.loc 14 131 18 view .LVU523
 2509              	.LBB1108:
 132:./mi-custom/stmlib/dsp/dsp.h ****     __asm ("ssat %0, %1, %2" : "=r" (result) :  "I" (16), "r" (x) );
 2510              		.loc 14 132 5 view .LVU524
 133:./mi-custom/stmlib/dsp/dsp.h ****     return result;
 2511              		.loc 14 133 5 view .LVU525
 2512              	.LBE1108:
 2513              	.LBE1107:
 2514              	.LBE1106:
 2515              	.LBE1105:
 2516              	.LBE1116:
 2517              	.LBE1120:
 2518              	.LBE1469:
 2519              		.loc 9 141 25 is_stmt 0 view .LVU526
 2520 0402 97EE807A 		vfnms.f32	s14, s15, s0
 2521              	.LBB1470:
 2522              	.LBB1121:
 2523              	.LBB1117:
 2524              	.LBB1113:
 2525              	.LBB1111:
ARM GAS  C:\Users\pedro\AppData\Local\Temp\cce24yZj.s 			page 81


  67:./mi-custom/clouds/dsp/fx/fx_engine.h ****   }
 2526              		.loc 10 67 23 view .LVU527
 2527 0406 FEEECA7A 		vcvt.s32.f32	s15, s15, #12
 2528              	.LVL105:
 2529              	.LBB1110:
 2530              	.LBB1109:
 133:./mi-custom/stmlib/dsp/dsp.h ****     return result;
 2531              		.loc 14 133 5 view .LVU528
 2532 040a 17EE901A 		vmov	r1, s15	@ int
 2533              	.LVL106:
 133:./mi-custom/stmlib/dsp/dsp.h ****     return result;
 2534              		.loc 14 133 5 view .LVU529
 2535              		.syntax unified
 2536              	@ 133 "./mi-custom/stmlib/dsp/dsp.h" 1
 2537 040e 01F30F01 		ssat r1, #16, r1
 2538              	@ 0 "" 2
 2539              	.LVL107:
 2540              		.loc 14 134 5 is_stmt 1 view .LVU530
 2541              		.loc 14 134 5 is_stmt 0 view .LVU531
 2542              		.thumb
 2543              		.syntax unified
 2544              	.LBE1109:
 2545              	.LBE1110:
 2546              	.LBE1111:
 2547              	.LBE1113:
 2548              	.LBE1117:
 2549              	.LBE1121:
 2550              	.LBE1470:
 2551              		.loc 9 141 17 view .LVU532
 2552 0412 A7EE025A 		vfma.f32	s10, s14, s4
 2553              	.LBB1471:
 2554              	.LBB1122:
 2555              	.LBB1118:
 2556              	.LBB1114:
 2557              	.LBB1112:
  67:./mi-custom/clouds/dsp/fx/fx_engine.h ****   }
 2558              		.loc 10 67 62 view .LVU533
 2559 0416 22F81C10 		strh	r1, [r2, ip, lsl #1]	@ movhi
 2560              	.LVL108:
  67:./mi-custom/clouds/dsp/fx/fx_engine.h ****   }
 2561              		.loc 10 67 62 view .LVU534
 2562              	.LBE1112:
 2563              	.LBE1114:
 2564              	.LBE1118:
 2565              	.LBE1122:
 2566              	.LBE1471:
 139:./mi-custom/clouds/dsp/fx/voxverb.h **** 
 2567              		.loc 9 139 7 is_stmt 1 view .LVU535
 2568              		.loc 9 141 7 view .LVU536
 2569              	.LBE1478:
  91:./mi-custom/clouds/dsp/fx/voxverb.h ****       float wet;
 2570              		.loc 9 91 16 is_stmt 0 view .LVU537
 2571 041a 611C     		adds	r1, r4, #1
 2572              	.LVL109:
 2573              	.LBB1479:
 2574              		.loc 9 141 17 view .LVU538
 2575 041c 0EED035A 		vstr.32	s10, [lr, #-12]
ARM GAS  C:\Users\pedro\AppData\Local\Temp\cce24yZj.s 			page 82


 142:./mi-custom/clouds/dsp/fx/voxverb.h ****       
 143:./mi-custom/clouds/dsp/fx/voxverb.h ****       ++in_out;
 2576              		.loc 9 143 7 is_stmt 1 view .LVU539
 2577              	.LVL110:
 2578              		.loc 9 143 7 is_stmt 0 view .LVU540
 2579              	.LBE1479:
  91:./mi-custom/clouds/dsp/fx/voxverb.h ****       float wet;
 2580              		.loc 9 91 5 is_stmt 1 view .LVU541
  91:./mi-custom/clouds/dsp/fx/voxverb.h ****       float wet;
 2581              		.loc 9 91 16 view .LVU542
  91:./mi-custom/clouds/dsp/fx/voxverb.h ****       float wet;
 2582              		.loc 9 91 16 is_stmt 0 view .LVU543
 2583 0420 12D0     		beq	.L21
 2584              	.LVL111:
 2585              	.L12:
 2586              	.LBB1480:
  92:./mi-custom/clouds/dsp/fx/voxverb.h ****       float apout = 0.0f;
 2587              		.loc 9 92 7 is_stmt 1 view .LVU544
  93:./mi-custom/clouds/dsp/fx/voxverb.h ****       engine_.Start(&c);
 2588              		.loc 9 93 7 view .LVU545
  94:./mi-custom/clouds/dsp/fx/voxverb.h ****       
 2589              		.loc 9 94 7 view .LVU546
 2590              	.LBB1472:
 2591              	.LBI837:
 270:./mi-custom/clouds/dsp/fx/fx_engine.h ****     --write_ptr_;
 2592              		.loc 10 270 15 view .LVU547
 2593              	.LBB864:
 272:./mi-custom/clouds/dsp/fx/fx_engine.h ****       write_ptr_ += size;
 2594              		.loc 10 272 5 is_stmt 0 view .LVU548
 2595 0422 591E     		subs	r1, r3, #1
 2596 0424 0BD4     		bmi	.L8
 272:./mi-custom/clouds/dsp/fx/fx_engine.h ****       write_ptr_ += size;
 2597              		.loc 10 272 5 view .LVU549
 2598              	.LBE864:
 2599              	.LBE1472:
 2600              	.LBB1473:
 2601              	.LBB963:
 2602              	.LBB961:
 2603              	.LBB959:
 2604              	.LBB956:
 177:./mi-custom/clouds/dsp/fx/fx_engine.h ****       }
 2605              		.loc 10 177 49 view .LVU550
 2606 0426 0B46     		mov	r3, r1
 2607 0428 8846     		mov	r8, r1
 2608              	.L9:
 2609              	.LBE956:
 2610              	.LBE959:
 2611              	.LBE961:
 2612              	.LBE963:
 2613              	.LBE1473:
 2614              	.LBB1474:
 2615              	.LBB865:
 278:./mi-custom/clouds/dsp/fx/fx_engine.h ****     c->write_ptr_ = write_ptr_;
 279:./mi-custom/clouds/dsp/fx/fx_engine.h ****     if ((write_ptr_ & 31) == 0) {
 2616              		.loc 10 279 5 view .LVU551
 2617 042a DE06     		lsls	r6, r3, #27
 2618 042c 3FF417AE 		beq	.L22
ARM GAS  C:\Users\pedro\AppData\Local\Temp\cce24yZj.s 			page 83


 2619              	.LVL112:
 2620              	.LBB861:
 2621              	.LBI861:
  81:./mi-custom/stmlib/dsp/cosine_oscillator.h ****     return y1_ + 0.5f;
 2622              		.loc 13 81 16 is_stmt 1 view .LVU552
 2623              	.LBB862:
  82:./mi-custom/stmlib/dsp/cosine_oscillator.h ****   }
 2624              		.loc 13 82 5 view .LVU553
  82:./mi-custom/stmlib/dsp/cosine_oscillator.h ****   }
 2625              		.loc 13 82 18 is_stmt 0 view .LVU554
 2626 0430 F6EE007A 		vmov.f32	s15, #5.0e-1
 2627 0434 D0ED026A 		vldr.32	s13, [r0, #8]
 2628 0438 76EEA76A 		vadd.f32	s13, s13, s15
 2629              	.LVL113:
  82:./mi-custom/stmlib/dsp/cosine_oscillator.h ****   }
 2630              		.loc 13 82 18 view .LVU555
 2631              	.LBE862:
 2632              	.LBE861:
 2633              	.LBE865:
 2634              	.LBE1474:
 2635              	.LBE1480:
  82:./mi-custom/stmlib/dsp/cosine_oscillator.h ****   }
 2636              		.loc 13 82 5 is_stmt 1 view .LVU556
  82:./mi-custom/stmlib/dsp/cosine_oscillator.h ****   }
 2637              		.loc 13 82 5 is_stmt 0 view .LVU557
 2638 043c 2BE6     		b	.L11
 2639              	.LVL114:
 2640              	.L8:
 2641              	.LBB1481:
 2642              	.LBB1475:
 2643              	.LBB866:
 273:./mi-custom/clouds/dsp/fx/fx_engine.h ****     }
 2644              		.loc 10 273 18 view .LVU558
 2645 043e 03F57F53 		add	r3, r3, #16320
 2646 0442 3F33     		adds	r3, r3, #63
 2647 0444 9846     		mov	r8, r3
 2648 0446 F0E7     		b	.L9
 2649              	.LVL115:
 2650              	.L21:
 273:./mi-custom/clouds/dsp/fx/fx_engine.h ****     }
 2651              		.loc 10 273 18 view .LVU559
 2652              	.LBE866:
 2653              	.LBE1475:
 2654              	.LBE1481:
 144:./mi-custom/clouds/dsp/fx/voxverb.h ****     }
 145:./mi-custom/clouds/dsp/fx/voxverb.h ****     
 146:./mi-custom/clouds/dsp/fx/voxverb.h ****     lp_decay_1_ = lp_1;
 147:./mi-custom/clouds/dsp/fx/voxverb.h ****     lp_decay_2_ = lp_2;
 148:./mi-custom/clouds/dsp/fx/voxverb.h ****   }
 2655              		.loc 9 148 3 view .LVU560
 2656 0448 BDEC088B 		vldm	sp!, {d8-d11}
 2657              		.cfi_restore 86
 2658              		.cfi_restore 87
 2659              		.cfi_restore 84
 2660              		.cfi_restore 85
 2661              		.cfi_restore 82
 2662              		.cfi_restore 83
ARM GAS  C:\Users\pedro\AppData\Local\Temp\cce24yZj.s 			page 84


 2663              		.cfi_restore 80
 2664              		.cfi_restore 81
 2665              		.cfi_def_cfa_offset 36
 2666 044c 0360     		str	r3, [r0]
 146:./mi-custom/clouds/dsp/fx/voxverb.h ****     lp_decay_2_ = lp_2;
 2667              		.loc 9 146 5 is_stmt 1 view .LVU561
 146:./mi-custom/clouds/dsp/fx/voxverb.h ****     lp_decay_2_ = lp_2;
 2668              		.loc 9 146 17 is_stmt 0 view .LVU562
 2669 044e 80ED104A 		vstr.32	s8, [r0, #64]
 147:./mi-custom/clouds/dsp/fx/voxverb.h ****   }
 2670              		.loc 9 147 5 is_stmt 1 view .LVU563
 147:./mi-custom/clouds/dsp/fx/voxverb.h ****   }
 2671              		.loc 9 147 17 is_stmt 0 view .LVU564
 2672 0452 C0ED114A 		vstr.32	s9, [r0, #68]
 2673              	.LVL116:
 2674              	.LBB1482:
 2675              	.LBI1482:
 147:./mi-custom/clouds/dsp/fx/fx_engine.h ****     
 2676              		.loc 10 147 5 is_stmt 1 view .LVU565
 147:./mi-custom/clouds/dsp/fx/fx_engine.h ****     
 2677              		.loc 10 147 5 is_stmt 0 view .LVU566
 2678              	.LBE1482:
 2679              		.loc 9 148 3 view .LVU567
 2680 0456 BDE8F08F 		pop	{r4, r5, r6, r7, r8, r9, r10, fp, pc}
 2681              	.LVL117:
 2682              	.L18:
 2683              		.cfi_def_cfa_offset 0
 2684              		.cfi_restore 4
 2685              		.cfi_restore 5
 2686              		.cfi_restore 6
 2687              		.cfi_restore 7
 2688              		.cfi_restore 8
 2689              		.cfi_restore 9
 2690              		.cfi_restore 10
 2691              		.cfi_restore 11
 2692              		.cfi_restore 14
 146:./mi-custom/clouds/dsp/fx/voxverb.h ****     lp_decay_2_ = lp_2;
 2693              		.loc 9 146 5 is_stmt 1 view .LVU568
 146:./mi-custom/clouds/dsp/fx/voxverb.h ****     lp_decay_2_ = lp_2;
 2694              		.loc 9 146 17 is_stmt 0 view .LVU569
 2695 045a 80ED104A 		vstr.32	s8, [r0, #64]
 147:./mi-custom/clouds/dsp/fx/voxverb.h ****   }
 2696              		.loc 9 147 5 is_stmt 1 view .LVU570
 147:./mi-custom/clouds/dsp/fx/voxverb.h ****   }
 2697              		.loc 9 147 17 is_stmt 0 view .LVU571
 2698 045e C0ED114A 		vstr.32	s9, [r0, #68]
 2699              	.LVL118:
 2700              	.LBB1483:
 147:./mi-custom/clouds/dsp/fx/fx_engine.h ****     
 2701              		.loc 10 147 5 is_stmt 1 view .LVU572
 147:./mi-custom/clouds/dsp/fx/fx_engine.h ****     
 2702              		.loc 10 147 5 is_stmt 0 view .LVU573
 2703              	.LBE1483:
 147:./mi-custom/clouds/dsp/fx/voxverb.h ****   }
 2704              		.loc 9 147 17 view .LVU574
 2705 0462 7047     		bx	lr
 2706              	.L24:
ARM GAS  C:\Users\pedro\AppData\Local\Temp\cce24yZj.s 			page 85


 2707              		.align	2
 2708              	.L23:
 2709 0464 00007042 		.word	1114636288
 2710 0468 00008039 		.word	964689920
 2711 046c 00000000 		.word	0
 2712              		.cfi_endproc
 2713              	.LFE4841:
 2715              		.section	.text._Z13AudioCallbackPKPKfPPfj,"ax",%progbits
 2716              		.align	1
 2717              		.p2align 2,,3
 2718              		.global	_Z13AudioCallbackPKPKfPPfj
 2719              		.syntax unified
 2720              		.thumb
 2721              		.thumb_func
 2722              		.fpu fpv5-d16
 2724              	_Z13AudioCallbackPKPKfPPfj:
 2725              	.LVL119:
 2726              	.LFB4938:
 2727              		.file 15 "Reverb.cpp"
   1:Reverb.cpp    **** #include <time.h>
   2:Reverb.cpp    **** 
   3:Reverb.cpp    **** #include "daisy_patch_sm.h"
   4:Reverb.cpp    **** #include "daisysp.h"
   5:Reverb.cpp    **** 
